
ES_Project_Digital-Clock.elf:     file format elf32-littlearm

Sections:
Idx Name          Size      VMA       LMA       File off  Algn
  0 .isr_vector   0000010c  08000000  08000000  00001000  2**0
                  CONTENTS, ALLOC, LOAD, READONLY, DATA
  1 .text         00005744  0800010c  0800010c  0000110c  2**2
                  CONTENTS, ALLOC, LOAD, READONLY, CODE
  2 .rodata       0000003c  08005850  08005850  00006850  2**2
                  CONTENTS, ALLOC, LOAD, READONLY, DATA
  3 .ARM.extab    00000000  0800588c  0800588c  0000705c  2**0
                  CONTENTS, READONLY
  4 .ARM          00000000  0800588c  0800588c  0000705c  2**0
                  CONTENTS, READONLY
  5 .preinit_array 00000000  0800588c  0800588c  0000705c  2**0
                  CONTENTS, ALLOC, LOAD, DATA
  6 .init_array   00000004  0800588c  0800588c  0000688c  2**2
                  CONTENTS, ALLOC, LOAD, READONLY, DATA
  7 .fini_array   00000004  08005890  08005890  00006890  2**2
                  CONTENTS, ALLOC, LOAD, READONLY, DATA
  8 .data         0000005c  20000000  08005894  00007000  2**2
                  CONTENTS, ALLOC, LOAD, DATA
  9 .bss          000001c0  2000005c  080058f0  0000705c  2**2
                  ALLOC
 10 ._user_heap_stack 00000604  2000021c  080058f0  0000721c  2**0
                  ALLOC
 11 .ARM.attributes 00000029  00000000  00000000  0000705c  2**0
                  CONTENTS, READONLY
 12 .debug_info   0000f61f  00000000  00000000  00007085  2**0
                  CONTENTS, READONLY, DEBUGGING, OCTETS
 13 .debug_abbrev 00002976  00000000  00000000  000166a4  2**0
                  CONTENTS, READONLY, DEBUGGING, OCTETS
 14 .debug_aranges 00000e28  00000000  00000000  00019020  2**3
                  CONTENTS, READONLY, DEBUGGING, OCTETS
 15 .debug_rnglists 00000b09  00000000  00000000  00019e48  2**0
                  CONTENTS, READONLY, DEBUGGING, OCTETS
 16 .debug_macro  00018c15  00000000  00000000  0001a951  2**0
                  CONTENTS, READONLY, DEBUGGING, OCTETS
 17 .debug_line   00013610  00000000  00000000  00033566  2**0
                  CONTENTS, READONLY, DEBUGGING, OCTETS
 18 .debug_str    0008c2c3  00000000  00000000  00046b76  2**0
                  CONTENTS, READONLY, DEBUGGING, OCTETS
 19 .comment      00000043  00000000  00000000  000d2e39  2**0
                  CONTENTS, READONLY
 20 .debug_frame  000039b0  00000000  00000000  000d2e7c  2**2
                  CONTENTS, READONLY, DEBUGGING, OCTETS
 21 .debug_line_str 00000087  00000000  00000000  000d682c  2**0
                  CONTENTS, READONLY, DEBUGGING, OCTETS

Disassembly of section .text:

0800010c <__do_global_dtors_aux>:
 800010c:	b510      	push	{r4, lr}
 800010e:	4c05      	ldr	r4, [pc, #20]	@ (8000124 <__do_global_dtors_aux+0x18>)
 8000110:	7823      	ldrb	r3, [r4, #0]
 8000112:	b933      	cbnz	r3, 8000122 <__do_global_dtors_aux+0x16>
 8000114:	4b04      	ldr	r3, [pc, #16]	@ (8000128 <__do_global_dtors_aux+0x1c>)
 8000116:	b113      	cbz	r3, 800011e <__do_global_dtors_aux+0x12>
 8000118:	4804      	ldr	r0, [pc, #16]	@ (800012c <__do_global_dtors_aux+0x20>)
 800011a:	f3af 8000 	nop.w
 800011e:	2301      	movs	r3, #1
 8000120:	7023      	strb	r3, [r4, #0]
 8000122:	bd10      	pop	{r4, pc}
 8000124:	2000005c 	.word	0x2000005c
 8000128:	00000000 	.word	0x00000000
 800012c:	08005838 	.word	0x08005838

08000130 <frame_dummy>:
 8000130:	b508      	push	{r3, lr}
 8000132:	4b03      	ldr	r3, [pc, #12]	@ (8000140 <frame_dummy+0x10>)
 8000134:	b11b      	cbz	r3, 800013e <frame_dummy+0xe>
 8000136:	4903      	ldr	r1, [pc, #12]	@ (8000144 <frame_dummy+0x14>)
 8000138:	4803      	ldr	r0, [pc, #12]	@ (8000148 <frame_dummy+0x18>)
 800013a:	f3af 8000 	nop.w
 800013e:	bd08      	pop	{r3, pc}
 8000140:	00000000 	.word	0x00000000
 8000144:	20000060 	.word	0x20000060
 8000148:	08005838 	.word	0x08005838

0800014c <MX_ADC1_Init>:

ADC_HandleTypeDef hadc1;

/* ADC1 init function */
void MX_ADC1_Init(void)
{
 800014c:	b580      	push	{r7, lr}
 800014e:	b084      	sub	sp, #16
 8000150:	af00      	add	r7, sp, #0

  /* USER CODE BEGIN ADC1_Init 0 */

  /* USER CODE END ADC1_Init 0 */

  ADC_ChannelConfTypeDef sConfig = {0};
 8000152:	1d3b      	adds	r3, r7, #4
 8000154:	2200      	movs	r2, #0
 8000156:	601a      	str	r2, [r3, #0]
 8000158:	605a      	str	r2, [r3, #4]
 800015a:	609a      	str	r2, [r3, #8]

  /* USER CODE END ADC1_Init 1 */

  /** Common config
  */
  hadc1.Instance = ADC1;
 800015c:	4b18      	ldr	r3, [pc, #96]	@ (80001c0 <MX_ADC1_Init+0x74>)
 800015e:	4a19      	ldr	r2, [pc, #100]	@ (80001c4 <MX_ADC1_Init+0x78>)
 8000160:	601a      	str	r2, [r3, #0]
  hadc1.Init.ScanConvMode = ADC_SCAN_DISABLE;
 8000162:	4b17      	ldr	r3, [pc, #92]	@ (80001c0 <MX_ADC1_Init+0x74>)
 8000164:	2200      	movs	r2, #0
 8000166:	609a      	str	r2, [r3, #8]
  hadc1.Init.ContinuousConvMode = DISABLE;
 8000168:	4b15      	ldr	r3, [pc, #84]	@ (80001c0 <MX_ADC1_Init+0x74>)
 800016a:	2200      	movs	r2, #0
 800016c:	731a      	strb	r2, [r3, #12]
  hadc1.Init.DiscontinuousConvMode = DISABLE;
 800016e:	4b14      	ldr	r3, [pc, #80]	@ (80001c0 <MX_ADC1_Init+0x74>)
 8000170:	2200      	movs	r2, #0
 8000172:	751a      	strb	r2, [r3, #20]
  hadc1.Init.ExternalTrigConv = ADC_SOFTWARE_START;
 8000174:	4b12      	ldr	r3, [pc, #72]	@ (80001c0 <MX_ADC1_Init+0x74>)
 8000176:	f44f 2260 	mov.w	r2, #917504	@ 0xe0000
 800017a:	61da      	str	r2, [r3, #28]
  hadc1.Init.DataAlign = ADC_DATAALIGN_RIGHT;
 800017c:	4b10      	ldr	r3, [pc, #64]	@ (80001c0 <MX_ADC1_Init+0x74>)
 800017e:	2200      	movs	r2, #0
 8000180:	605a      	str	r2, [r3, #4]
  hadc1.Init.NbrOfConversion = 1;
 8000182:	4b0f      	ldr	r3, [pc, #60]	@ (80001c0 <MX_ADC1_Init+0x74>)
 8000184:	2201      	movs	r2, #1
 8000186:	611a      	str	r2, [r3, #16]
  if (HAL_ADC_Init(&hadc1) != HAL_OK)
 8000188:	480d      	ldr	r0, [pc, #52]	@ (80001c0 <MX_ADC1_Init+0x74>)
 800018a:	f002 f867 	bl	800225c <HAL_ADC_Init>
 800018e:	4603      	mov	r3, r0
 8000190:	2b00      	cmp	r3, #0
 8000192:	d001      	beq.n	8000198 <MX_ADC1_Init+0x4c>
  {
    Error_Handler();
 8000194:	f001 fe26 	bl	8001de4 <Error_Handler>
  }

  /** Configure Regular Channel
  */
  sConfig.Channel = ADC_CHANNEL_4;
 8000198:	2304      	movs	r3, #4
 800019a:	607b      	str	r3, [r7, #4]
  sConfig.Rank = ADC_REGULAR_RANK_1;
 800019c:	2301      	movs	r3, #1
 800019e:	60bb      	str	r3, [r7, #8]
  sConfig.SamplingTime = ADC_SAMPLETIME_1CYCLE_5;
 80001a0:	2300      	movs	r3, #0
 80001a2:	60fb      	str	r3, [r7, #12]
  if (HAL_ADC_ConfigChannel(&hadc1, &sConfig) != HAL_OK)
 80001a4:	1d3b      	adds	r3, r7, #4
 80001a6:	4619      	mov	r1, r3
 80001a8:	4805      	ldr	r0, [pc, #20]	@ (80001c0 <MX_ADC1_Init+0x74>)
 80001aa:	f002 fab9 	bl	8002720 <HAL_ADC_ConfigChannel>
 80001ae:	4603      	mov	r3, r0
 80001b0:	2b00      	cmp	r3, #0
 80001b2:	d001      	beq.n	80001b8 <MX_ADC1_Init+0x6c>
  {
    Error_Handler();
 80001b4:	f001 fe16 	bl	8001de4 <Error_Handler>
  }
  /* USER CODE BEGIN ADC1_Init 2 */

  /* USER CODE END ADC1_Init 2 */

}
 80001b8:	bf00      	nop
 80001ba:	3710      	adds	r7, #16
 80001bc:	46bd      	mov	sp, r7
 80001be:	bd80      	pop	{r7, pc}
 80001c0:	20000078 	.word	0x20000078
 80001c4:	40012400 	.word	0x40012400

080001c8 <HAL_ADC_MspInit>:

void HAL_ADC_MspInit(ADC_HandleTypeDef* adcHandle)
{
 80001c8:	b580      	push	{r7, lr}
 80001ca:	b088      	sub	sp, #32
 80001cc:	af00      	add	r7, sp, #0
 80001ce:	6078      	str	r0, [r7, #4]

  GPIO_InitTypeDef GPIO_InitStruct = {0};
 80001d0:	f107 0310 	add.w	r3, r7, #16
 80001d4:	2200      	movs	r2, #0
 80001d6:	601a      	str	r2, [r3, #0]
 80001d8:	605a      	str	r2, [r3, #4]
 80001da:	609a      	str	r2, [r3, #8]
 80001dc:	60da      	str	r2, [r3, #12]
  if(adcHandle->Instance==ADC1)
 80001de:	687b      	ldr	r3, [r7, #4]
 80001e0:	681b      	ldr	r3, [r3, #0]
 80001e2:	4a18      	ldr	r2, [pc, #96]	@ (8000244 <HAL_ADC_MspInit+0x7c>)
 80001e4:	4293      	cmp	r3, r2
 80001e6:	d129      	bne.n	800023c <HAL_ADC_MspInit+0x74>
  {
  /* USER CODE BEGIN ADC1_MspInit 0 */

  /* USER CODE END ADC1_MspInit 0 */
    /* ADC1 clock enable */
    __HAL_RCC_ADC1_CLK_ENABLE();
 80001e8:	4b17      	ldr	r3, [pc, #92]	@ (8000248 <HAL_ADC_MspInit+0x80>)
 80001ea:	699b      	ldr	r3, [r3, #24]
 80001ec:	4a16      	ldr	r2, [pc, #88]	@ (8000248 <HAL_ADC_MspInit+0x80>)
 80001ee:	f443 7300 	orr.w	r3, r3, #512	@ 0x200
 80001f2:	6193      	str	r3, [r2, #24]
 80001f4:	4b14      	ldr	r3, [pc, #80]	@ (8000248 <HAL_ADC_MspInit+0x80>)
 80001f6:	699b      	ldr	r3, [r3, #24]
 80001f8:	f403 7300 	and.w	r3, r3, #512	@ 0x200
 80001fc:	60fb      	str	r3, [r7, #12]
 80001fe:	68fb      	ldr	r3, [r7, #12]

    __HAL_RCC_GPIOA_CLK_ENABLE();
 8000200:	4b11      	ldr	r3, [pc, #68]	@ (8000248 <HAL_ADC_MspInit+0x80>)
 8000202:	699b      	ldr	r3, [r3, #24]
 8000204:	4a10      	ldr	r2, [pc, #64]	@ (8000248 <HAL_ADC_MspInit+0x80>)
 8000206:	f043 0304 	orr.w	r3, r3, #4
 800020a:	6193      	str	r3, [r2, #24]
 800020c:	4b0e      	ldr	r3, [pc, #56]	@ (8000248 <HAL_ADC_MspInit+0x80>)
 800020e:	699b      	ldr	r3, [r3, #24]
 8000210:	f003 0304 	and.w	r3, r3, #4
 8000214:	60bb      	str	r3, [r7, #8]
 8000216:	68bb      	ldr	r3, [r7, #8]
    /**ADC1 GPIO Configuration
    PA4     ------> ADC1_IN4
    */
    GPIO_InitStruct.Pin = GPIO_PIN_4;
 8000218:	2310      	movs	r3, #16
 800021a:	613b      	str	r3, [r7, #16]
    GPIO_InitStruct.Mode = GPIO_MODE_ANALOG;
 800021c:	2303      	movs	r3, #3
 800021e:	617b      	str	r3, [r7, #20]
    HAL_GPIO_Init(GPIOA, &GPIO_InitStruct);
 8000220:	f107 0310 	add.w	r3, r7, #16
 8000224:	4619      	mov	r1, r3
 8000226:	4809      	ldr	r0, [pc, #36]	@ (800024c <HAL_ADC_MspInit+0x84>)
 8000228:	f002 fdd6 	bl	8002dd8 <HAL_GPIO_Init>

    /* ADC1 interrupt Init */
    HAL_NVIC_SetPriority(ADC1_2_IRQn, 0, 0);
 800022c:	2200      	movs	r2, #0
 800022e:	2100      	movs	r1, #0
 8000230:	2012      	movs	r0, #18
 8000232:	f002 fce8 	bl	8002c06 <HAL_NVIC_SetPriority>
    HAL_NVIC_EnableIRQ(ADC1_2_IRQn);
 8000236:	2012      	movs	r0, #18
 8000238:	f002 fd01 	bl	8002c3e <HAL_NVIC_EnableIRQ>
  /* USER CODE BEGIN ADC1_MspInit 1 */

  /* USER CODE END ADC1_MspInit 1 */
  }
}
 800023c:	bf00      	nop
 800023e:	3720      	adds	r7, #32
 8000240:	46bd      	mov	sp, r7
 8000242:	bd80      	pop	{r7, pc}
 8000244:	40012400 	.word	0x40012400
 8000248:	40021000 	.word	0x40021000
 800024c:	40010800 	.word	0x40010800

08000250 <MX_GPIO_Init>:
        * Output
        * EVENT_OUT
        * EXTI
*/
void MX_GPIO_Init(void)
{
 8000250:	b580      	push	{r7, lr}
 8000252:	b088      	sub	sp, #32
 8000254:	af00      	add	r7, sp, #0

  GPIO_InitTypeDef GPIO_InitStruct = {0};
 8000256:	f107 0310 	add.w	r3, r7, #16
 800025a:	2200      	movs	r2, #0
 800025c:	601a      	str	r2, [r3, #0]
 800025e:	605a      	str	r2, [r3, #4]
 8000260:	609a      	str	r2, [r3, #8]
 8000262:	60da      	str	r2, [r3, #12]

  /* GPIO Ports Clock Enable */
  __HAL_RCC_GPIOD_CLK_ENABLE();
 8000264:	4b47      	ldr	r3, [pc, #284]	@ (8000384 <MX_GPIO_Init+0x134>)
 8000266:	699b      	ldr	r3, [r3, #24]
 8000268:	4a46      	ldr	r2, [pc, #280]	@ (8000384 <MX_GPIO_Init+0x134>)
 800026a:	f043 0320 	orr.w	r3, r3, #32
 800026e:	6193      	str	r3, [r2, #24]
 8000270:	4b44      	ldr	r3, [pc, #272]	@ (8000384 <MX_GPIO_Init+0x134>)
 8000272:	699b      	ldr	r3, [r3, #24]
 8000274:	f003 0320 	and.w	r3, r3, #32
 8000278:	60fb      	str	r3, [r7, #12]
 800027a:	68fb      	ldr	r3, [r7, #12]
  __HAL_RCC_GPIOA_CLK_ENABLE();
 800027c:	4b41      	ldr	r3, [pc, #260]	@ (8000384 <MX_GPIO_Init+0x134>)
 800027e:	699b      	ldr	r3, [r3, #24]
 8000280:	4a40      	ldr	r2, [pc, #256]	@ (8000384 <MX_GPIO_Init+0x134>)
 8000282:	f043 0304 	orr.w	r3, r3, #4
 8000286:	6193      	str	r3, [r2, #24]
 8000288:	4b3e      	ldr	r3, [pc, #248]	@ (8000384 <MX_GPIO_Init+0x134>)
 800028a:	699b      	ldr	r3, [r3, #24]
 800028c:	f003 0304 	and.w	r3, r3, #4
 8000290:	60bb      	str	r3, [r7, #8]
 8000292:	68bb      	ldr	r3, [r7, #8]
  __HAL_RCC_GPIOB_CLK_ENABLE();
 8000294:	4b3b      	ldr	r3, [pc, #236]	@ (8000384 <MX_GPIO_Init+0x134>)
 8000296:	699b      	ldr	r3, [r3, #24]
 8000298:	4a3a      	ldr	r2, [pc, #232]	@ (8000384 <MX_GPIO_Init+0x134>)
 800029a:	f043 0308 	orr.w	r3, r3, #8
 800029e:	6193      	str	r3, [r2, #24]
 80002a0:	4b38      	ldr	r3, [pc, #224]	@ (8000384 <MX_GPIO_Init+0x134>)
 80002a2:	699b      	ldr	r3, [r3, #24]
 80002a4:	f003 0308 	and.w	r3, r3, #8
 80002a8:	607b      	str	r3, [r7, #4]
 80002aa:	687b      	ldr	r3, [r7, #4]

  /*Configure GPIO pin Output Level */
  HAL_GPIO_WritePin(GPIOA, RST_Pin|DC_Pin|SPI_CS_Pin, GPIO_PIN_RESET);
 80002ac:	2200      	movs	r2, #0
 80002ae:	210e      	movs	r1, #14
 80002b0:	4835      	ldr	r0, [pc, #212]	@ (8000388 <MX_GPIO_Init+0x138>)
 80002b2:	f002 ff2c 	bl	800310e <HAL_GPIO_WritePin>

  /*Configure GPIO pin Output Level */
  HAL_GPIO_WritePin(GPIOB, BUZZER_Pin|PWR_Pin, GPIO_PIN_RESET);
 80002b6:	2200      	movs	r2, #0
 80002b8:	2103      	movs	r1, #3
 80002ba:	4834      	ldr	r0, [pc, #208]	@ (800038c <MX_GPIO_Init+0x13c>)
 80002bc:	f002 ff27 	bl	800310e <HAL_GPIO_WritePin>

  /*Configure GPIO pins : BUSY_Pin PA6 */
  GPIO_InitStruct.Pin = BUSY_Pin|GPIO_PIN_6;
 80002c0:	2341      	movs	r3, #65	@ 0x41
 80002c2:	613b      	str	r3, [r7, #16]
  GPIO_InitStruct.Mode = GPIO_MODE_INPUT;
 80002c4:	2300      	movs	r3, #0
 80002c6:	617b      	str	r3, [r7, #20]
  GPIO_InitStruct.Pull = GPIO_NOPULL;
 80002c8:	2300      	movs	r3, #0
 80002ca:	61bb      	str	r3, [r7, #24]
  HAL_GPIO_Init(GPIOA, &GPIO_InitStruct);
 80002cc:	f107 0310 	add.w	r3, r7, #16
 80002d0:	4619      	mov	r1, r3
 80002d2:	482d      	ldr	r0, [pc, #180]	@ (8000388 <MX_GPIO_Init+0x138>)
 80002d4:	f002 fd80 	bl	8002dd8 <HAL_GPIO_Init>

  /*Configure GPIO pins : RST_Pin DC_Pin SPI_CS_Pin */
  GPIO_InitStruct.Pin = RST_Pin|DC_Pin|SPI_CS_Pin;
 80002d8:	230e      	movs	r3, #14
 80002da:	613b      	str	r3, [r7, #16]
  GPIO_InitStruct.Mode = GPIO_MODE_OUTPUT_PP;
 80002dc:	2301      	movs	r3, #1
 80002de:	617b      	str	r3, [r7, #20]
  GPIO_InitStruct.Pull = GPIO_NOPULL;
 80002e0:	2300      	movs	r3, #0
 80002e2:	61bb      	str	r3, [r7, #24]
  GPIO_InitStruct.Speed = GPIO_SPEED_FREQ_LOW;
 80002e4:	2302      	movs	r3, #2
 80002e6:	61fb      	str	r3, [r7, #28]
  HAL_GPIO_Init(GPIOA, &GPIO_InitStruct);
 80002e8:	f107 0310 	add.w	r3, r7, #16
 80002ec:	4619      	mov	r1, r3
 80002ee:	4826      	ldr	r0, [pc, #152]	@ (8000388 <MX_GPIO_Init+0x138>)
 80002f0:	f002 fd72 	bl	8002dd8 <HAL_GPIO_Init>

  /*Configure GPIO pins : BUZZER_Pin PWR_Pin */
  GPIO_InitStruct.Pin = BUZZER_Pin|PWR_Pin;
 80002f4:	2303      	movs	r3, #3
 80002f6:	613b      	str	r3, [r7, #16]
  GPIO_InitStruct.Mode = GPIO_MODE_OUTPUT_PP;
 80002f8:	2301      	movs	r3, #1
 80002fa:	617b      	str	r3, [r7, #20]
  GPIO_InitStruct.Pull = GPIO_NOPULL;
 80002fc:	2300      	movs	r3, #0
 80002fe:	61bb      	str	r3, [r7, #24]
  GPIO_InitStruct.Speed = GPIO_SPEED_FREQ_LOW;
 8000300:	2302      	movs	r3, #2
 8000302:	61fb      	str	r3, [r7, #28]
  HAL_GPIO_Init(GPIOB, &GPIO_InitStruct);
 8000304:	f107 0310 	add.w	r3, r7, #16
 8000308:	4619      	mov	r1, r3
 800030a:	4820      	ldr	r0, [pc, #128]	@ (800038c <MX_GPIO_Init+0x13c>)
 800030c:	f002 fd64 	bl	8002dd8 <HAL_GPIO_Init>

  /*Configure GPIO pins : BUTTON0_IN12_Pin BUTTON1_IN13_Pin BUTTON2_IN14_Pin BUTTON3_IN15_Pin */
  GPIO_InitStruct.Pin = BUTTON0_IN12_Pin|BUTTON1_IN13_Pin|BUTTON2_IN14_Pin|BUTTON3_IN15_Pin;
 8000310:	f44f 4370 	mov.w	r3, #61440	@ 0xf000
 8000314:	613b      	str	r3, [r7, #16]
  GPIO_InitStruct.Mode = GPIO_MODE_IT_RISING;
 8000316:	4b1e      	ldr	r3, [pc, #120]	@ (8000390 <MX_GPIO_Init+0x140>)
 8000318:	617b      	str	r3, [r7, #20]
  GPIO_InitStruct.Pull = GPIO_PULLDOWN;
 800031a:	2302      	movs	r3, #2
 800031c:	61bb      	str	r3, [r7, #24]
  HAL_GPIO_Init(GPIOB, &GPIO_InitStruct);
 800031e:	f107 0310 	add.w	r3, r7, #16
 8000322:	4619      	mov	r1, r3
 8000324:	4819      	ldr	r0, [pc, #100]	@ (800038c <MX_GPIO_Init+0x13c>)
 8000326:	f002 fd57 	bl	8002dd8 <HAL_GPIO_Init>

  /*Configure GPIO pin : BUTTON4_IN8_Pin */
  GPIO_InitStruct.Pin = BUTTON4_IN8_Pin;
 800032a:	f44f 7380 	mov.w	r3, #256	@ 0x100
 800032e:	613b      	str	r3, [r7, #16]
  GPIO_InitStruct.Mode = GPIO_MODE_IT_RISING;
 8000330:	4b17      	ldr	r3, [pc, #92]	@ (8000390 <MX_GPIO_Init+0x140>)
 8000332:	617b      	str	r3, [r7, #20]
  GPIO_InitStruct.Pull = GPIO_PULLDOWN;
 8000334:	2302      	movs	r3, #2
 8000336:	61bb      	str	r3, [r7, #24]
  HAL_GPIO_Init(BUTTON4_IN8_GPIO_Port, &GPIO_InitStruct);
 8000338:	f107 0310 	add.w	r3, r7, #16
 800033c:	4619      	mov	r1, r3
 800033e:	4812      	ldr	r0, [pc, #72]	@ (8000388 <MX_GPIO_Init+0x138>)
 8000340:	f002 fd4a 	bl	8002dd8 <HAL_GPIO_Init>

  /*Configure GPIO pin : RTC_IN5_Pin */
  GPIO_InitStruct.Pin = RTC_IN5_Pin;
 8000344:	2320      	movs	r3, #32
 8000346:	613b      	str	r3, [r7, #16]
  GPIO_InitStruct.Mode = GPIO_MODE_IT_FALLING;
 8000348:	4b12      	ldr	r3, [pc, #72]	@ (8000394 <MX_GPIO_Init+0x144>)
 800034a:	617b      	str	r3, [r7, #20]
  GPIO_InitStruct.Pull = GPIO_PULLUP;
 800034c:	2301      	movs	r3, #1
 800034e:	61bb      	str	r3, [r7, #24]
  HAL_GPIO_Init(RTC_IN5_GPIO_Port, &GPIO_InitStruct);
 8000350:	f107 0310 	add.w	r3, r7, #16
 8000354:	4619      	mov	r1, r3
 8000356:	480d      	ldr	r0, [pc, #52]	@ (800038c <MX_GPIO_Init+0x13c>)
 8000358:	f002 fd3e 	bl	8002dd8 <HAL_GPIO_Init>

  /* EXTI interrupt init*/
  HAL_NVIC_SetPriority(EXTI9_5_IRQn, 0, 0);
 800035c:	2200      	movs	r2, #0
 800035e:	2100      	movs	r1, #0
 8000360:	2017      	movs	r0, #23
 8000362:	f002 fc50 	bl	8002c06 <HAL_NVIC_SetPriority>
  HAL_NVIC_EnableIRQ(EXTI9_5_IRQn);
 8000366:	2017      	movs	r0, #23
 8000368:	f002 fc69 	bl	8002c3e <HAL_NVIC_EnableIRQ>

  HAL_NVIC_SetPriority(EXTI15_10_IRQn, 0, 0);
 800036c:	2200      	movs	r2, #0
 800036e:	2100      	movs	r1, #0
 8000370:	2028      	movs	r0, #40	@ 0x28
 8000372:	f002 fc48 	bl	8002c06 <HAL_NVIC_SetPriority>
  HAL_NVIC_EnableIRQ(EXTI15_10_IRQn);
 8000376:	2028      	movs	r0, #40	@ 0x28
 8000378:	f002 fc61 	bl	8002c3e <HAL_NVIC_EnableIRQ>

}
 800037c:	bf00      	nop
 800037e:	3720      	adds	r7, #32
 8000380:	46bd      	mov	sp, r7
 8000382:	bd80      	pop	{r7, pc}
 8000384:	40021000 	.word	0x40021000
 8000388:	40010800 	.word	0x40010800
 800038c:	40010c00 	.word	0x40010c00
 8000390:	10110000 	.word	0x10110000
 8000394:	10210000 	.word	0x10210000

08000398 <MX_I2C1_Init>:

I2C_HandleTypeDef hi2c1;

/* I2C1 init function */
void MX_I2C1_Init(void)
{
 8000398:	b580      	push	{r7, lr}
 800039a:	af00      	add	r7, sp, #0
  /* USER CODE END I2C1_Init 0 */

  /* USER CODE BEGIN I2C1_Init 1 */

  /* USER CODE END I2C1_Init 1 */
  hi2c1.Instance = I2C1;
 800039c:	4b12      	ldr	r3, [pc, #72]	@ (80003e8 <MX_I2C1_Init+0x50>)
 800039e:	4a13      	ldr	r2, [pc, #76]	@ (80003ec <MX_I2C1_Init+0x54>)
 80003a0:	601a      	str	r2, [r3, #0]
  hi2c1.Init.ClockSpeed = 400000;
 80003a2:	4b11      	ldr	r3, [pc, #68]	@ (80003e8 <MX_I2C1_Init+0x50>)
 80003a4:	4a12      	ldr	r2, [pc, #72]	@ (80003f0 <MX_I2C1_Init+0x58>)
 80003a6:	605a      	str	r2, [r3, #4]
  hi2c1.Init.DutyCycle = I2C_DUTYCYCLE_2;
 80003a8:	4b0f      	ldr	r3, [pc, #60]	@ (80003e8 <MX_I2C1_Init+0x50>)
 80003aa:	2200      	movs	r2, #0
 80003ac:	609a      	str	r2, [r3, #8]
  hi2c1.Init.OwnAddress1 = 0;
 80003ae:	4b0e      	ldr	r3, [pc, #56]	@ (80003e8 <MX_I2C1_Init+0x50>)
 80003b0:	2200      	movs	r2, #0
 80003b2:	60da      	str	r2, [r3, #12]
  hi2c1.Init.AddressingMode = I2C_ADDRESSINGMODE_7BIT;
 80003b4:	4b0c      	ldr	r3, [pc, #48]	@ (80003e8 <MX_I2C1_Init+0x50>)
 80003b6:	f44f 4280 	mov.w	r2, #16384	@ 0x4000
 80003ba:	611a      	str	r2, [r3, #16]
  hi2c1.Init.DualAddressMode = I2C_DUALADDRESS_DISABLE;
 80003bc:	4b0a      	ldr	r3, [pc, #40]	@ (80003e8 <MX_I2C1_Init+0x50>)
 80003be:	2200      	movs	r2, #0
 80003c0:	615a      	str	r2, [r3, #20]
  hi2c1.Init.OwnAddress2 = 0;
 80003c2:	4b09      	ldr	r3, [pc, #36]	@ (80003e8 <MX_I2C1_Init+0x50>)
 80003c4:	2200      	movs	r2, #0
 80003c6:	619a      	str	r2, [r3, #24]
  hi2c1.Init.GeneralCallMode = I2C_GENERALCALL_DISABLE;
 80003c8:	4b07      	ldr	r3, [pc, #28]	@ (80003e8 <MX_I2C1_Init+0x50>)
 80003ca:	2200      	movs	r2, #0
 80003cc:	61da      	str	r2, [r3, #28]
  hi2c1.Init.NoStretchMode = I2C_NOSTRETCH_DISABLE;
 80003ce:	4b06      	ldr	r3, [pc, #24]	@ (80003e8 <MX_I2C1_Init+0x50>)
 80003d0:	2200      	movs	r2, #0
 80003d2:	621a      	str	r2, [r3, #32]
  if (HAL_I2C_Init(&hi2c1) != HAL_OK)
 80003d4:	4804      	ldr	r0, [pc, #16]	@ (80003e8 <MX_I2C1_Init+0x50>)
 80003d6:	f002 fecb 	bl	8003170 <HAL_I2C_Init>
 80003da:	4603      	mov	r3, r0
 80003dc:	2b00      	cmp	r3, #0
 80003de:	d001      	beq.n	80003e4 <MX_I2C1_Init+0x4c>
  {
    Error_Handler();
 80003e0:	f001 fd00 	bl	8001de4 <Error_Handler>
  }
  /* USER CODE BEGIN I2C1_Init 2 */

  /* USER CODE END I2C1_Init 2 */

}
 80003e4:	bf00      	nop
 80003e6:	bd80      	pop	{r7, pc}
 80003e8:	200000a8 	.word	0x200000a8
 80003ec:	40005400 	.word	0x40005400
 80003f0:	00061a80 	.word	0x00061a80

080003f4 <HAL_I2C_MspInit>:

void HAL_I2C_MspInit(I2C_HandleTypeDef* i2cHandle)
{
 80003f4:	b580      	push	{r7, lr}
 80003f6:	b088      	sub	sp, #32
 80003f8:	af00      	add	r7, sp, #0
 80003fa:	6078      	str	r0, [r7, #4]

  GPIO_InitTypeDef GPIO_InitStruct = {0};
 80003fc:	f107 0310 	add.w	r3, r7, #16
 8000400:	2200      	movs	r2, #0
 8000402:	601a      	str	r2, [r3, #0]
 8000404:	605a      	str	r2, [r3, #4]
 8000406:	609a      	str	r2, [r3, #8]
 8000408:	60da      	str	r2, [r3, #12]
  if(i2cHandle->Instance==I2C1)
 800040a:	687b      	ldr	r3, [r7, #4]
 800040c:	681b      	ldr	r3, [r3, #0]
 800040e:	4a15      	ldr	r2, [pc, #84]	@ (8000464 <HAL_I2C_MspInit+0x70>)
 8000410:	4293      	cmp	r3, r2
 8000412:	d123      	bne.n	800045c <HAL_I2C_MspInit+0x68>
  {
  /* USER CODE BEGIN I2C1_MspInit 0 */

  /* USER CODE END I2C1_MspInit 0 */

    __HAL_RCC_GPIOB_CLK_ENABLE();
 8000414:	4b14      	ldr	r3, [pc, #80]	@ (8000468 <HAL_I2C_MspInit+0x74>)
 8000416:	699b      	ldr	r3, [r3, #24]
 8000418:	4a13      	ldr	r2, [pc, #76]	@ (8000468 <HAL_I2C_MspInit+0x74>)
 800041a:	f043 0308 	orr.w	r3, r3, #8
 800041e:	6193      	str	r3, [r2, #24]
 8000420:	4b11      	ldr	r3, [pc, #68]	@ (8000468 <HAL_I2C_MspInit+0x74>)
 8000422:	699b      	ldr	r3, [r3, #24]
 8000424:	f003 0308 	and.w	r3, r3, #8
 8000428:	60fb      	str	r3, [r7, #12]
 800042a:	68fb      	ldr	r3, [r7, #12]
    /**I2C1 GPIO Configuration
    PB6     ------> I2C1_SCL
    PB7     ------> I2C1_SDA
    */
    GPIO_InitStruct.Pin = GPIO_PIN_6|GPIO_PIN_7;
 800042c:	23c0      	movs	r3, #192	@ 0xc0
 800042e:	613b      	str	r3, [r7, #16]
    GPIO_InitStruct.Mode = GPIO_MODE_AF_OD;
 8000430:	2312      	movs	r3, #18
 8000432:	617b      	str	r3, [r7, #20]
    GPIO_InitStruct.Speed = GPIO_SPEED_FREQ_HIGH;
 8000434:	2303      	movs	r3, #3
 8000436:	61fb      	str	r3, [r7, #28]
    HAL_GPIO_Init(GPIOB, &GPIO_InitStruct);
 8000438:	f107 0310 	add.w	r3, r7, #16
 800043c:	4619      	mov	r1, r3
 800043e:	480b      	ldr	r0, [pc, #44]	@ (800046c <HAL_I2C_MspInit+0x78>)
 8000440:	f002 fcca 	bl	8002dd8 <HAL_GPIO_Init>

    /* I2C1 clock enable */
    __HAL_RCC_I2C1_CLK_ENABLE();
 8000444:	4b08      	ldr	r3, [pc, #32]	@ (8000468 <HAL_I2C_MspInit+0x74>)
 8000446:	69db      	ldr	r3, [r3, #28]
 8000448:	4a07      	ldr	r2, [pc, #28]	@ (8000468 <HAL_I2C_MspInit+0x74>)
 800044a:	f443 1300 	orr.w	r3, r3, #2097152	@ 0x200000
 800044e:	61d3      	str	r3, [r2, #28]
 8000450:	4b05      	ldr	r3, [pc, #20]	@ (8000468 <HAL_I2C_MspInit+0x74>)
 8000452:	69db      	ldr	r3, [r3, #28]
 8000454:	f403 1300 	and.w	r3, r3, #2097152	@ 0x200000
 8000458:	60bb      	str	r3, [r7, #8]
 800045a:	68bb      	ldr	r3, [r7, #8]
  /* USER CODE BEGIN I2C1_MspInit 1 */

  /* USER CODE END I2C1_MspInit 1 */
  }
}
 800045c:	bf00      	nop
 800045e:	3720      	adds	r7, #32
 8000460:	46bd      	mov	sp, r7
 8000462:	bd80      	pop	{r7, pc}
 8000464:	40005400 	.word	0x40005400
 8000468:	40021000 	.word	0x40021000
 800046c:	40010c00 	.word	0x40010c00

08000470 <main>:
/**
  * @brief  The application entry point.
  * @retval int
  */
int main(void)
{
 8000470:	b580      	push	{r7, lr}
 8000472:	b084      	sub	sp, #16
 8000474:	af02      	add	r7, sp, #8
  /* USER CODE END 1 */

  /* MCU Configuration--------------------------------------------------------*/

  /* Reset of all peripherals, Initializes the Flash interface and the Systick. */
  HAL_Init();
 8000476:	f001 fe6b 	bl	8002150 <HAL_Init>
  /* USER CODE BEGIN Init */

  /* USER CODE END Init */

  /* Configure the system clock */
  SystemClock_Config();
 800047a:	f000 f8bb 	bl	80005f4 <SystemClock_Config>
  /* USER CODE BEGIN SysInit */

  /* USER CODE END SysInit */

  /* Initialize all configured peripherals */
  MX_GPIO_Init();
 800047e:	f7ff fee7 	bl	8000250 <MX_GPIO_Init>
  MX_I2C1_Init();
 8000482:	f7ff ff89 	bl	8000398 <MX_I2C1_Init>
  MX_ADC1_Init();
 8000486:	f7ff fe61 	bl	800014c <MX_ADC1_Init>
  MX_USART1_UART_Init();
 800048a:	f001 fdbd 	bl	8002008 <MX_USART1_UART_Init>
  MX_SPI1_Init();
 800048e:	f001 fcaf 	bl	8001df0 <MX_SPI1_Init>
  /* USER CODE BEGIN 2 */

  // Initially reset the buzzer
  HAL_GPIO_WritePin(BUZZER_GPIO_Port, BUZZER_Pin, BUZZER_INACTIVE); 
 8000492:	2201      	movs	r2, #1
 8000494:	2101      	movs	r1, #1
 8000496:	4847      	ldr	r0, [pc, #284]	@ (80005b4 <main+0x144>)
 8000498:	f002 fe39 	bl	800310e <HAL_GPIO_WritePin>
  //    5, // Month: 1-12
  //   25  // Year: 0-99 (0 = 2000, 1 = 2001, ..., 99 = 2099)
  // );

  // Initialize RTC module (Run only once after reset the RTC).
  Time_Ctrl 
 800049c:	2300      	movs	r3, #0
 800049e:	9301      	str	r3, [sp, #4]
 80004a0:	2300      	movs	r3, #0
 80004a2:	9300      	str	r3, [sp, #0]
 80004a4:	2300      	movs	r3, #0
 80004a6:	2200      	movs	r2, #0
 80004a8:	2100      	movs	r1, #0
 80004aa:	2000      	movs	r0, #0
 80004ac:	f000 f9e2 	bl	8000874 <Time_Ctrl>
     0, // Day of the week: 1-7 (1 = Sunday, 2 = Monday, ..., 7 = Saturday), or Date of the month: 1-31
     0  // Select: 1 = day of week, 0 = date of month
  );   

  // Initially retrieve the time values from the RTC module
  Time_Get(&time_get_data);
 80004b0:	4841      	ldr	r0, [pc, #260]	@ (80005b8 <main+0x148>)
 80004b2:	f000 f98b 	bl	80007cc <Time_Get>
  //   false, // true = ON, false = OFF 
  //    1     // Slot number of the alarm in the EEPROM module (0-9)
  // );  

  // Initially retrieve the alarm slot pointer data from the EEPROM module
  Alarm_Slot_Pointer_Get();
 80004b6:	f000 fbbf 	bl	8000c38 <Alarm_Slot_Pointer_Get>

  // Initially retrieve the alarm values from the EEPROM module and send to system memory
  for (int i = 0; i < alarm_slot_ptr; i++)
 80004ba:	2300      	movs	r3, #0
 80004bc:	607b      	str	r3, [r7, #4]
 80004be:	e00e      	b.n	80004de <main+0x6e>
  {
    Alarm_Get(i, &alarm_get_data[i]);
 80004c0:	687b      	ldr	r3, [r7, #4]
 80004c2:	b2d8      	uxtb	r0, r3
 80004c4:	687a      	ldr	r2, [r7, #4]
 80004c6:	4613      	mov	r3, r2
 80004c8:	005b      	lsls	r3, r3, #1
 80004ca:	4413      	add	r3, r2
 80004cc:	005b      	lsls	r3, r3, #1
 80004ce:	4a3b      	ldr	r2, [pc, #236]	@ (80005bc <main+0x14c>)
 80004d0:	4413      	add	r3, r2
 80004d2:	4619      	mov	r1, r3
 80004d4:	f000 fb18 	bl	8000b08 <Alarm_Get>
  for (int i = 0; i < alarm_slot_ptr; i++)
 80004d8:	687b      	ldr	r3, [r7, #4]
 80004da:	3301      	adds	r3, #1
 80004dc:	607b      	str	r3, [r7, #4]
 80004de:	4b38      	ldr	r3, [pc, #224]	@ (80005c0 <main+0x150>)
 80004e0:	781b      	ldrb	r3, [r3, #0]
 80004e2:	461a      	mov	r2, r3
 80004e4:	687b      	ldr	r3, [r7, #4]
 80004e6:	4293      	cmp	r3, r2
 80004e8:	dbea      	blt.n	80004c0 <main+0x50>
  }

  // Initialize the UART module to receive data
  //    HAL_UART_Receive_IT(UART_HandleTypeDef *huart, uint8_t *pData, uint16_t Size);
  HAL_UART_Receive_IT(&huart1, uart_rx_data, 2);
 80004ea:	2202      	movs	r2, #2
 80004ec:	4935      	ldr	r1, [pc, #212]	@ (80005c4 <main+0x154>)
 80004ee:	4836      	ldr	r0, [pc, #216]	@ (80005c8 <main+0x158>)
 80004f0:	f004 fc3e 	bl	8004d70 <HAL_UART_Receive_IT>

  // Initialize the ADC module to monitor battery voltage
  //    HAL_ADC_Start_IT(ADC_HandleTypeDef *hadc);
  HAL_ADC_Start_IT(&hadc1);
 80004f4:	4835      	ldr	r0, [pc, #212]	@ (80005cc <main+0x15c>)
 80004f6:	f001 ff89 	bl	800240c <HAL_ADC_Start_IT>
    /* USER CODE END WHILE */

    /* USER CODE BEGIN 3 */

    // Call the button debounce handler for each button
    Button_Handle();
 80004fa:	f000 fd5f 	bl	8000fbc <Button_Handle>

    // Check if the RTC Interrupt Flag is set (RTC Interrupt Flag) on PB4 (Activated every second)
    if (rtc_int_flag)
 80004fe:	4b34      	ldr	r3, [pc, #208]	@ (80005d0 <main+0x160>)
 8000500:	781b      	ldrb	r3, [r3, #0]
 8000502:	b2db      	uxtb	r3, r3
 8000504:	2b00      	cmp	r3, #0
 8000506:	d03a      	beq.n	800057e <main+0x10e>
    {
      // Retrieve the time values from the RTC module
      Time_Get(&time_get_data);
 8000508:	482b      	ldr	r0, [pc, #172]	@ (80005b8 <main+0x148>)
 800050a:	f000 f95f 	bl	80007cc <Time_Get>
      
      // Check the alarms
      //   void Alarm_Check (volatile TIME_DATA *time_get_data)
      Alarm_Check(&time_get_data);
 800050e:	482a      	ldr	r0, [pc, #168]	@ (80005b8 <main+0x148>)
 8000510:	f000 fbac 	bl	8000c6c <Alarm_Check>

      // Debugging: Toggle the debug RTC interrupt flag for debugging purposes
      debug_rtc_int = !debug_rtc_int;
 8000514:	4b2f      	ldr	r3, [pc, #188]	@ (80005d4 <main+0x164>)
 8000516:	781b      	ldrb	r3, [r3, #0]
 8000518:	b2db      	uxtb	r3, r3
 800051a:	2b00      	cmp	r3, #0
 800051c:	bf14      	ite	ne
 800051e:	2301      	movne	r3, #1
 8000520:	2300      	moveq	r3, #0
 8000522:	b2db      	uxtb	r3, r3
 8000524:	f083 0301 	eor.w	r3, r3, #1
 8000528:	b2db      	uxtb	r3, r3
 800052a:	f003 0301 	and.w	r3, r3, #1
 800052e:	b2da      	uxtb	r2, r3
 8000530:	4b28      	ldr	r3, [pc, #160]	@ (80005d4 <main+0x164>)
 8000532:	701a      	strb	r2, [r3, #0]

      // default_mode(&a, &time_get.hour, &time_get.minute, &time_get.second);

      // Check if the ADC interrupt flag is set (ADC Valid Flag)
      if (adc_valid_flag)
 8000534:	4b28      	ldr	r3, [pc, #160]	@ (80005d8 <main+0x168>)
 8000536:	781b      	ldrb	r3, [r3, #0]
 8000538:	b2db      	uxtb	r3, r3
 800053a:	2b00      	cmp	r3, #0
 800053c:	d01c      	beq.n	8000578 <main+0x108>
      {
        // Re-enable the ADC interrupt to continue monitoring ADC values
        HAL_ADC_Start_IT(&hadc1);
 800053e:	4823      	ldr	r0, [pc, #140]	@ (80005cc <main+0x15c>)
 8000540:	f001 ff64 	bl	800240c <HAL_ADC_Start_IT>

        // Delay for 1ms to allow the ADC to stabilize
        HAL_Delay(1);
 8000544:	2001      	movs	r0, #1
 8000546:	f001 fe65 	bl	8002214 <HAL_Delay>

        // Track the battery percentage value at 5 different levels: 0, 25, 50, 75, 100
        if ((battery_percentage % 25) == 0)
 800054a:	4b24      	ldr	r3, [pc, #144]	@ (80005dc <main+0x16c>)
 800054c:	881a      	ldrh	r2, [r3, #0]
 800054e:	4b24      	ldr	r3, [pc, #144]	@ (80005e0 <main+0x170>)
 8000550:	fba3 1302 	umull	r1, r3, r3, r2
 8000554:	08d9      	lsrs	r1, r3, #3
 8000556:	460b      	mov	r3, r1
 8000558:	009b      	lsls	r3, r3, #2
 800055a:	440b      	add	r3, r1
 800055c:	0099      	lsls	r1, r3, #2
 800055e:	440b      	add	r3, r1
 8000560:	1ad3      	subs	r3, r2, r3
 8000562:	b29b      	uxth	r3, r3
 8000564:	2b00      	cmp	r3, #0
 8000566:	d104      	bne.n	8000572 <main+0x102>
        {
          // Update the battery percentage value to be displayed
          system_state.battery_display = battery_percentage;
 8000568:	4b1c      	ldr	r3, [pc, #112]	@ (80005dc <main+0x16c>)
 800056a:	881b      	ldrh	r3, [r3, #0]
 800056c:	b2da      	uxtb	r2, r3
 800056e:	4b1d      	ldr	r3, [pc, #116]	@ (80005e4 <main+0x174>)
 8000570:	719a      	strb	r2, [r3, #6]
        }

        // Reset the ADC interrupt flag
        adc_valid_flag = false;
 8000572:	4b19      	ldr	r3, [pc, #100]	@ (80005d8 <main+0x168>)
 8000574:	2200      	movs	r2, #0
 8000576:	701a      	strb	r2, [r3, #0]
      }

      // Reset the RTC Interrupt Flag
      rtc_int_flag = false;
 8000578:	4b15      	ldr	r3, [pc, #84]	@ (80005d0 <main+0x160>)
 800057a:	2200      	movs	r2, #0
 800057c:	701a      	strb	r2, [r3, #0]
    }

    // Check if the alarm is active
    if (alarm_active_flag)
 800057e:	4b1a      	ldr	r3, [pc, #104]	@ (80005e8 <main+0x178>)
 8000580:	781b      	ldrb	r3, [r3, #0]
 8000582:	2b00      	cmp	r3, #0
 8000584:	d004      	beq.n	8000590 <main+0x120>
    {
      // Call the alarm ringing function
      Alarm_Ring();
 8000586:	f000 fbfb 	bl	8000d80 <Alarm_Ring>

      // Call the system alarm active mode handler to track if any button is pressed
      System_Alarm_Active_Mode_Handle(&button0);
 800058a:	4818      	ldr	r0, [pc, #96]	@ (80005ec <main+0x17c>)
 800058c:	f001 faf6 	bl	8001b7c <System_Alarm_Active_Mode_Handle>
    }

    // Check if the UART interrupt flag is set (UART Receive Flag)
    if (uart_rx_flag)
 8000590:	4b17      	ldr	r3, [pc, #92]	@ (80005f0 <main+0x180>)
 8000592:	781b      	ldrb	r3, [r3, #0]
 8000594:	b2db      	uxtb	r3, r3
 8000596:	2b00      	cmp	r3, #0
 8000598:	d0af      	beq.n	80004fa <main+0x8a>
	  {
      // Re-enable the UART interrupt to continue receiving data
      HAL_UART_Receive_IT(&huart1,uart_rx_data,2); 
 800059a:	2202      	movs	r2, #2
 800059c:	4909      	ldr	r1, [pc, #36]	@ (80005c4 <main+0x154>)
 800059e:	480a      	ldr	r0, [pc, #40]	@ (80005c8 <main+0x158>)
 80005a0:	f004 fbe6 	bl	8004d70 <HAL_UART_Receive_IT>
      
      // Delay for 1ms to allow the UART to stabilize
      HAL_Delay(1);
 80005a4:	2001      	movs	r0, #1
 80005a6:	f001 fe35 	bl	8002214 <HAL_Delay>

      // Reset the UART interrupt flag
      uart_rx_flag = false;
 80005aa:	4b11      	ldr	r3, [pc, #68]	@ (80005f0 <main+0x180>)
 80005ac:	2200      	movs	r2, #0
 80005ae:	701a      	strb	r2, [r3, #0]
    Button_Handle();
 80005b0:	e7a3      	b.n	80004fa <main+0x8a>
 80005b2:	bf00      	nop
 80005b4:	40010c00 	.word	0x40010c00
 80005b8:	20000114 	.word	0x20000114
 80005bc:	2000011c 	.word	0x2000011c
 80005c0:	20000158 	.word	0x20000158
 80005c4:	2000016c 	.word	0x2000016c
 80005c8:	200001d0 	.word	0x200001d0
 80005cc:	20000078 	.word	0x20000078
 80005d0:	20000159 	.word	0x20000159
 80005d4:	2000015a 	.word	0x2000015a
 80005d8:	20000165 	.word	0x20000165
 80005dc:	20000168 	.word	0x20000168
 80005e0:	51eb851f 	.word	0x51eb851f
 80005e4:	200000fc 	.word	0x200000fc
 80005e8:	2000015c 	.word	0x2000015c
 80005ec:	20000000 	.word	0x20000000
 80005f0:	2000016a 	.word	0x2000016a

080005f4 <SystemClock_Config>:
/**
  * @brief System Clock Configuration
  * @retval None
  */
void SystemClock_Config(void)
{
 80005f4:	b580      	push	{r7, lr}
 80005f6:	b094      	sub	sp, #80	@ 0x50
 80005f8:	af00      	add	r7, sp, #0
  RCC_OscInitTypeDef RCC_OscInitStruct = {0};
 80005fa:	f107 0328 	add.w	r3, r7, #40	@ 0x28
 80005fe:	2228      	movs	r2, #40	@ 0x28
 8000600:	2100      	movs	r1, #0
 8000602:	4618      	mov	r0, r3
 8000604:	f005 f8ec 	bl	80057e0 <memset>
  RCC_ClkInitTypeDef RCC_ClkInitStruct = {0};
 8000608:	f107 0314 	add.w	r3, r7, #20
 800060c:	2200      	movs	r2, #0
 800060e:	601a      	str	r2, [r3, #0]
 8000610:	605a      	str	r2, [r3, #4]
 8000612:	609a      	str	r2, [r3, #8]
 8000614:	60da      	str	r2, [r3, #12]
 8000616:	611a      	str	r2, [r3, #16]
  RCC_PeriphCLKInitTypeDef PeriphClkInit = {0};
 8000618:	1d3b      	adds	r3, r7, #4
 800061a:	2200      	movs	r2, #0
 800061c:	601a      	str	r2, [r3, #0]
 800061e:	605a      	str	r2, [r3, #4]
 8000620:	609a      	str	r2, [r3, #8]
 8000622:	60da      	str	r2, [r3, #12]

  /** Initializes the RCC Oscillators according to the specified parameters
  * in the RCC_OscInitTypeDef structure.
  */
  RCC_OscInitStruct.OscillatorType = RCC_OSCILLATORTYPE_HSE;
 8000624:	2301      	movs	r3, #1
 8000626:	62bb      	str	r3, [r7, #40]	@ 0x28
  RCC_OscInitStruct.HSEState = RCC_HSE_ON;
 8000628:	f44f 3380 	mov.w	r3, #65536	@ 0x10000
 800062c:	62fb      	str	r3, [r7, #44]	@ 0x2c
  RCC_OscInitStruct.HSEPredivValue = RCC_HSE_PREDIV_DIV1;
 800062e:	2300      	movs	r3, #0
 8000630:	633b      	str	r3, [r7, #48]	@ 0x30
  RCC_OscInitStruct.HSIState = RCC_HSI_ON;
 8000632:	2301      	movs	r3, #1
 8000634:	63bb      	str	r3, [r7, #56]	@ 0x38
  RCC_OscInitStruct.PLL.PLLState = RCC_PLL_ON;
 8000636:	2302      	movs	r3, #2
 8000638:	647b      	str	r3, [r7, #68]	@ 0x44
  RCC_OscInitStruct.PLL.PLLSource = RCC_PLLSOURCE_HSE;
 800063a:	f44f 3380 	mov.w	r3, #65536	@ 0x10000
 800063e:	64bb      	str	r3, [r7, #72]	@ 0x48
  RCC_OscInitStruct.PLL.PLLMUL = RCC_PLL_MUL9;
 8000640:	f44f 13e0 	mov.w	r3, #1835008	@ 0x1c0000
 8000644:	64fb      	str	r3, [r7, #76]	@ 0x4c
  if (HAL_RCC_OscConfig(&RCC_OscInitStruct) != HAL_OK)
 8000646:	f107 0328 	add.w	r3, r7, #40	@ 0x28
 800064a:	4618      	mov	r0, r3
 800064c:	f003 fdf6 	bl	800423c <HAL_RCC_OscConfig>
 8000650:	4603      	mov	r3, r0
 8000652:	2b00      	cmp	r3, #0
 8000654:	d001      	beq.n	800065a <SystemClock_Config+0x66>
  {
    Error_Handler();
 8000656:	f001 fbc5 	bl	8001de4 <Error_Handler>
  }

  /** Initializes the CPU, AHB and APB buses clocks
  */
  RCC_ClkInitStruct.ClockType = RCC_CLOCKTYPE_HCLK|RCC_CLOCKTYPE_SYSCLK
 800065a:	230f      	movs	r3, #15
 800065c:	617b      	str	r3, [r7, #20]
                              |RCC_CLOCKTYPE_PCLK1|RCC_CLOCKTYPE_PCLK2;
  RCC_ClkInitStruct.SYSCLKSource = RCC_SYSCLKSOURCE_PLLCLK;
 800065e:	2302      	movs	r3, #2
 8000660:	61bb      	str	r3, [r7, #24]
  RCC_ClkInitStruct.AHBCLKDivider = RCC_SYSCLK_DIV1;
 8000662:	2300      	movs	r3, #0
 8000664:	61fb      	str	r3, [r7, #28]
  RCC_ClkInitStruct.APB1CLKDivider = RCC_HCLK_DIV2;
 8000666:	f44f 6380 	mov.w	r3, #1024	@ 0x400
 800066a:	623b      	str	r3, [r7, #32]
  RCC_ClkInitStruct.APB2CLKDivider = RCC_HCLK_DIV1;
 800066c:	2300      	movs	r3, #0
 800066e:	627b      	str	r3, [r7, #36]	@ 0x24

  if (HAL_RCC_ClockConfig(&RCC_ClkInitStruct, FLASH_LATENCY_2) != HAL_OK)
 8000670:	f107 0314 	add.w	r3, r7, #20
 8000674:	2102      	movs	r1, #2
 8000676:	4618      	mov	r0, r3
 8000678:	f004 f862 	bl	8004740 <HAL_RCC_ClockConfig>
 800067c:	4603      	mov	r3, r0
 800067e:	2b00      	cmp	r3, #0
 8000680:	d001      	beq.n	8000686 <SystemClock_Config+0x92>
  {
    Error_Handler();
 8000682:	f001 fbaf 	bl	8001de4 <Error_Handler>
  }
  PeriphClkInit.PeriphClockSelection = RCC_PERIPHCLK_ADC;
 8000686:	2302      	movs	r3, #2
 8000688:	607b      	str	r3, [r7, #4]
  PeriphClkInit.AdcClockSelection = RCC_ADCPCLK2_DIV6;
 800068a:	f44f 4300 	mov.w	r3, #32768	@ 0x8000
 800068e:	60fb      	str	r3, [r7, #12]
  if (HAL_RCCEx_PeriphCLKConfig(&PeriphClkInit) != HAL_OK)
 8000690:	1d3b      	adds	r3, r7, #4
 8000692:	4618      	mov	r0, r3
 8000694:	f004 f9e2 	bl	8004a5c <HAL_RCCEx_PeriphCLKConfig>
 8000698:	4603      	mov	r3, r0
 800069a:	2b00      	cmp	r3, #0
 800069c:	d001      	beq.n	80006a2 <SystemClock_Config+0xae>
  {
    Error_Handler();
 800069e:	f001 fba1 	bl	8001de4 <Error_Handler>
  }
}
 80006a2:	bf00      	nop
 80006a4:	3750      	adds	r7, #80	@ 0x50
 80006a6:	46bd      	mov	sp, r7
 80006a8:	bd80      	pop	{r7, pc}
	...

080006ac <Dec_To_BCD>:
  * @brief  Convert a normal decimal number to Binary Coded Decimal (BCD).
  * @param  val: Decimal number to be converted.
  * @retval uint8_t: BCD representation of the input decimal number.
  */
uint8_t Dec_To_BCD(int val)
{
 80006ac:	b480      	push	{r7}
 80006ae:	b083      	sub	sp, #12
 80006b0:	af00      	add	r7, sp, #0
 80006b2:	6078      	str	r0, [r7, #4]
  return (uint8_t)( (val/10*16) + (val%10) );
 80006b4:	687b      	ldr	r3, [r7, #4]
 80006b6:	4a0e      	ldr	r2, [pc, #56]	@ (80006f0 <Dec_To_BCD+0x44>)
 80006b8:	fb82 1203 	smull	r1, r2, r2, r3
 80006bc:	1092      	asrs	r2, r2, #2
 80006be:	17db      	asrs	r3, r3, #31
 80006c0:	1ad3      	subs	r3, r2, r3
 80006c2:	b2db      	uxtb	r3, r3
 80006c4:	011b      	lsls	r3, r3, #4
 80006c6:	b2d8      	uxtb	r0, r3
 80006c8:	687a      	ldr	r2, [r7, #4]
 80006ca:	4b09      	ldr	r3, [pc, #36]	@ (80006f0 <Dec_To_BCD+0x44>)
 80006cc:	fb83 1302 	smull	r1, r3, r3, r2
 80006d0:	1099      	asrs	r1, r3, #2
 80006d2:	17d3      	asrs	r3, r2, #31
 80006d4:	1ac9      	subs	r1, r1, r3
 80006d6:	460b      	mov	r3, r1
 80006d8:	009b      	lsls	r3, r3, #2
 80006da:	440b      	add	r3, r1
 80006dc:	005b      	lsls	r3, r3, #1
 80006de:	1ad1      	subs	r1, r2, r3
 80006e0:	b2cb      	uxtb	r3, r1
 80006e2:	4403      	add	r3, r0
 80006e4:	b2db      	uxtb	r3, r3
}
 80006e6:	4618      	mov	r0, r3
 80006e8:	370c      	adds	r7, #12
 80006ea:	46bd      	mov	sp, r7
 80006ec:	bc80      	pop	{r7}
 80006ee:	4770      	bx	lr
 80006f0:	66666667 	.word	0x66666667

080006f4 <BCD_To_Dec>:
  * @brief  Convert a Binary Coded Decimal (BCD) value to a normal decimal number.
  * @param  val: BCD value to be converted.
  * @retval int: Decimal representation of the input BCD value.
  */
int BCD_To_Dec(uint8_t val)
{
 80006f4:	b480      	push	{r7}
 80006f6:	b083      	sub	sp, #12
 80006f8:	af00      	add	r7, sp, #0
 80006fa:	4603      	mov	r3, r0
 80006fc:	71fb      	strb	r3, [r7, #7]
  return (int)( (val/16*10) + (val%16) );
 80006fe:	79fb      	ldrb	r3, [r7, #7]
 8000700:	091b      	lsrs	r3, r3, #4
 8000702:	b2db      	uxtb	r3, r3
 8000704:	461a      	mov	r2, r3
 8000706:	4613      	mov	r3, r2
 8000708:	009b      	lsls	r3, r3, #2
 800070a:	4413      	add	r3, r2
 800070c:	005b      	lsls	r3, r3, #1
 800070e:	461a      	mov	r2, r3
 8000710:	79fb      	ldrb	r3, [r7, #7]
 8000712:	f003 030f 	and.w	r3, r3, #15
 8000716:	4413      	add	r3, r2
}
 8000718:	4618      	mov	r0, r3
 800071a:	370c      	adds	r7, #12
 800071c:	46bd      	mov	sp, r7
 800071e:	bc80      	pop	{r7}
 8000720:	4770      	bx	lr
	...

08000724 <Time_Set>:
  * @param  month: Month: 1-12
  * @param  year: Year: 0-99 (0 = 2000, 1 = 2001, ..., 99 = 2099)
  * @retval None
*/
void Time_Set (uint8_t sec, uint8_t min, uint8_t hour, uint8_t dow, uint8_t dom, uint8_t month, uint8_t year)
{
 8000724:	b590      	push	{r4, r7, lr}
 8000726:	b089      	sub	sp, #36	@ 0x24
 8000728:	af04      	add	r7, sp, #16
 800072a:	4604      	mov	r4, r0
 800072c:	4608      	mov	r0, r1
 800072e:	4611      	mov	r1, r2
 8000730:	461a      	mov	r2, r3
 8000732:	4623      	mov	r3, r4
 8000734:	71fb      	strb	r3, [r7, #7]
 8000736:	4603      	mov	r3, r0
 8000738:	71bb      	strb	r3, [r7, #6]
 800073a:	460b      	mov	r3, r1
 800073c:	717b      	strb	r3, [r7, #5]
 800073e:	4613      	mov	r3, r2
 8000740:	713b      	strb	r3, [r7, #4]
	// A blank array (7 slots) to contain the time values
  uint8_t setTime[7];

  // Store the time values (converted in to BCD code) into the blank array
	setTime[0] = Dec_To_BCD(sec);
 8000742:	79fb      	ldrb	r3, [r7, #7]
 8000744:	4618      	mov	r0, r3
 8000746:	f7ff ffb1 	bl	80006ac <Dec_To_BCD>
 800074a:	4603      	mov	r3, r0
 800074c:	723b      	strb	r3, [r7, #8]
	setTime[1] = Dec_To_BCD(min);
 800074e:	79bb      	ldrb	r3, [r7, #6]
 8000750:	4618      	mov	r0, r3
 8000752:	f7ff ffab 	bl	80006ac <Dec_To_BCD>
 8000756:	4603      	mov	r3, r0
 8000758:	727b      	strb	r3, [r7, #9]
	setTime[2] = Dec_To_BCD(hour);
 800075a:	797b      	ldrb	r3, [r7, #5]
 800075c:	4618      	mov	r0, r3
 800075e:	f7ff ffa5 	bl	80006ac <Dec_To_BCD>
 8000762:	4603      	mov	r3, r0
 8000764:	72bb      	strb	r3, [r7, #10]
	setTime[3] = Dec_To_BCD(dow);
 8000766:	793b      	ldrb	r3, [r7, #4]
 8000768:	4618      	mov	r0, r3
 800076a:	f7ff ff9f 	bl	80006ac <Dec_To_BCD>
 800076e:	4603      	mov	r3, r0
 8000770:	72fb      	strb	r3, [r7, #11]
	setTime[4] = Dec_To_BCD(dom);
 8000772:	f897 3020 	ldrb.w	r3, [r7, #32]
 8000776:	4618      	mov	r0, r3
 8000778:	f7ff ff98 	bl	80006ac <Dec_To_BCD>
 800077c:	4603      	mov	r3, r0
 800077e:	733b      	strb	r3, [r7, #12]
	setTime[5] = Dec_To_BCD(month);
 8000780:	f897 3024 	ldrb.w	r3, [r7, #36]	@ 0x24
 8000784:	4618      	mov	r0, r3
 8000786:	f7ff ff91 	bl	80006ac <Dec_To_BCD>
 800078a:	4603      	mov	r3, r0
 800078c:	737b      	strb	r3, [r7, #13]
	setTime[6] = Dec_To_BCD(year);
 800078e:	f897 3028 	ldrb.w	r3, [r7, #40]	@ 0x28
 8000792:	4618      	mov	r0, r3
 8000794:	f7ff ff8a 	bl	80006ac <Dec_To_BCD>
 8000798:	4603      	mov	r3, r0
 800079a:	73bb      	strb	r3, [r7, #14]

  // Send the array containing the time values to the RTC module through I2C interface at address 00h - 06h (size of value: 7 bytes)
  HAL_I2C_Mem_Write(DS3231_I2C, DS3231_ADDR, 0x00, 1, setTime, sizeof(setTime), 1000);
 800079c:	f44f 737a 	mov.w	r3, #1000	@ 0x3e8
 80007a0:	9302      	str	r3, [sp, #8]
 80007a2:	2307      	movs	r3, #7
 80007a4:	9301      	str	r3, [sp, #4]
 80007a6:	f107 0308 	add.w	r3, r7, #8
 80007aa:	9300      	str	r3, [sp, #0]
 80007ac:	2301      	movs	r3, #1
 80007ae:	2200      	movs	r2, #0
 80007b0:	21d0      	movs	r1, #208	@ 0xd0
 80007b2:	4805      	ldr	r0, [pc, #20]	@ (80007c8 <Time_Set+0xa4>)
 80007b4:	f002 fe20 	bl	80033f8 <HAL_I2C_Mem_Write>

  // Delay for 1ms to allow the RTC module to process the data
  HAL_Delay(1);
 80007b8:	2001      	movs	r0, #1
 80007ba:	f001 fd2b 	bl	8002214 <HAL_Delay>
}
 80007be:	bf00      	nop
 80007c0:	3714      	adds	r7, #20
 80007c2:	46bd      	mov	sp, r7
 80007c4:	bd90      	pop	{r4, r7, pc}
 80007c6:	bf00      	nop
 80007c8:	200000a8 	.word	0x200000a8

080007cc <Time_Get>:
  * @brief  Get time from the RTC module through I2C interface.
  * @param  time_get_data: Pointer to a TIME structure to store the retrieved time values.
  * @retval None
*/
void Time_Get (volatile TIME_DATA *time_get_data)
{
 80007cc:	b580      	push	{r7, lr}
 80007ce:	b088      	sub	sp, #32
 80007d0:	af04      	add	r7, sp, #16
 80007d2:	6078      	str	r0, [r7, #4]
	// A blank array (7 slots) to contain the time values received from the RTC module
  uint8_t getTime[7];

  // Receive the time values from the RTC module through I2C interface, then store them into the blank array (size of value: 7 bytes)
  HAL_I2C_Mem_Read(DS3231_I2C, DS3231_ADDR, 0x00, 1, getTime, sizeof(getTime), 1000);
 80007d4:	f44f 737a 	mov.w	r3, #1000	@ 0x3e8
 80007d8:	9302      	str	r3, [sp, #8]
 80007da:	2307      	movs	r3, #7
 80007dc:	9301      	str	r3, [sp, #4]
 80007de:	f107 0308 	add.w	r3, r7, #8
 80007e2:	9300      	str	r3, [sp, #0]
 80007e4:	2301      	movs	r3, #1
 80007e6:	2200      	movs	r2, #0
 80007e8:	21d0      	movs	r1, #208	@ 0xd0
 80007ea:	4821      	ldr	r0, [pc, #132]	@ (8000870 <Time_Get+0xa4>)
 80007ec:	f002 fefe 	bl	80035ec <HAL_I2C_Mem_Read>

  // Delay for 1ms to allow the RTC module to process the data
  HAL_Delay(1);
 80007f0:	2001      	movs	r0, #1
 80007f2:	f001 fd0f 	bl	8002214 <HAL_Delay>

  // Store the time values (converted from BCD code to decimal) into the time variable
	time_get_data->second       = BCD_To_Dec(getTime[0]);
 80007f6:	7a3b      	ldrb	r3, [r7, #8]
 80007f8:	4618      	mov	r0, r3
 80007fa:	f7ff ff7b 	bl	80006f4 <BCD_To_Dec>
 80007fe:	4603      	mov	r3, r0
 8000800:	b2da      	uxtb	r2, r3
 8000802:	687b      	ldr	r3, [r7, #4]
 8000804:	701a      	strb	r2, [r3, #0]
	time_get_data->minute       = BCD_To_Dec(getTime[1]);
 8000806:	7a7b      	ldrb	r3, [r7, #9]
 8000808:	4618      	mov	r0, r3
 800080a:	f7ff ff73 	bl	80006f4 <BCD_To_Dec>
 800080e:	4603      	mov	r3, r0
 8000810:	b2da      	uxtb	r2, r3
 8000812:	687b      	ldr	r3, [r7, #4]
 8000814:	705a      	strb	r2, [r3, #1]
	time_get_data->hour         = BCD_To_Dec(getTime[2]);
 8000816:	7abb      	ldrb	r3, [r7, #10]
 8000818:	4618      	mov	r0, r3
 800081a:	f7ff ff6b 	bl	80006f4 <BCD_To_Dec>
 800081e:	4603      	mov	r3, r0
 8000820:	b2da      	uxtb	r2, r3
 8000822:	687b      	ldr	r3, [r7, #4]
 8000824:	709a      	strb	r2, [r3, #2]
	time_get_data->dayofweek    = BCD_To_Dec(getTime[3]);
 8000826:	7afb      	ldrb	r3, [r7, #11]
 8000828:	4618      	mov	r0, r3
 800082a:	f7ff ff63 	bl	80006f4 <BCD_To_Dec>
 800082e:	4603      	mov	r3, r0
 8000830:	b2da      	uxtb	r2, r3
 8000832:	687b      	ldr	r3, [r7, #4]
 8000834:	70da      	strb	r2, [r3, #3]
	time_get_data->dateofmonth  = BCD_To_Dec(getTime[4]);
 8000836:	7b3b      	ldrb	r3, [r7, #12]
 8000838:	4618      	mov	r0, r3
 800083a:	f7ff ff5b 	bl	80006f4 <BCD_To_Dec>
 800083e:	4603      	mov	r3, r0
 8000840:	b2da      	uxtb	r2, r3
 8000842:	687b      	ldr	r3, [r7, #4]
 8000844:	711a      	strb	r2, [r3, #4]
	time_get_data->month        = BCD_To_Dec(getTime[5]);
 8000846:	7b7b      	ldrb	r3, [r7, #13]
 8000848:	4618      	mov	r0, r3
 800084a:	f7ff ff53 	bl	80006f4 <BCD_To_Dec>
 800084e:	4603      	mov	r3, r0
 8000850:	b2da      	uxtb	r2, r3
 8000852:	687b      	ldr	r3, [r7, #4]
 8000854:	715a      	strb	r2, [r3, #5]
	time_get_data->year         = BCD_To_Dec(getTime[6]);
 8000856:	7bbb      	ldrb	r3, [r7, #14]
 8000858:	4618      	mov	r0, r3
 800085a:	f7ff ff4b 	bl	80006f4 <BCD_To_Dec>
 800085e:	4603      	mov	r3, r0
 8000860:	b2da      	uxtb	r2, r3
 8000862:	687b      	ldr	r3, [r7, #4]
 8000864:	719a      	strb	r2, [r3, #6]
}
 8000866:	bf00      	nop
 8000868:	3710      	adds	r7, #16
 800086a:	46bd      	mov	sp, r7
 800086c:	bd80      	pop	{r7, pc}
 800086e:	bf00      	nop
 8000870:	200000a8 	.word	0x200000a8

08000874 <Time_Ctrl>:
  * @param  dow_dom: Day of the week or date of the month (1-7 or 1-31).
  * @param  dy_dt: Day of week or date of month (1 = day of week, 0 = date of month, 0 = not used).
  * @retval None
*/
void Time_Ctrl (uint8_t mode, uint8_t sec, uint8_t min, uint8_t hour, uint8_t dow_dom, bool dy_dt)
{
 8000874:	b590      	push	{r4, r7, lr}
 8000876:	b08b      	sub	sp, #44	@ 0x2c
 8000878:	af04      	add	r7, sp, #16
 800087a:	4604      	mov	r4, r0
 800087c:	4608      	mov	r0, r1
 800087e:	4611      	mov	r1, r2
 8000880:	461a      	mov	r2, r3
 8000882:	4623      	mov	r3, r4
 8000884:	71fb      	strb	r3, [r7, #7]
 8000886:	4603      	mov	r3, r0
 8000888:	71bb      	strb	r3, [r7, #6]
 800088a:	460b      	mov	r3, r1
 800088c:	717b      	strb	r3, [r7, #5]
 800088e:	4613      	mov	r3, r2
 8000890:	713b      	strb	r3, [r7, #4]
  // A blank array (4 slots) to contain the RTC alarm settings
  uint8_t ctrlTime[4];

  // A mask bit to set the Control register in the RTC module
  //    Address 0Eh: A1IE = 1
  uint8_t ctrlAlarm = 1; 
 8000892:	2301      	movs	r3, #1
 8000894:	73fb      	strb	r3, [r7, #15]

  // A mask bit to set the alarm modes (Bit 7) in the RTC module
  uint8_t maskBit = 128;
 8000896:	2380      	movs	r3, #128	@ 0x80
 8000898:	75fb      	strb	r3, [r7, #23]

  // A mask bit for selection of [day of week] or [date of month] (Bit 6) in the RTC module
  //    If the input [day of week]/ [date of month] selection is 1, the mask bit will be 64.
  uint8_t dyDt = (dy_dt == true) ? 64 : 0;
 800089a:	f897 302c 	ldrb.w	r3, [r7, #44]	@ 0x2c
 800089e:	2b00      	cmp	r3, #0
 80008a0:	d001      	beq.n	80008a6 <Time_Ctrl+0x32>
 80008a2:	2340      	movs	r3, #64	@ 0x40
 80008a4:	e000      	b.n	80008a8 <Time_Ctrl+0x34>
 80008a6:	2300      	movs	r3, #0
 80008a8:	75bb      	strb	r3, [r7, #22]

  // Store the RTC alarm time settings (converted into BCD code) into the blank array
  ctrlTime[0] = Dec_To_BCD(sec);
 80008aa:	79bb      	ldrb	r3, [r7, #6]
 80008ac:	4618      	mov	r0, r3
 80008ae:	f7ff fefd 	bl	80006ac <Dec_To_BCD>
 80008b2:	4603      	mov	r3, r0
 80008b4:	743b      	strb	r3, [r7, #16]
	ctrlTime[1] = Dec_To_BCD(min);
 80008b6:	797b      	ldrb	r3, [r7, #5]
 80008b8:	4618      	mov	r0, r3
 80008ba:	f7ff fef7 	bl	80006ac <Dec_To_BCD>
 80008be:	4603      	mov	r3, r0
 80008c0:	747b      	strb	r3, [r7, #17]
	ctrlTime[2] = Dec_To_BCD(hour);
 80008c2:	793b      	ldrb	r3, [r7, #4]
 80008c4:	4618      	mov	r0, r3
 80008c6:	f7ff fef1 	bl	80006ac <Dec_To_BCD>
 80008ca:	4603      	mov	r3, r0
 80008cc:	74bb      	strb	r3, [r7, #18]
	ctrlTime[3] = Dec_To_BCD(dow_dom);
 80008ce:	f897 3028 	ldrb.w	r3, [r7, #40]	@ 0x28
 80008d2:	4618      	mov	r0, r3
 80008d4:	f7ff feea 	bl	80006ac <Dec_To_BCD>
 80008d8:	4603      	mov	r3, r0
 80008da:	74fb      	strb	r3, [r7, #19]
  //      1    : Alarm when seconds match
  //      2    : Alarm when minutes and seconds match
  //      3    : Alarm when hours, minutes, and seconds match
  //      4    : Alarm when date, hours, minutes, and seconds match
  //      5    : Alarm when day, hours, minutes, and seconds match
  switch (mode)
 80008dc:	79fb      	ldrb	r3, [r7, #7]
 80008de:	2b05      	cmp	r3, #5
 80008e0:	d865      	bhi.n	80009ae <Time_Ctrl+0x13a>
 80008e2:	a201      	add	r2, pc, #4	@ (adr r2, 80008e8 <Time_Ctrl+0x74>)
 80008e4:	f852 f023 	ldr.w	pc, [r2, r3, lsl #2]
 80008e8:	08000901 	.word	0x08000901
 80008ec:	0800092b 	.word	0x0800092b
 80008f0:	0800094f 	.word	0x0800094f
 80008f4:	0800096d 	.word	0x0800096d
 80008f8:	08000985 	.word	0x08000985
 80008fc:	08000997 	.word	0x08000997
  {
    case 0:
      // Alarm mask bit: A1M4:A1M1 = b1111, DY/DT = X
      ctrlTime[0] += maskBit;
 8000900:	7c3a      	ldrb	r2, [r7, #16]
 8000902:	7dfb      	ldrb	r3, [r7, #23]
 8000904:	4413      	add	r3, r2
 8000906:	b2db      	uxtb	r3, r3
 8000908:	743b      	strb	r3, [r7, #16]
      ctrlTime[1] += maskBit;
 800090a:	7c7a      	ldrb	r2, [r7, #17]
 800090c:	7dfb      	ldrb	r3, [r7, #23]
 800090e:	4413      	add	r3, r2
 8000910:	b2db      	uxtb	r3, r3
 8000912:	747b      	strb	r3, [r7, #17]
      ctrlTime[2] += maskBit;
 8000914:	7cba      	ldrb	r2, [r7, #18]
 8000916:	7dfb      	ldrb	r3, [r7, #23]
 8000918:	4413      	add	r3, r2
 800091a:	b2db      	uxtb	r3, r3
 800091c:	74bb      	strb	r3, [r7, #18]
      ctrlTime[3] += maskBit;
 800091e:	7cfa      	ldrb	r2, [r7, #19]
 8000920:	7dfb      	ldrb	r3, [r7, #23]
 8000922:	4413      	add	r3, r2
 8000924:	b2db      	uxtb	r3, r3
 8000926:	74fb      	strb	r3, [r7, #19]
      break;
 8000928:	e04a      	b.n	80009c0 <Time_Ctrl+0x14c>
    case 1:
      // Alarm mask bit: A1M4:A1M1 = b1110, DY/DT = X
      ctrlTime[0] += 0;
 800092a:	7c3b      	ldrb	r3, [r7, #16]
 800092c:	743b      	strb	r3, [r7, #16]
      ctrlTime[1] += maskBit;
 800092e:	7c7a      	ldrb	r2, [r7, #17]
 8000930:	7dfb      	ldrb	r3, [r7, #23]
 8000932:	4413      	add	r3, r2
 8000934:	b2db      	uxtb	r3, r3
 8000936:	747b      	strb	r3, [r7, #17]
      ctrlTime[2] += maskBit;
 8000938:	7cba      	ldrb	r2, [r7, #18]
 800093a:	7dfb      	ldrb	r3, [r7, #23]
 800093c:	4413      	add	r3, r2
 800093e:	b2db      	uxtb	r3, r3
 8000940:	74bb      	strb	r3, [r7, #18]
      ctrlTime[3] += maskBit;
 8000942:	7cfa      	ldrb	r2, [r7, #19]
 8000944:	7dfb      	ldrb	r3, [r7, #23]
 8000946:	4413      	add	r3, r2
 8000948:	b2db      	uxtb	r3, r3
 800094a:	74fb      	strb	r3, [r7, #19]
      break;
 800094c:	e038      	b.n	80009c0 <Time_Ctrl+0x14c>
    case 2:
      // Alarm mask bit: A1M4:A1M1 = b1100, DY/DT = X
      ctrlTime[0] += 0;
 800094e:	7c3b      	ldrb	r3, [r7, #16]
 8000950:	743b      	strb	r3, [r7, #16]
      ctrlTime[1] += 0;
 8000952:	7c7b      	ldrb	r3, [r7, #17]
 8000954:	747b      	strb	r3, [r7, #17]
      ctrlTime[2] += maskBit;
 8000956:	7cba      	ldrb	r2, [r7, #18]
 8000958:	7dfb      	ldrb	r3, [r7, #23]
 800095a:	4413      	add	r3, r2
 800095c:	b2db      	uxtb	r3, r3
 800095e:	74bb      	strb	r3, [r7, #18]
      ctrlTime[3] += maskBit;
 8000960:	7cfa      	ldrb	r2, [r7, #19]
 8000962:	7dfb      	ldrb	r3, [r7, #23]
 8000964:	4413      	add	r3, r2
 8000966:	b2db      	uxtb	r3, r3
 8000968:	74fb      	strb	r3, [r7, #19]
      break;
 800096a:	e029      	b.n	80009c0 <Time_Ctrl+0x14c>
    case 3:
      // Alarm mask bit: A1M4:A1M1 = b1000, DY/DT = X
      ctrlTime[0] += 0;
 800096c:	7c3b      	ldrb	r3, [r7, #16]
 800096e:	743b      	strb	r3, [r7, #16]
      ctrlTime[1] += 0;
 8000970:	7c7b      	ldrb	r3, [r7, #17]
 8000972:	747b      	strb	r3, [r7, #17]
      ctrlTime[2] += 0;
 8000974:	7cbb      	ldrb	r3, [r7, #18]
 8000976:	74bb      	strb	r3, [r7, #18]
      ctrlTime[3] += maskBit;
 8000978:	7cfa      	ldrb	r2, [r7, #19]
 800097a:	7dfb      	ldrb	r3, [r7, #23]
 800097c:	4413      	add	r3, r2
 800097e:	b2db      	uxtb	r3, r3
 8000980:	74fb      	strb	r3, [r7, #19]
      break;
 8000982:	e01d      	b.n	80009c0 <Time_Ctrl+0x14c>
    case 4:
      // Alarm mask bit: A1M4:A1M1 = b0000, DY/DT = 0
      ctrlTime[0] += 0;
 8000984:	7c3b      	ldrb	r3, [r7, #16]
 8000986:	743b      	strb	r3, [r7, #16]
      ctrlTime[1] += 0;
 8000988:	7c7b      	ldrb	r3, [r7, #17]
 800098a:	747b      	strb	r3, [r7, #17]
      ctrlTime[2] += 0;
 800098c:	7cbb      	ldrb	r3, [r7, #18]
 800098e:	74bb      	strb	r3, [r7, #18]
      ctrlTime[3] += 0;
 8000990:	7cfb      	ldrb	r3, [r7, #19]
 8000992:	74fb      	strb	r3, [r7, #19]
      break;
 8000994:	e014      	b.n	80009c0 <Time_Ctrl+0x14c>
    case 5:
      // Alarm mask bit: A1M4:A1M1 = b0000, DY/DT = 1
      ctrlTime[0] += 0;
 8000996:	7c3b      	ldrb	r3, [r7, #16]
 8000998:	743b      	strb	r3, [r7, #16]
      ctrlTime[1] += 0;
 800099a:	7c7b      	ldrb	r3, [r7, #17]
 800099c:	747b      	strb	r3, [r7, #17]
      ctrlTime[2] += 0;
 800099e:	7cbb      	ldrb	r3, [r7, #18]
 80009a0:	74bb      	strb	r3, [r7, #18]
      ctrlTime[3] += dyDt;
 80009a2:	7cfa      	ldrb	r2, [r7, #19]
 80009a4:	7dbb      	ldrb	r3, [r7, #22]
 80009a6:	4413      	add	r3, r2
 80009a8:	b2db      	uxtb	r3, r3
 80009aa:	74fb      	strb	r3, [r7, #19]
      break;
 80009ac:	e008      	b.n	80009c0 <Time_Ctrl+0x14c>
    default:
      // Alarm mask bit: A1M4:A1M1 = b0000, DY/DT = 0
      ctrlTime[0] += 0;
 80009ae:	7c3b      	ldrb	r3, [r7, #16]
 80009b0:	743b      	strb	r3, [r7, #16]
      ctrlTime[1] += 0;
 80009b2:	7c7b      	ldrb	r3, [r7, #17]
 80009b4:	747b      	strb	r3, [r7, #17]
      ctrlTime[2] += 0;
 80009b6:	7cbb      	ldrb	r3, [r7, #18]
 80009b8:	74bb      	strb	r3, [r7, #18]
      ctrlTime[3] += 0;
 80009ba:	7cfb      	ldrb	r3, [r7, #19]
 80009bc:	74fb      	strb	r3, [r7, #19]
      break;
 80009be:	bf00      	nop
  }

  // Send the array containing the RTC alarm mode setting to the RTC module through I2C interface at address 07h - 0Ah (size of value: 4 bytes)
  HAL_I2C_Mem_Write(DS3231_I2C, DS3231_ADDR, 0x07, 1, ctrlTime, sizeof(ctrlTime), 1000);
 80009c0:	f44f 737a 	mov.w	r3, #1000	@ 0x3e8
 80009c4:	9302      	str	r3, [sp, #8]
 80009c6:	2304      	movs	r3, #4
 80009c8:	9301      	str	r3, [sp, #4]
 80009ca:	f107 0310 	add.w	r3, r7, #16
 80009ce:	9300      	str	r3, [sp, #0]
 80009d0:	2301      	movs	r3, #1
 80009d2:	2207      	movs	r2, #7
 80009d4:	21d0      	movs	r1, #208	@ 0xd0
 80009d6:	480d      	ldr	r0, [pc, #52]	@ (8000a0c <Time_Ctrl+0x198>)
 80009d8:	f002 fd0e 	bl	80033f8 <HAL_I2C_Mem_Write>

  // Delay for 1ms to allow the RTC module to process the data
  HAL_Delay(1);
 80009dc:	2001      	movs	r0, #1
 80009de:	f001 fc19 	bl	8002214 <HAL_Delay>

  // Send the alarm control mask bits to the RTC module through I2C interface at address 0Eh (size of value: 1 byte)
  HAL_I2C_Mem_Write(DS3231_I2C, DS3231_ADDR, 0x0E, 1, &ctrlAlarm, sizeof(ctrlAlarm), 1000);
 80009e2:	f44f 737a 	mov.w	r3, #1000	@ 0x3e8
 80009e6:	9302      	str	r3, [sp, #8]
 80009e8:	2301      	movs	r3, #1
 80009ea:	9301      	str	r3, [sp, #4]
 80009ec:	f107 030f 	add.w	r3, r7, #15
 80009f0:	9300      	str	r3, [sp, #0]
 80009f2:	2301      	movs	r3, #1
 80009f4:	220e      	movs	r2, #14
 80009f6:	21d0      	movs	r1, #208	@ 0xd0
 80009f8:	4804      	ldr	r0, [pc, #16]	@ (8000a0c <Time_Ctrl+0x198>)
 80009fa:	f002 fcfd 	bl	80033f8 <HAL_I2C_Mem_Write>

  // Delay for 1ms to allow the RTC module to process the data
  HAL_Delay(1);
 80009fe:	2001      	movs	r0, #1
 8000a00:	f001 fc08 	bl	8002214 <HAL_Delay>
}
 8000a04:	bf00      	nop
 8000a06:	371c      	adds	r7, #28
 8000a08:	46bd      	mov	sp, r7
 8000a0a:	bd90      	pop	{r4, r7, pc}
 8000a0c:	200000a8 	.word	0x200000a8

08000a10 <Time_Init>:
  * @param  month: Month: 1-12
  * @param  year: Year: 0-99 (0 = 2000, 1 = 2001, ..., 99 = 2099)
  * @retval None
*/
void Time_Init (uint8_t sec, uint8_t min, uint8_t hour, uint8_t dow, uint8_t dom, uint8_t month, uint8_t year)
{
 8000a10:	b590      	push	{r4, r7, lr}
 8000a12:	b087      	sub	sp, #28
 8000a14:	af04      	add	r7, sp, #16
 8000a16:	4604      	mov	r4, r0
 8000a18:	4608      	mov	r0, r1
 8000a1a:	4611      	mov	r1, r2
 8000a1c:	461a      	mov	r2, r3
 8000a1e:	4623      	mov	r3, r4
 8000a20:	71fb      	strb	r3, [r7, #7]
 8000a22:	4603      	mov	r3, r0
 8000a24:	71bb      	strb	r3, [r7, #6]
 8000a26:	460b      	mov	r3, r1
 8000a28:	717b      	strb	r3, [r7, #5]
 8000a2a:	4613      	mov	r3, r2
 8000a2c:	713b      	strb	r3, [r7, #4]
  // This function is intended for initial setup of the RTC module after a reset.
  // It should not be called repeatedly unless reinitialization is required.
  //    Time_Set (uint8_t sec, uint8_t min, uint8_t hour, uint8_t dow, uint8_t dom, uint8_t month, uint8_t year)
  Time_Set (sec, min, hour, dow, dom, month, year);
 8000a2e:	793c      	ldrb	r4, [r7, #4]
 8000a30:	797a      	ldrb	r2, [r7, #5]
 8000a32:	79b9      	ldrb	r1, [r7, #6]
 8000a34:	79f8      	ldrb	r0, [r7, #7]
 8000a36:	f897 3020 	ldrb.w	r3, [r7, #32]
 8000a3a:	9302      	str	r3, [sp, #8]
 8000a3c:	7f3b      	ldrb	r3, [r7, #28]
 8000a3e:	9301      	str	r3, [sp, #4]
 8000a40:	7e3b      	ldrb	r3, [r7, #24]
 8000a42:	9300      	str	r3, [sp, #0]
 8000a44:	4623      	mov	r3, r4
 8000a46:	f7ff fe6d 	bl	8000724 <Time_Set>
  //        2    : Alarm when minutes and seconds match
  //        3    : Alarm when hours, minutes, and seconds match
  //        4    : Alarm when date, hours, minutes, and seconds match
  //        5    : Alarm when day, hours, minutes, and seconds match
  //      For mode 0, the remaining input are don't-care values
  Time_Ctrl 
 8000a4a:	2300      	movs	r3, #0
 8000a4c:	9301      	str	r3, [sp, #4]
 8000a4e:	2300      	movs	r3, #0
 8000a50:	9300      	str	r3, [sp, #0]
 8000a52:	2300      	movs	r3, #0
 8000a54:	2200      	movs	r2, #0
 8000a56:	2100      	movs	r1, #0
 8000a58:	2000      	movs	r0, #0
 8000a5a:	f7ff ff0b 	bl	8000874 <Time_Ctrl>
     0, // Minutes: 0-59
     0, // Hours: 0-23
     0, // Day of the week: 1-7 (1 = Sunday, 2 = Monday, ..., 7 = Saturday), or Date of the month: 1-31
     0  // Select: 1 = day of week, 0 = date of month
  );   
}
 8000a5e:	bf00      	nop
 8000a60:	370c      	adds	r7, #12
 8000a62:	46bd      	mov	sp, r7
 8000a64:	bd90      	pop	{r4, r7, pc}
	...

08000a68 <Alarm_Set>:
  * @param  on_off: On/ Off state of the alarm (1 = ON, 0 = OFF)
  * @param  slot: Slot number of the alarm in the EEPROM module (0-9)
  * @retval None
*/
void Alarm_Set (uint8_t sec, uint8_t min, uint8_t hour, uint8_t dow_dom, ALARM_DY_DT_MODE dy_dt, bool on_off, uint8_t slot)
{
 8000a68:	b590      	push	{r4, r7, lr}
 8000a6a:	b089      	sub	sp, #36	@ 0x24
 8000a6c:	af04      	add	r7, sp, #16
 8000a6e:	4604      	mov	r4, r0
 8000a70:	4608      	mov	r0, r1
 8000a72:	4611      	mov	r1, r2
 8000a74:	461a      	mov	r2, r3
 8000a76:	4623      	mov	r3, r4
 8000a78:	71fb      	strb	r3, [r7, #7]
 8000a7a:	4603      	mov	r3, r0
 8000a7c:	71bb      	strb	r3, [r7, #6]
 8000a7e:	460b      	mov	r3, r1
 8000a80:	717b      	strb	r3, [r7, #5]
 8000a82:	4613      	mov	r3, r2
 8000a84:	713b      	strb	r3, [r7, #4]
  // Encode the ON/OFF state of the alarm into the alarm package
  // By masking the 7th bit of the second register
  if (on_off)
 8000a86:	f897 3024 	ldrb.w	r3, [r7, #36]	@ 0x24
 8000a8a:	2b00      	cmp	r3, #0
 8000a8c:	d002      	beq.n	8000a94 <Alarm_Set+0x2c>
  {
    sec += (1 << 7);
 8000a8e:	79fb      	ldrb	r3, [r7, #7]
 8000a90:	3b80      	subs	r3, #128	@ 0x80
 8000a92:	71fb      	strb	r3, [r7, #7]
  }

  // Encode the day of week or date of month mode into the alarm package
  // By masking the 7th and 6th bits of the dow_dom variable
  switch (dy_dt)
 8000a94:	f897 3020 	ldrb.w	r3, [r7, #32]
 8000a98:	2b02      	cmp	r3, #2
 8000a9a:	d00d      	beq.n	8000ab8 <Alarm_Set+0x50>
 8000a9c:	2b02      	cmp	r3, #2
 8000a9e:	dc0d      	bgt.n	8000abc <Alarm_Set+0x54>
 8000aa0:	2b00      	cmp	r3, #0
 8000aa2:	d005      	beq.n	8000ab0 <Alarm_Set+0x48>
 8000aa4:	2b01      	cmp	r3, #1
 8000aa6:	d109      	bne.n	8000abc <Alarm_Set+0x54>
  {
    // Date of the month
    case DATE_OF_MONTH_MODE:
      // Encoding: [Bit 7] = 1, [Bit 6] = 0
      dow_dom += (1 << 7);
 8000aa8:	793b      	ldrb	r3, [r7, #4]
 8000aaa:	3b80      	subs	r3, #128	@ 0x80
 8000aac:	713b      	strb	r3, [r7, #4]
      break;
 8000aae:	e006      	b.n	8000abe <Alarm_Set+0x56>

    // Day of the week
    case DAY_OF_WEEK_MODE:
      // Ending: [Bit 7] = 1, [Bit 6] = 1
      dow_dom += ((1 << 7) | (1 << 6));
 8000ab0:	793b      	ldrb	r3, [r7, #4]
 8000ab2:	3b40      	subs	r3, #64	@ 0x40
 8000ab4:	713b      	strb	r3, [r7, #4]
      break;
 8000ab6:	e002      	b.n	8000abe <Alarm_Set+0x56>

    // Not used
    case NOT_USED_MODE:
      // Encoding: [Bit 7] = 0, [Bit 6] = 0
      dow_dom += 0;
      break;
 8000ab8:	bf00      	nop
 8000aba:	e000      	b.n	8000abe <Alarm_Set+0x56>

    default:
      dow_dom += 0;
      break;
 8000abc:	bf00      	nop
  }

  // Store the encoded alarm values into the blank array
  uint8_t setAlarm[4] = {sec, min, hour, dow_dom};
 8000abe:	79fb      	ldrb	r3, [r7, #7]
 8000ac0:	723b      	strb	r3, [r7, #8]
 8000ac2:	79bb      	ldrb	r3, [r7, #6]
 8000ac4:	727b      	strb	r3, [r7, #9]
 8000ac6:	797b      	ldrb	r3, [r7, #5]
 8000ac8:	72bb      	strb	r3, [r7, #10]
 8000aca:	793b      	ldrb	r3, [r7, #4]
 8000acc:	72fb      	strb	r3, [r7, #11]
  
  // Calculate the internal address of the alarm in the EEPROM module (0-8192, or 13 bits)
  // By multiplying the slot number by 4 (size of each alarm: 4 bytes)
  uint16_t address = slot * 4;
 8000ace:	f897 3028 	ldrb.w	r3, [r7, #40]	@ 0x28
 8000ad2:	b29b      	uxth	r3, r3
 8000ad4:	009b      	lsls	r3, r3, #2
 8000ad6:	81fb      	strh	r3, [r7, #14]

  // Send the array containing the alarm values to the EEPROM module through I2C interface
  HAL_I2C_Mem_Write(EEPROM_I2C, EEPROM_ADDR, address, 2, setAlarm, sizeof(setAlarm), 1000);
 8000ad8:	89fa      	ldrh	r2, [r7, #14]
 8000ada:	f44f 737a 	mov.w	r3, #1000	@ 0x3e8
 8000ade:	9302      	str	r3, [sp, #8]
 8000ae0:	2304      	movs	r3, #4
 8000ae2:	9301      	str	r3, [sp, #4]
 8000ae4:	f107 0308 	add.w	r3, r7, #8
 8000ae8:	9300      	str	r3, [sp, #0]
 8000aea:	2302      	movs	r3, #2
 8000aec:	21a0      	movs	r1, #160	@ 0xa0
 8000aee:	4805      	ldr	r0, [pc, #20]	@ (8000b04 <Alarm_Set+0x9c>)
 8000af0:	f002 fc82 	bl	80033f8 <HAL_I2C_Mem_Write>

  // Delay to allow the EEPROM module to complete the Page Write operation
  HAL_Delay(5);
 8000af4:	2005      	movs	r0, #5
 8000af6:	f001 fb8d 	bl	8002214 <HAL_Delay>
}
 8000afa:	bf00      	nop
 8000afc:	3714      	adds	r7, #20
 8000afe:	46bd      	mov	sp, r7
 8000b00:	bd90      	pop	{r4, r7, pc}
 8000b02:	bf00      	nop
 8000b04:	200000a8 	.word	0x200000a8

08000b08 <Alarm_Get>:
  * @param  slot: Slot number of the alarm in the EEPROM module (0-9)
  * @param  alarm_get_data: Pointer to an ALARM_DATA structure to store the retrieved alarm values
  * @retval None
*/
void Alarm_Get (uint8_t slot, volatile ALARM_DATA *alarm_get_data)
{
 8000b08:	b580      	push	{r7, lr}
 8000b0a:	b088      	sub	sp, #32
 8000b0c:	af04      	add	r7, sp, #16
 8000b0e:	4603      	mov	r3, r0
 8000b10:	6039      	str	r1, [r7, #0]
 8000b12:	71fb      	strb	r3, [r7, #7]
  // Address of the alarm in the EEPROM module (0-8192, or 13 bits)
  uint16_t address = slot * 4;
 8000b14:	79fb      	ldrb	r3, [r7, #7]
 8000b16:	b29b      	uxth	r3, r3
 8000b18:	009b      	lsls	r3, r3, #2
 8000b1a:	81fb      	strh	r3, [r7, #14]

  // A blank array (4 slots) to contain the alarm values received from the EEPROM module
  uint8_t getAlarm[4];

  // Receive the alarm values from the EEPROM module through I2C interface, then store them into the blank array (size of value: 4 bytes)
  HAL_I2C_Mem_Read(EEPROM_I2C, EEPROM_ADDR, address, 2, getAlarm, sizeof(getAlarm), 1000);
 8000b1c:	89fa      	ldrh	r2, [r7, #14]
 8000b1e:	f44f 737a 	mov.w	r3, #1000	@ 0x3e8
 8000b22:	9302      	str	r3, [sp, #8]
 8000b24:	2304      	movs	r3, #4
 8000b26:	9301      	str	r3, [sp, #4]
 8000b28:	f107 0308 	add.w	r3, r7, #8
 8000b2c:	9300      	str	r3, [sp, #0]
 8000b2e:	2302      	movs	r3, #2
 8000b30:	21a0      	movs	r1, #160	@ 0xa0
 8000b32:	4822      	ldr	r0, [pc, #136]	@ (8000bbc <Alarm_Get+0xb4>)
 8000b34:	f002 fd5a 	bl	80035ec <HAL_I2C_Mem_Read>

  // Delay to allow the EEPROM module to complete the Sequential Read operation
  HAL_Delay(1);
 8000b38:	2001      	movs	r0, #1
 8000b3a:	f001 fb6b 	bl	8002214 <HAL_Delay>

  // Store the alarm values into the alarm variable
  alarm_get_data->second = 0;
 8000b3e:	683b      	ldr	r3, [r7, #0]
 8000b40:	2200      	movs	r2, #0
 8000b42:	701a      	strb	r2, [r3, #0]
  alarm_get_data->minute = getAlarm[1];
 8000b44:	7a7a      	ldrb	r2, [r7, #9]
 8000b46:	683b      	ldr	r3, [r7, #0]
 8000b48:	705a      	strb	r2, [r3, #1]
  alarm_get_data->hour = getAlarm[2];
 8000b4a:	7aba      	ldrb	r2, [r7, #10]
 8000b4c:	683b      	ldr	r3, [r7, #0]
 8000b4e:	709a      	strb	r2, [r3, #2]
  
  if (getAlarm[3] >= (1 << 7))
 8000b50:	7afb      	ldrb	r3, [r7, #11]
 8000b52:	b25b      	sxtb	r3, r3
 8000b54:	2b00      	cmp	r3, #0
 8000b56:	da18      	bge.n	8000b8a <Alarm_Get+0x82>
  {
    if ((getAlarm[3] & 0x7F) >= (1 << 6))
 8000b58:	7afb      	ldrb	r3, [r7, #11]
 8000b5a:	f003 0340 	and.w	r3, r3, #64	@ 0x40
 8000b5e:	2b00      	cmp	r3, #0
 8000b60:	d009      	beq.n	8000b76 <Alarm_Get+0x6e>
    {
      alarm_get_data->dy_dt = DAY_OF_WEEK_MODE;
 8000b62:	683b      	ldr	r3, [r7, #0]
 8000b64:	2200      	movs	r2, #0
 8000b66:	70da      	strb	r2, [r3, #3]
      alarm_get_data->dow_dom = getAlarm[3] & 0x3F;
 8000b68:	7afb      	ldrb	r3, [r7, #11]
 8000b6a:	f003 033f 	and.w	r3, r3, #63	@ 0x3f
 8000b6e:	b2da      	uxtb	r2, r3
 8000b70:	683b      	ldr	r3, [r7, #0]
 8000b72:	711a      	strb	r2, [r3, #4]
 8000b74:	e012      	b.n	8000b9c <Alarm_Get+0x94>
    }
    else 
    {
      alarm_get_data->dy_dt = DATE_OF_MONTH_MODE;
 8000b76:	683b      	ldr	r3, [r7, #0]
 8000b78:	2201      	movs	r2, #1
 8000b7a:	70da      	strb	r2, [r3, #3]
      alarm_get_data->dow_dom = getAlarm[3] & 0x7F;
 8000b7c:	7afb      	ldrb	r3, [r7, #11]
 8000b7e:	f003 037f 	and.w	r3, r3, #127	@ 0x7f
 8000b82:	b2da      	uxtb	r2, r3
 8000b84:	683b      	ldr	r3, [r7, #0]
 8000b86:	711a      	strb	r2, [r3, #4]
 8000b88:	e008      	b.n	8000b9c <Alarm_Get+0x94>
    }
  }
  else 
  {
    alarm_get_data->dy_dt = NOT_USED_MODE;
 8000b8a:	683b      	ldr	r3, [r7, #0]
 8000b8c:	2202      	movs	r2, #2
 8000b8e:	70da      	strb	r2, [r3, #3]
    alarm_get_data->dow_dom = getAlarm[3] & 0x7F;
 8000b90:	7afb      	ldrb	r3, [r7, #11]
 8000b92:	f003 037f 	and.w	r3, r3, #127	@ 0x7f
 8000b96:	b2da      	uxtb	r2, r3
 8000b98:	683b      	ldr	r3, [r7, #0]
 8000b9a:	711a      	strb	r2, [r3, #4]
  }

  if (getAlarm[0] >= (1 << 7)) alarm_get_data->on_off = true;
 8000b9c:	7a3b      	ldrb	r3, [r7, #8]
 8000b9e:	b25b      	sxtb	r3, r3
 8000ba0:	2b00      	cmp	r3, #0
 8000ba2:	da03      	bge.n	8000bac <Alarm_Get+0xa4>
 8000ba4:	683b      	ldr	r3, [r7, #0]
 8000ba6:	2201      	movs	r2, #1
 8000ba8:	715a      	strb	r2, [r3, #5]
  else alarm_get_data->on_off = false;
}
 8000baa:	e002      	b.n	8000bb2 <Alarm_Get+0xaa>
  else alarm_get_data->on_off = false;
 8000bac:	683b      	ldr	r3, [r7, #0]
 8000bae:	2200      	movs	r2, #0
 8000bb0:	715a      	strb	r2, [r3, #5]
}
 8000bb2:	bf00      	nop
 8000bb4:	3710      	adds	r7, #16
 8000bb6:	46bd      	mov	sp, r7
 8000bb8:	bd80      	pop	{r7, pc}
 8000bba:	bf00      	nop
 8000bbc:	200000a8 	.word	0x200000a8

08000bc0 <Alarm_Clear>:
  * @brief  Clear a single alarm from the EEPROM module.
  * @param  slot: Slot number of the alarm in the EEPROM module (0-9)
  * @retval None
*/
void Alarm_Clear (uint8_t slot)
{
 8000bc0:	b580      	push	{r7, lr}
 8000bc2:	b088      	sub	sp, #32
 8000bc4:	af04      	add	r7, sp, #16
 8000bc6:	4603      	mov	r3, r0
 8000bc8:	71fb      	strb	r3, [r7, #7]
  // Address of the alarm in the EEPROM module (0-8192, or 13 bits)
  uint16_t address = slot * 4;
 8000bca:	79fb      	ldrb	r3, [r7, #7]
 8000bcc:	b29b      	uxth	r3, r3
 8000bce:	009b      	lsls	r3, r3, #2
 8000bd0:	81fb      	strh	r3, [r7, #14]

  // A blank array (4 slots) to contain the alarm values to be cleared
  uint8_t clearAlarm[4] = {0, 0, 0, 0};
 8000bd2:	2300      	movs	r3, #0
 8000bd4:	60bb      	str	r3, [r7, #8]

  // Write the blank array to the EEPROM module through I2C interface
  HAL_I2C_Mem_Write(EEPROM_I2C, EEPROM_ADDR, address, 2, clearAlarm, sizeof(clearAlarm), 1000);
 8000bd6:	89fa      	ldrh	r2, [r7, #14]
 8000bd8:	f44f 737a 	mov.w	r3, #1000	@ 0x3e8
 8000bdc:	9302      	str	r3, [sp, #8]
 8000bde:	2304      	movs	r3, #4
 8000be0:	9301      	str	r3, [sp, #4]
 8000be2:	f107 0308 	add.w	r3, r7, #8
 8000be6:	9300      	str	r3, [sp, #0]
 8000be8:	2302      	movs	r3, #2
 8000bea:	21a0      	movs	r1, #160	@ 0xa0
 8000bec:	4804      	ldr	r0, [pc, #16]	@ (8000c00 <Alarm_Clear+0x40>)
 8000bee:	f002 fc03 	bl	80033f8 <HAL_I2C_Mem_Write>

  // Delay to allow the EEPROM module to complete the Page Write operation
  HAL_Delay(5);
 8000bf2:	2005      	movs	r0, #5
 8000bf4:	f001 fb0e 	bl	8002214 <HAL_Delay>
}
 8000bf8:	bf00      	nop
 8000bfa:	3710      	adds	r7, #16
 8000bfc:	46bd      	mov	sp, r7
 8000bfe:	bd80      	pop	{r7, pc}
 8000c00:	200000a8 	.word	0x200000a8

08000c04 <Alarm_Slot_Pointer_Set>:
/**
 * @brief Save the data of pointer for the alarm slot to EEPROM module.
  * @retval None
 */
void Alarm_Slot_Pointer_Set (void)
{
 8000c04:	b580      	push	{r7, lr}
 8000c06:	b084      	sub	sp, #16
 8000c08:	af04      	add	r7, sp, #16
  // Write the alarm slot pointer value to the EEPROM module through I2C interface
  HAL_I2C_Mem_Write(EEPROM_I2C, EEPROM_ADDR, ALARM_SLOT_PTR_ADDR, 2, &alarm_slot_ptr, sizeof(alarm_slot_ptr), 1000);
 8000c0a:	f44f 737a 	mov.w	r3, #1000	@ 0x3e8
 8000c0e:	9302      	str	r3, [sp, #8]
 8000c10:	2301      	movs	r3, #1
 8000c12:	9301      	str	r3, [sp, #4]
 8000c14:	4b06      	ldr	r3, [pc, #24]	@ (8000c30 <Alarm_Slot_Pointer_Set+0x2c>)
 8000c16:	9300      	str	r3, [sp, #0]
 8000c18:	2302      	movs	r3, #2
 8000c1a:	2228      	movs	r2, #40	@ 0x28
 8000c1c:	21a0      	movs	r1, #160	@ 0xa0
 8000c1e:	4805      	ldr	r0, [pc, #20]	@ (8000c34 <Alarm_Slot_Pointer_Set+0x30>)
 8000c20:	f002 fbea 	bl	80033f8 <HAL_I2C_Mem_Write>

  // Delay to allow the EEPROM module to complete the Page Write operation
  HAL_Delay(5);
 8000c24:	2005      	movs	r0, #5
 8000c26:	f001 faf5 	bl	8002214 <HAL_Delay>
}
 8000c2a:	bf00      	nop
 8000c2c:	46bd      	mov	sp, r7
 8000c2e:	bd80      	pop	{r7, pc}
 8000c30:	20000158 	.word	0x20000158
 8000c34:	200000a8 	.word	0x200000a8

08000c38 <Alarm_Slot_Pointer_Get>:
/**
 * @brief Retrieve the data of pointer for the alarm slot from EEPROM module.
  * @retval None
 */
void Alarm_Slot_Pointer_Get (void)
{
 8000c38:	b580      	push	{r7, lr}
 8000c3a:	b084      	sub	sp, #16
 8000c3c:	af04      	add	r7, sp, #16
  // Read the alarm slot pointer from the EEPROM module through I2C interface
  HAL_I2C_Mem_Read(EEPROM_I2C, EEPROM_ADDR, ALARM_SLOT_PTR_ADDR, 2, &alarm_slot_ptr, sizeof(alarm_slot_ptr), 1000);
 8000c3e:	f44f 737a 	mov.w	r3, #1000	@ 0x3e8
 8000c42:	9302      	str	r3, [sp, #8]
 8000c44:	2301      	movs	r3, #1
 8000c46:	9301      	str	r3, [sp, #4]
 8000c48:	4b06      	ldr	r3, [pc, #24]	@ (8000c64 <Alarm_Slot_Pointer_Get+0x2c>)
 8000c4a:	9300      	str	r3, [sp, #0]
 8000c4c:	2302      	movs	r3, #2
 8000c4e:	2228      	movs	r2, #40	@ 0x28
 8000c50:	21a0      	movs	r1, #160	@ 0xa0
 8000c52:	4805      	ldr	r0, [pc, #20]	@ (8000c68 <Alarm_Slot_Pointer_Get+0x30>)
 8000c54:	f002 fcca 	bl	80035ec <HAL_I2C_Mem_Read>

  // Delay to allow the EEPROM module to complete the Sequential Read operation
  HAL_Delay(1);
 8000c58:	2001      	movs	r0, #1
 8000c5a:	f001 fadb 	bl	8002214 <HAL_Delay>
}
 8000c5e:	bf00      	nop
 8000c60:	46bd      	mov	sp, r7
 8000c62:	bd80      	pop	{r7, pc}
 8000c64:	20000158 	.word	0x20000158
 8000c68:	200000a8 	.word	0x200000a8

08000c6c <Alarm_Check>:
  * @param  time_get_data: Pointer to a TIME structure to store the current time values
  * @retval None
  * @note   This function compares the current time with all alarms stored in the EEPROM module.
*/
void Alarm_Check (volatile TIME_DATA *time_get_data)
{
 8000c6c:	b580      	push	{r7, lr}
 8000c6e:	b086      	sub	sp, #24
 8000c70:	af00      	add	r7, sp, #0
 8000c72:	6078      	str	r0, [r7, #4]
  // A blank array to contain the alarm values retrieved from the EEPROM module
  volatile ALARM_DATA alarmCheckData = {0};
 8000c74:	f107 030c 	add.w	r3, r7, #12
 8000c78:	2200      	movs	r2, #0
 8000c7a:	601a      	str	r2, [r3, #0]
 8000c7c:	809a      	strh	r2, [r3, #4]

  // Compare the current time with all available alarms in the EEPROM module
  for (int i = 0; i < alarm_slot_ptr; i++)
 8000c7e:	2300      	movs	r3, #0
 8000c80:	617b      	str	r3, [r7, #20]
 8000c82:	e063      	b.n	8000d4c <Alarm_Check+0xe0>
  {
    // Retrieve the alarm values from the EEPROM module
    //    void Alarm_Get (uint8_t slot, ALARM_DATA *alarm_get_data)
    Alarm_Get(i, &alarmCheckData);
 8000c84:	697b      	ldr	r3, [r7, #20]
 8000c86:	b2db      	uxtb	r3, r3
 8000c88:	f107 020c 	add.w	r2, r7, #12
 8000c8c:	4611      	mov	r1, r2
 8000c8e:	4618      	mov	r0, r3
 8000c90:	f7ff ff3a 	bl	8000b08 <Alarm_Get>

    // Check if the alarm is at ON or OFF state by checking the MSB of the second register
    if (!alarmCheckData.on_off)
 8000c94:	7c7b      	ldrb	r3, [r7, #17]
 8000c96:	b2db      	uxtb	r3, r3
 8000c98:	f083 0301 	eor.w	r3, r3, #1
 8000c9c:	b2db      	uxtb	r3, r3
 8000c9e:	2b00      	cmp	r3, #0
 8000ca0:	d146      	bne.n	8000d30 <Alarm_Check+0xc4>
      // Skip if the alarm is OFF
      continue;
    }

    // Check if the current time matches the alarm time (day of week)
    if ((alarmCheckData.dy_dt == DAY_OF_WEEK_MODE)
 8000ca2:	7bfb      	ldrb	r3, [r7, #15]
 8000ca4:	b2db      	uxtb	r3, r3
 8000ca6:	2b00      	cmp	r3, #0
 8000ca8:	d106      	bne.n	8000cb8 <Alarm_Check+0x4c>
    &&  (alarmCheckData.dow_dom != time_get_data->dayofweek))
 8000caa:	7c3b      	ldrb	r3, [r7, #16]
 8000cac:	b2da      	uxtb	r2, r3
 8000cae:	687b      	ldr	r3, [r7, #4]
 8000cb0:	78db      	ldrb	r3, [r3, #3]
 8000cb2:	b2db      	uxtb	r3, r3
 8000cb4:	429a      	cmp	r2, r3
 8000cb6:	d13d      	bne.n	8000d34 <Alarm_Check+0xc8>
      // Skip if the current time does NOT match the alarm time (day of week)
      continue;
    }

    // Check if the current time matches the alarm time (date of month)
    if ((alarmCheckData.dy_dt == DATE_OF_MONTH_MODE)
 8000cb8:	7bfb      	ldrb	r3, [r7, #15]
 8000cba:	b2db      	uxtb	r3, r3
 8000cbc:	2b01      	cmp	r3, #1
 8000cbe:	d106      	bne.n	8000cce <Alarm_Check+0x62>
    &&  (alarmCheckData.dow_dom != time_get_data->dateofmonth))
 8000cc0:	7c3b      	ldrb	r3, [r7, #16]
 8000cc2:	b2da      	uxtb	r2, r3
 8000cc4:	687b      	ldr	r3, [r7, #4]
 8000cc6:	791b      	ldrb	r3, [r3, #4]
 8000cc8:	b2db      	uxtb	r3, r3
 8000cca:	429a      	cmp	r2, r3
 8000ccc:	d134      	bne.n	8000d38 <Alarm_Check+0xcc>
      // Skip if the current time does NOT match the alarm time (date of month)
      continue;
    }

    // Check if the current time matches the alarm time (hour)
    if (alarmCheckData.hour != time_get_data->hour)
 8000cce:	7bbb      	ldrb	r3, [r7, #14]
 8000cd0:	b2da      	uxtb	r2, r3
 8000cd2:	687b      	ldr	r3, [r7, #4]
 8000cd4:	789b      	ldrb	r3, [r3, #2]
 8000cd6:	b2db      	uxtb	r3, r3
 8000cd8:	429a      	cmp	r2, r3
 8000cda:	d12f      	bne.n	8000d3c <Alarm_Check+0xd0>
      // Skip if the current time does NOT match the alarm time (hour)
      continue;
    }

    // Check if the current time matches the alarm time (minute)
    if (alarmCheckData.minute != time_get_data->minute)
 8000cdc:	7b7b      	ldrb	r3, [r7, #13]
 8000cde:	b2da      	uxtb	r2, r3
 8000ce0:	687b      	ldr	r3, [r7, #4]
 8000ce2:	785b      	ldrb	r3, [r3, #1]
 8000ce4:	b2db      	uxtb	r3, r3
 8000ce6:	429a      	cmp	r2, r3
 8000ce8:	d12a      	bne.n	8000d40 <Alarm_Check+0xd4>
      // Skip if the current time does NOT match the alarm time (minute)
      continue;
    }

    // Check if the current time matches the alarm time (second)
    if (alarmCheckData.second != time_get_data->second)
 8000cea:	7b3b      	ldrb	r3, [r7, #12]
 8000cec:	b2da      	uxtb	r2, r3
 8000cee:	687b      	ldr	r3, [r7, #4]
 8000cf0:	781b      	ldrb	r3, [r3, #0]
 8000cf2:	b2db      	uxtb	r3, r3
 8000cf4:	429a      	cmp	r2, r3
 8000cf6:	d125      	bne.n	8000d44 <Alarm_Check+0xd8>
      // Skip if the current time does NOT match the alarm time (second)
      continue;
    }


    debug_alarm_check_ctr += 1;
 8000cf8:	4b1a      	ldr	r3, [pc, #104]	@ (8000d64 <Alarm_Check+0xf8>)
 8000cfa:	781b      	ldrb	r3, [r3, #0]
 8000cfc:	3301      	adds	r3, #1
 8000cfe:	b2da      	uxtb	r2, r3
 8000d00:	4b18      	ldr	r3, [pc, #96]	@ (8000d64 <Alarm_Check+0xf8>)
 8000d02:	701a      	strb	r2, [r3, #0]

    // Reset the buzzer cycle number
    buzzer_cycle = 0; 
 8000d04:	4b18      	ldr	r3, [pc, #96]	@ (8000d68 <Alarm_Check+0xfc>)
 8000d06:	2200      	movs	r2, #0
 8000d08:	701a      	strb	r2, [r3, #0]

    // Reset the buzzer phase number
    buzzer_phase = 0; 
 8000d0a:	4b18      	ldr	r3, [pc, #96]	@ (8000d6c <Alarm_Check+0x100>)
 8000d0c:	2200      	movs	r2, #0
 8000d0e:	701a      	strb	r2, [r3, #0]

    // Set the system past mode to the current mode
    system_state.past_mode = system_state.mode;
 8000d10:	4b17      	ldr	r3, [pc, #92]	@ (8000d70 <Alarm_Check+0x104>)
 8000d12:	781a      	ldrb	r2, [r3, #0]
 8000d14:	4b16      	ldr	r3, [pc, #88]	@ (8000d70 <Alarm_Check+0x104>)
 8000d16:	705a      	strb	r2, [r3, #1]

    // Set the system state to alarm active mode
    system_state.mode = ALARM_ACTIVE_MODE;
 8000d18:	4b15      	ldr	r3, [pc, #84]	@ (8000d70 <Alarm_Check+0x104>)
 8000d1a:	2204      	movs	r2, #4
 8000d1c:	701a      	strb	r2, [r3, #0]

    // Set the buzzer tick to the current tick
    buzzer_tick = HAL_GetTick();
 8000d1e:	f001 fa6f 	bl	8002200 <HAL_GetTick>
 8000d22:	4603      	mov	r3, r0
 8000d24:	4a13      	ldr	r2, [pc, #76]	@ (8000d74 <Alarm_Check+0x108>)
 8000d26:	6013      	str	r3, [r2, #0]

    // Set the alarm active flag to true
    alarm_active_flag = true; 
 8000d28:	4b13      	ldr	r3, [pc, #76]	@ (8000d78 <Alarm_Check+0x10c>)
 8000d2a:	2201      	movs	r2, #1
 8000d2c:	701a      	strb	r2, [r3, #0]
    
    // Stop checking time matching
    // to make sure that only one alarm can be activated at a time
    break;
 8000d2e:	e014      	b.n	8000d5a <Alarm_Check+0xee>
      continue;
 8000d30:	bf00      	nop
 8000d32:	e008      	b.n	8000d46 <Alarm_Check+0xda>
      continue;
 8000d34:	bf00      	nop
 8000d36:	e006      	b.n	8000d46 <Alarm_Check+0xda>
      continue;
 8000d38:	bf00      	nop
 8000d3a:	e004      	b.n	8000d46 <Alarm_Check+0xda>
      continue;
 8000d3c:	bf00      	nop
 8000d3e:	e002      	b.n	8000d46 <Alarm_Check+0xda>
      continue;
 8000d40:	bf00      	nop
 8000d42:	e000      	b.n	8000d46 <Alarm_Check+0xda>
      continue;
 8000d44:	bf00      	nop
  for (int i = 0; i < alarm_slot_ptr; i++)
 8000d46:	697b      	ldr	r3, [r7, #20]
 8000d48:	3301      	adds	r3, #1
 8000d4a:	617b      	str	r3, [r7, #20]
 8000d4c:	4b0b      	ldr	r3, [pc, #44]	@ (8000d7c <Alarm_Check+0x110>)
 8000d4e:	781b      	ldrb	r3, [r3, #0]
 8000d50:	461a      	mov	r2, r3
 8000d52:	697b      	ldr	r3, [r7, #20]
 8000d54:	4293      	cmp	r3, r2
 8000d56:	db95      	blt.n	8000c84 <Alarm_Check+0x18>
  }
}
 8000d58:	bf00      	nop
 8000d5a:	bf00      	nop
 8000d5c:	3718      	adds	r7, #24
 8000d5e:	46bd      	mov	sp, r7
 8000d60:	bd80      	pop	{r7, pc}
 8000d62:	bf00      	nop
 8000d64:	2000015b 	.word	0x2000015b
 8000d68:	20000170 	.word	0x20000170
 8000d6c:	20000171 	.word	0x20000171
 8000d70:	200000fc 	.word	0x200000fc
 8000d74:	20000174 	.word	0x20000174
 8000d78:	2000015c 	.word	0x2000015c
 8000d7c:	20000158 	.word	0x20000158

08000d80 <Alarm_Ring>:
/**
  * @brief  Handle the alarm activation by ringing the buzzer and updating the system state.
  * @retval None
*/
void Alarm_Ring (void)
{
 8000d80:	b580      	push	{r7, lr}
 8000d82:	af00      	add	r7, sp, #0
  // Check if the buzzer cycle number is less than or equal to the maximum cycle number
  if (buzzer_cycle <= BUZZER_CYCLE_NUM)
 8000d84:	4b3d      	ldr	r3, [pc, #244]	@ (8000e7c <Alarm_Ring+0xfc>)
 8000d86:	781b      	ldrb	r3, [r3, #0]
 8000d88:	2b0a      	cmp	r3, #10
 8000d8a:	d868      	bhi.n	8000e5e <Alarm_Ring+0xde>
  {
    // Check if the buzzer phase number is less than or equal to the maximum phase number
    if (buzzer_phase <= 4)
 8000d8c:	4b3c      	ldr	r3, [pc, #240]	@ (8000e80 <Alarm_Ring+0x100>)
 8000d8e:	781b      	ldrb	r3, [r3, #0]
 8000d90:	2b04      	cmp	r3, #4
 8000d92:	d855      	bhi.n	8000e40 <Alarm_Ring+0xc0>
    {
      // Check if the buzzer tick is within the specified delay time
      if      ((buzzer_phase == 0) && (HAL_GetTick() - buzzer_tick <= BUZZER_SHORT_DELAY))
 8000d94:	4b3a      	ldr	r3, [pc, #232]	@ (8000e80 <Alarm_Ring+0x100>)
 8000d96:	781b      	ldrb	r3, [r3, #0]
 8000d98:	2b00      	cmp	r3, #0
 8000d9a:	d10d      	bne.n	8000db8 <Alarm_Ring+0x38>
 8000d9c:	f001 fa30 	bl	8002200 <HAL_GetTick>
 8000da0:	4602      	mov	r2, r0
 8000da2:	4b38      	ldr	r3, [pc, #224]	@ (8000e84 <Alarm_Ring+0x104>)
 8000da4:	681b      	ldr	r3, [r3, #0]
 8000da6:	1ad3      	subs	r3, r2, r3
 8000da8:	2b64      	cmp	r3, #100	@ 0x64
 8000daa:	d805      	bhi.n	8000db8 <Alarm_Ring+0x38>
      {
        // Turn on the buzzer for a short duration
        HAL_GPIO_WritePin(GPIOB, BUZZER_Pin, BUZZER_ACTIVE);
 8000dac:	2200      	movs	r2, #0
 8000dae:	2101      	movs	r1, #1
 8000db0:	4835      	ldr	r0, [pc, #212]	@ (8000e88 <Alarm_Ring+0x108>)
 8000db2:	f002 f9ac 	bl	800310e <HAL_GPIO_WritePin>
 8000db6:	e05f      	b.n	8000e78 <Alarm_Ring+0xf8>
      }
      else if ((buzzer_phase == 1) && (HAL_GetTick() - buzzer_tick <= BUZZER_SHORT_DELAY))
 8000db8:	4b31      	ldr	r3, [pc, #196]	@ (8000e80 <Alarm_Ring+0x100>)
 8000dba:	781b      	ldrb	r3, [r3, #0]
 8000dbc:	2b01      	cmp	r3, #1
 8000dbe:	d10d      	bne.n	8000ddc <Alarm_Ring+0x5c>
 8000dc0:	f001 fa1e 	bl	8002200 <HAL_GetTick>
 8000dc4:	4602      	mov	r2, r0
 8000dc6:	4b2f      	ldr	r3, [pc, #188]	@ (8000e84 <Alarm_Ring+0x104>)
 8000dc8:	681b      	ldr	r3, [r3, #0]
 8000dca:	1ad3      	subs	r3, r2, r3
 8000dcc:	2b64      	cmp	r3, #100	@ 0x64
 8000dce:	d805      	bhi.n	8000ddc <Alarm_Ring+0x5c>
      {
        // Turn off the buzzer for a short duration
        HAL_GPIO_WritePin(GPIOB, BUZZER_Pin, BUZZER_INACTIVE);
 8000dd0:	2201      	movs	r2, #1
 8000dd2:	2101      	movs	r1, #1
 8000dd4:	482c      	ldr	r0, [pc, #176]	@ (8000e88 <Alarm_Ring+0x108>)
 8000dd6:	f002 f99a 	bl	800310e <HAL_GPIO_WritePin>
 8000dda:	e04d      	b.n	8000e78 <Alarm_Ring+0xf8>
      }
      else if ((buzzer_phase == 3) && (HAL_GetTick() - buzzer_tick <= BUZZER_MEDIUM_DELAY))
 8000ddc:	4b28      	ldr	r3, [pc, #160]	@ (8000e80 <Alarm_Ring+0x100>)
 8000dde:	781b      	ldrb	r3, [r3, #0]
 8000de0:	2b03      	cmp	r3, #3
 8000de2:	d10e      	bne.n	8000e02 <Alarm_Ring+0x82>
 8000de4:	f001 fa0c 	bl	8002200 <HAL_GetTick>
 8000de8:	4602      	mov	r2, r0
 8000dea:	4b26      	ldr	r3, [pc, #152]	@ (8000e84 <Alarm_Ring+0x104>)
 8000dec:	681b      	ldr	r3, [r3, #0]
 8000dee:	1ad3      	subs	r3, r2, r3
 8000df0:	f5b3 7f96 	cmp.w	r3, #300	@ 0x12c
 8000df4:	d805      	bhi.n	8000e02 <Alarm_Ring+0x82>
      {
        // Turn on the buzzer for a medium duration
        HAL_GPIO_WritePin(GPIOB, BUZZER_Pin, BUZZER_ACTIVE);
 8000df6:	2200      	movs	r2, #0
 8000df8:	2101      	movs	r1, #1
 8000dfa:	4823      	ldr	r0, [pc, #140]	@ (8000e88 <Alarm_Ring+0x108>)
 8000dfc:	f002 f987 	bl	800310e <HAL_GPIO_WritePin>
 8000e00:	e03a      	b.n	8000e78 <Alarm_Ring+0xf8>
      }
      else if ((buzzer_phase == 4) && (HAL_GetTick() - buzzer_tick <= BUZZER_LONG_DELAY))
 8000e02:	4b1f      	ldr	r3, [pc, #124]	@ (8000e80 <Alarm_Ring+0x100>)
 8000e04:	781b      	ldrb	r3, [r3, #0]
 8000e06:	2b04      	cmp	r3, #4
 8000e08:	d10e      	bne.n	8000e28 <Alarm_Ring+0xa8>
 8000e0a:	f001 f9f9 	bl	8002200 <HAL_GetTick>
 8000e0e:	4602      	mov	r2, r0
 8000e10:	4b1c      	ldr	r3, [pc, #112]	@ (8000e84 <Alarm_Ring+0x104>)
 8000e12:	681b      	ldr	r3, [r3, #0]
 8000e14:	1ad3      	subs	r3, r2, r3
 8000e16:	f5b3 7ffa 	cmp.w	r3, #500	@ 0x1f4
 8000e1a:	d805      	bhi.n	8000e28 <Alarm_Ring+0xa8>
      {
        // Turn off the buzzer for a long duration
        HAL_GPIO_WritePin(GPIOB, BUZZER_Pin, BUZZER_INACTIVE);
 8000e1c:	2201      	movs	r2, #1
 8000e1e:	2101      	movs	r1, #1
 8000e20:	4819      	ldr	r0, [pc, #100]	@ (8000e88 <Alarm_Ring+0x108>)
 8000e22:	f002 f974 	bl	800310e <HAL_GPIO_WritePin>
 8000e26:	e027      	b.n	8000e78 <Alarm_Ring+0xf8>
      }
      else
      {
        // Reset the tick for the next phase
        buzzer_tick = HAL_GetTick(); 
 8000e28:	f001 f9ea 	bl	8002200 <HAL_GetTick>
 8000e2c:	4603      	mov	r3, r0
 8000e2e:	4a15      	ldr	r2, [pc, #84]	@ (8000e84 <Alarm_Ring+0x104>)
 8000e30:	6013      	str	r3, [r2, #0]

        // Move to the next phase
        buzzer_phase++; 
 8000e32:	4b13      	ldr	r3, [pc, #76]	@ (8000e80 <Alarm_Ring+0x100>)
 8000e34:	781b      	ldrb	r3, [r3, #0]
 8000e36:	3301      	adds	r3, #1
 8000e38:	b2da      	uxtb	r2, r3
 8000e3a:	4b11      	ldr	r3, [pc, #68]	@ (8000e80 <Alarm_Ring+0x100>)
 8000e3c:	701a      	strb	r2, [r3, #0]
    // system_state.past_mode = ALARM_ACTIVE_MODE; 

    // Reset the buzzer
    HAL_GPIO_WritePin(BUZZER_GPIO_Port, BUZZER_Pin, BUZZER_INACTIVE); 
  }
}
 8000e3e:	e01b      	b.n	8000e78 <Alarm_Ring+0xf8>
      buzzer_tick = HAL_GetTick(); 
 8000e40:	f001 f9de 	bl	8002200 <HAL_GetTick>
 8000e44:	4603      	mov	r3, r0
 8000e46:	4a0f      	ldr	r2, [pc, #60]	@ (8000e84 <Alarm_Ring+0x104>)
 8000e48:	6013      	str	r3, [r2, #0]
      buzzer_phase = 0; 
 8000e4a:	4b0d      	ldr	r3, [pc, #52]	@ (8000e80 <Alarm_Ring+0x100>)
 8000e4c:	2200      	movs	r2, #0
 8000e4e:	701a      	strb	r2, [r3, #0]
      buzzer_cycle++; 
 8000e50:	4b0a      	ldr	r3, [pc, #40]	@ (8000e7c <Alarm_Ring+0xfc>)
 8000e52:	781b      	ldrb	r3, [r3, #0]
 8000e54:	3301      	adds	r3, #1
 8000e56:	b2da      	uxtb	r2, r3
 8000e58:	4b08      	ldr	r3, [pc, #32]	@ (8000e7c <Alarm_Ring+0xfc>)
 8000e5a:	701a      	strb	r2, [r3, #0]
}
 8000e5c:	e00c      	b.n	8000e78 <Alarm_Ring+0xf8>
    alarm_active_flag = false; 
 8000e5e:	4b0b      	ldr	r3, [pc, #44]	@ (8000e8c <Alarm_Ring+0x10c>)
 8000e60:	2200      	movs	r2, #0
 8000e62:	701a      	strb	r2, [r3, #0]
    system_state.mode = system_state.past_mode; 
 8000e64:	4b0a      	ldr	r3, [pc, #40]	@ (8000e90 <Alarm_Ring+0x110>)
 8000e66:	785a      	ldrb	r2, [r3, #1]
 8000e68:	4b09      	ldr	r3, [pc, #36]	@ (8000e90 <Alarm_Ring+0x110>)
 8000e6a:	701a      	strb	r2, [r3, #0]
    HAL_GPIO_WritePin(BUZZER_GPIO_Port, BUZZER_Pin, BUZZER_INACTIVE); 
 8000e6c:	2201      	movs	r2, #1
 8000e6e:	2101      	movs	r1, #1
 8000e70:	4805      	ldr	r0, [pc, #20]	@ (8000e88 <Alarm_Ring+0x108>)
 8000e72:	f002 f94c 	bl	800310e <HAL_GPIO_WritePin>
}
 8000e76:	e7ff      	b.n	8000e78 <Alarm_Ring+0xf8>
 8000e78:	bf00      	nop
 8000e7a:	bd80      	pop	{r7, pc}
 8000e7c:	20000170 	.word	0x20000170
 8000e80:	20000171 	.word	0x20000171
 8000e84:	20000174 	.word	0x20000174
 8000e88:	40010c00 	.word	0x40010c00
 8000e8c:	2000015c 	.word	0x2000015c
 8000e90:	200000fc 	.word	0x200000fc

08000e94 <Button_Debounce>:
  * * @param  button->hold_latch: 
  * * @param  button->start_tick: Start time of the button press event (in milliseconds).
  * @retval None
*/
void Button_Debounce(BUTTON_DATA *button)
{
 8000e94:	b580      	push	{r7, lr}
 8000e96:	b082      	sub	sp, #8
 8000e98:	af00      	add	r7, sp, #0
 8000e9a:	6078      	str	r0, [r7, #4]
  // Handle button state transitions and debounce logic
  switch (button->state)
 8000e9c:	687b      	ldr	r3, [r7, #4]
 8000e9e:	79db      	ldrb	r3, [r3, #7]
 8000ea0:	2b02      	cmp	r3, #2
 8000ea2:	d03d      	beq.n	8000f20 <Button_Debounce+0x8c>
 8000ea4:	2b02      	cmp	r3, #2
 8000ea6:	dc70      	bgt.n	8000f8a <Button_Debounce+0xf6>
 8000ea8:	2b00      	cmp	r3, #0
 8000eaa:	d002      	beq.n	8000eb2 <Button_Debounce+0x1e>
 8000eac:	2b01      	cmp	r3, #1
 8000eae:	d017      	beq.n	8000ee0 <Button_Debounce+0x4c>
 8000eb0:	e06b      	b.n	8000f8a <Button_Debounce+0xf6>
  {
    // Initial state: Button is released (HIGH)
    case BUTTON_RELEASED:

      // Reset all flags and state variables
      button->press_flag = false;
 8000eb2:	687b      	ldr	r3, [r7, #4]
 8000eb4:	2200      	movs	r2, #0
 8000eb6:	735a      	strb	r2, [r3, #13]
      button->hold_flag = false;
 8000eb8:	687b      	ldr	r3, [r7, #4]
 8000eba:	2200      	movs	r2, #0
 8000ebc:	739a      	strb	r2, [r3, #14]
      button->latch = false;
 8000ebe:	687b      	ldr	r3, [r7, #4]
 8000ec0:	2200      	movs	r2, #0
 8000ec2:	73da      	strb	r2, [r3, #15]
    
      // Check if interrupt flag is set
      if (button->int_flag) 
 8000ec4:	687b      	ldr	r3, [r7, #4]
 8000ec6:	7b1b      	ldrb	r3, [r3, #12]
 8000ec8:	b2db      	uxtb	r3, r3
 8000eca:	2b00      	cmp	r3, #0
 8000ecc:	d06d      	beq.n	8000faa <Button_Debounce+0x116>
      {
        // Record the start time for debounce
        button->start_tick = HAL_GetTick();
 8000ece:	f001 f997 	bl	8002200 <HAL_GetTick>
 8000ed2:	4602      	mov	r2, r0
 8000ed4:	687b      	ldr	r3, [r7, #4]
 8000ed6:	609a      	str	r2, [r3, #8]

        // Transition to waiting state
        button->state = BUTTON_WAITING;
 8000ed8:	687b      	ldr	r3, [r7, #4]
 8000eda:	2201      	movs	r2, #1
 8000edc:	71da      	strb	r2, [r3, #7]
      }
      break;
 8000ede:	e064      	b.n	8000faa <Button_Debounce+0x116>

    // Waiting state: Button is pressed (LOW) but not yet confirmed
    case BUTTON_WAITING:
      // Check if debounce delay has passed
      if (HAL_GetTick() - button->start_tick >= (BUTTON_DEBOUNCE_DELAY + DISPLAY_DELAY)) 
 8000ee0:	f001 f98e 	bl	8002200 <HAL_GetTick>
 8000ee4:	4602      	mov	r2, r0
 8000ee6:	687b      	ldr	r3, [r7, #4]
 8000ee8:	689b      	ldr	r3, [r3, #8]
 8000eea:	1ad3      	subs	r3, r2, r3
 8000eec:	f240 2211 	movw	r2, #529	@ 0x211
 8000ef0:	4293      	cmp	r3, r2
 8000ef2:	d95c      	bls.n	8000fae <Button_Debounce+0x11a>
      {
        // Check if button is still pressed (LOW state) after debounce delay
        if (HAL_GPIO_ReadPin(button->gpio_port, button->gpio_pin) == BUTTON_ACTIVE) 
 8000ef4:	687b      	ldr	r3, [r7, #4]
 8000ef6:	681a      	ldr	r2, [r3, #0]
 8000ef8:	687b      	ldr	r3, [r7, #4]
 8000efa:	889b      	ldrh	r3, [r3, #4]
 8000efc:	4619      	mov	r1, r3
 8000efe:	4610      	mov	r0, r2
 8000f00:	f002 f8ee 	bl	80030e0 <HAL_GPIO_ReadPin>
 8000f04:	4603      	mov	r3, r0
 8000f06:	2b01      	cmp	r3, #1
 8000f08:	d103      	bne.n	8000f12 <Button_Debounce+0x7e>
        {
          // Transition to pressed state
          button->state = BUTTON_PRESSED;
 8000f0a:	687b      	ldr	r3, [r7, #4]
 8000f0c:	2202      	movs	r2, #2
 8000f0e:	71da      	strb	r2, [r3, #7]
          // Reset interrupt flag and return to released state
          button->int_flag = false;  
          button->state = BUTTON_RELEASED;
        }
      }
      break;
 8000f10:	e04d      	b.n	8000fae <Button_Debounce+0x11a>
          button->int_flag = false;  
 8000f12:	687b      	ldr	r3, [r7, #4]
 8000f14:	2200      	movs	r2, #0
 8000f16:	731a      	strb	r2, [r3, #12]
          button->state = BUTTON_RELEASED;
 8000f18:	687b      	ldr	r3, [r7, #4]
 8000f1a:	2200      	movs	r2, #0
 8000f1c:	71da      	strb	r2, [r3, #7]
      break;
 8000f1e:	e046      	b.n	8000fae <Button_Debounce+0x11a>
    
    // Pressed state: Button is pressed (LOW)
    case BUTTON_PRESSED:
      // Check if button is released (HIGH state)
      if (HAL_GPIO_ReadPin(button->gpio_port, button->gpio_pin) != BUTTON_ACTIVE) 
 8000f20:	687b      	ldr	r3, [r7, #4]
 8000f22:	681a      	ldr	r2, [r3, #0]
 8000f24:	687b      	ldr	r3, [r7, #4]
 8000f26:	889b      	ldrh	r3, [r3, #4]
 8000f28:	4619      	mov	r1, r3
 8000f2a:	4610      	mov	r0, r2
 8000f2c:	f002 f8d8 	bl	80030e0 <HAL_GPIO_ReadPin>
 8000f30:	4603      	mov	r3, r0
 8000f32:	2b01      	cmp	r3, #1
 8000f34:	d013      	beq.n	8000f5e <Button_Debounce+0xca>
      {
        // Check if press duration is less than hold threshold
        if (HAL_GetTick() - button->start_tick < (BUTTON_HOLD_TH + DISPLAY_DELAY))
 8000f36:	f001 f963 	bl	8002200 <HAL_GetTick>
 8000f3a:	4602      	mov	r2, r0
 8000f3c:	687b      	ldr	r3, [r7, #4]
 8000f3e:	689b      	ldr	r3, [r3, #8]
 8000f40:	1ad3      	subs	r3, r2, r3
 8000f42:	f240 424b 	movw	r2, #1099	@ 0x44b
 8000f46:	4293      	cmp	r3, r2
 8000f48:	d802      	bhi.n	8000f50 <Button_Debounce+0xbc>
        {
          // Set press flag for short press
          button->press_flag = true;
 8000f4a:	687b      	ldr	r3, [r7, #4]
 8000f4c:	2201      	movs	r2, #1
 8000f4e:	735a      	strb	r2, [r3, #13]
        }
      
        // Reset interrupt flag and return to released state
        button->int_flag = false;
 8000f50:	687b      	ldr	r3, [r7, #4]
 8000f52:	2200      	movs	r2, #0
 8000f54:	731a      	strb	r2, [r3, #12]

        //button->latch = false;
        button->state = BUTTON_RELEASED;
 8000f56:	687b      	ldr	r3, [r7, #4]
 8000f58:	2200      	movs	r2, #0
 8000f5a:	71da      	strb	r2, [r3, #7]
      else if ((HAL_GetTick() - button->start_tick >= (BUTTON_HOLD_TH + DISPLAY_DELAY)) && !button->hold_flag)
      {
        // Set hold flag for long press
        button->hold_flag = true;
      }
      break;
 8000f5c:	e029      	b.n	8000fb2 <Button_Debounce+0x11e>
      else if ((HAL_GetTick() - button->start_tick >= (BUTTON_HOLD_TH + DISPLAY_DELAY)) && !button->hold_flag)
 8000f5e:	f001 f94f 	bl	8002200 <HAL_GetTick>
 8000f62:	4602      	mov	r2, r0
 8000f64:	687b      	ldr	r3, [r7, #4]
 8000f66:	689b      	ldr	r3, [r3, #8]
 8000f68:	1ad3      	subs	r3, r2, r3
 8000f6a:	f240 424b 	movw	r2, #1099	@ 0x44b
 8000f6e:	4293      	cmp	r3, r2
 8000f70:	d91f      	bls.n	8000fb2 <Button_Debounce+0x11e>
 8000f72:	687b      	ldr	r3, [r7, #4]
 8000f74:	7b9b      	ldrb	r3, [r3, #14]
 8000f76:	b2db      	uxtb	r3, r3
 8000f78:	f083 0301 	eor.w	r3, r3, #1
 8000f7c:	b2db      	uxtb	r3, r3
 8000f7e:	2b00      	cmp	r3, #0
 8000f80:	d017      	beq.n	8000fb2 <Button_Debounce+0x11e>
        button->hold_flag = true;
 8000f82:	687b      	ldr	r3, [r7, #4]
 8000f84:	2201      	movs	r2, #1
 8000f86:	739a      	strb	r2, [r3, #14]
      break;
 8000f88:	e013      	b.n	8000fb2 <Button_Debounce+0x11e>

    default:
      // Reset all flags and return to released state
      button->state = BUTTON_RELEASED;
 8000f8a:	687b      	ldr	r3, [r7, #4]
 8000f8c:	2200      	movs	r2, #0
 8000f8e:	71da      	strb	r2, [r3, #7]
      button->int_flag = false;
 8000f90:	687b      	ldr	r3, [r7, #4]
 8000f92:	2200      	movs	r2, #0
 8000f94:	731a      	strb	r2, [r3, #12]
      button->press_flag = false;
 8000f96:	687b      	ldr	r3, [r7, #4]
 8000f98:	2200      	movs	r2, #0
 8000f9a:	735a      	strb	r2, [r3, #13]
      button->hold_flag = false;
 8000f9c:	687b      	ldr	r3, [r7, #4]
 8000f9e:	2200      	movs	r2, #0
 8000fa0:	739a      	strb	r2, [r3, #14]
      button->latch = false;
 8000fa2:	687b      	ldr	r3, [r7, #4]
 8000fa4:	2200      	movs	r2, #0
 8000fa6:	73da      	strb	r2, [r3, #15]
      break;
 8000fa8:	e004      	b.n	8000fb4 <Button_Debounce+0x120>
      break;
 8000faa:	bf00      	nop
 8000fac:	e002      	b.n	8000fb4 <Button_Debounce+0x120>
      break;
 8000fae:	bf00      	nop
 8000fb0:	e000      	b.n	8000fb4 <Button_Debounce+0x120>
      break;
 8000fb2:	bf00      	nop
  }
}
 8000fb4:	bf00      	nop
 8000fb6:	3708      	adds	r7, #8
 8000fb8:	46bd      	mov	sp, r7
 8000fba:	bd80      	pop	{r7, pc}

08000fbc <Button_Handle>:
/**
 * @brief  Button interrupt handler function to be called in main loop
 * @retval None
 */
void Button_Handle (void) 
{
 8000fbc:	b590      	push	{r4, r7, lr}
 8000fbe:	b087      	sub	sp, #28
 8000fc0:	af00      	add	r7, sp, #0
  // An empty button variable containing reset values for button pointer initiallization
  BUTTON_DATA buttonReset = {GPIOB, BUTTON0_IN12_Pin, 0, BUTTON_RELEASED, 0, false, false, false, false};
 8000fc2:	4b5d      	ldr	r3, [pc, #372]	@ (8001138 <Button_Handle+0x17c>)
 8000fc4:	463c      	mov	r4, r7
 8000fc6:	cb0f      	ldmia	r3, {r0, r1, r2, r3}
 8000fc8:	e884 000f 	stmia.w	r4, {r0, r1, r2, r3}

  // Initially point to an empty button variable
  BUTTON_DATA *button = &buttonReset;
 8000fcc:	463b      	mov	r3, r7
 8000fce:	617b      	str	r3, [r7, #20]

  // Perform button debouncing to filter out noise
  Button_Debounce(&button0);
 8000fd0:	485a      	ldr	r0, [pc, #360]	@ (800113c <Button_Handle+0x180>)
 8000fd2:	f7ff ff5f 	bl	8000e94 <Button_Debounce>
  Button_Debounce(&button1);
 8000fd6:	485a      	ldr	r0, [pc, #360]	@ (8001140 <Button_Handle+0x184>)
 8000fd8:	f7ff ff5c 	bl	8000e94 <Button_Debounce>
  Button_Debounce(&button2);
 8000fdc:	4859      	ldr	r0, [pc, #356]	@ (8001144 <Button_Handle+0x188>)
 8000fde:	f7ff ff59 	bl	8000e94 <Button_Debounce>
  Button_Debounce(&button3);
 8000fe2:	4859      	ldr	r0, [pc, #356]	@ (8001148 <Button_Handle+0x18c>)
 8000fe4:	f7ff ff56 	bl	8000e94 <Button_Debounce>
  Button_Debounce(&button4);
 8000fe8:	4858      	ldr	r0, [pc, #352]	@ (800114c <Button_Handle+0x190>)
 8000fea:	f7ff ff53 	bl	8000e94 <Button_Debounce>

  // Check which button is pressed or held and assign it to the button pointer
  if      (button0.press_flag || button0.hold_flag) button = &button0;
 8000fee:	4b53      	ldr	r3, [pc, #332]	@ (800113c <Button_Handle+0x180>)
 8000ff0:	7b5b      	ldrb	r3, [r3, #13]
 8000ff2:	b2db      	uxtb	r3, r3
 8000ff4:	2b00      	cmp	r3, #0
 8000ff6:	d104      	bne.n	8001002 <Button_Handle+0x46>
 8000ff8:	4b50      	ldr	r3, [pc, #320]	@ (800113c <Button_Handle+0x180>)
 8000ffa:	7b9b      	ldrb	r3, [r3, #14]
 8000ffc:	b2db      	uxtb	r3, r3
 8000ffe:	2b00      	cmp	r3, #0
 8001000:	d002      	beq.n	8001008 <Button_Handle+0x4c>
 8001002:	4b4e      	ldr	r3, [pc, #312]	@ (800113c <Button_Handle+0x180>)
 8001004:	617b      	str	r3, [r7, #20]
 8001006:	e032      	b.n	800106e <Button_Handle+0xb2>
  else if (button1.press_flag || button1.hold_flag) button = &button1;
 8001008:	4b4d      	ldr	r3, [pc, #308]	@ (8001140 <Button_Handle+0x184>)
 800100a:	7b5b      	ldrb	r3, [r3, #13]
 800100c:	b2db      	uxtb	r3, r3
 800100e:	2b00      	cmp	r3, #0
 8001010:	d104      	bne.n	800101c <Button_Handle+0x60>
 8001012:	4b4b      	ldr	r3, [pc, #300]	@ (8001140 <Button_Handle+0x184>)
 8001014:	7b9b      	ldrb	r3, [r3, #14]
 8001016:	b2db      	uxtb	r3, r3
 8001018:	2b00      	cmp	r3, #0
 800101a:	d002      	beq.n	8001022 <Button_Handle+0x66>
 800101c:	4b48      	ldr	r3, [pc, #288]	@ (8001140 <Button_Handle+0x184>)
 800101e:	617b      	str	r3, [r7, #20]
 8001020:	e025      	b.n	800106e <Button_Handle+0xb2>
  else if (button2.press_flag || button2.hold_flag) button = &button2;
 8001022:	4b48      	ldr	r3, [pc, #288]	@ (8001144 <Button_Handle+0x188>)
 8001024:	7b5b      	ldrb	r3, [r3, #13]
 8001026:	b2db      	uxtb	r3, r3
 8001028:	2b00      	cmp	r3, #0
 800102a:	d104      	bne.n	8001036 <Button_Handle+0x7a>
 800102c:	4b45      	ldr	r3, [pc, #276]	@ (8001144 <Button_Handle+0x188>)
 800102e:	7b9b      	ldrb	r3, [r3, #14]
 8001030:	b2db      	uxtb	r3, r3
 8001032:	2b00      	cmp	r3, #0
 8001034:	d002      	beq.n	800103c <Button_Handle+0x80>
 8001036:	4b43      	ldr	r3, [pc, #268]	@ (8001144 <Button_Handle+0x188>)
 8001038:	617b      	str	r3, [r7, #20]
 800103a:	e018      	b.n	800106e <Button_Handle+0xb2>
  else if (button3.press_flag || button3.hold_flag) button = &button3;
 800103c:	4b42      	ldr	r3, [pc, #264]	@ (8001148 <Button_Handle+0x18c>)
 800103e:	7b5b      	ldrb	r3, [r3, #13]
 8001040:	b2db      	uxtb	r3, r3
 8001042:	2b00      	cmp	r3, #0
 8001044:	d104      	bne.n	8001050 <Button_Handle+0x94>
 8001046:	4b40      	ldr	r3, [pc, #256]	@ (8001148 <Button_Handle+0x18c>)
 8001048:	7b9b      	ldrb	r3, [r3, #14]
 800104a:	b2db      	uxtb	r3, r3
 800104c:	2b00      	cmp	r3, #0
 800104e:	d002      	beq.n	8001056 <Button_Handle+0x9a>
 8001050:	4b3d      	ldr	r3, [pc, #244]	@ (8001148 <Button_Handle+0x18c>)
 8001052:	617b      	str	r3, [r7, #20]
 8001054:	e00b      	b.n	800106e <Button_Handle+0xb2>
  else if (button4.press_flag || button4.hold_flag) button = &button4;
 8001056:	4b3d      	ldr	r3, [pc, #244]	@ (800114c <Button_Handle+0x190>)
 8001058:	7b5b      	ldrb	r3, [r3, #13]
 800105a:	b2db      	uxtb	r3, r3
 800105c:	2b00      	cmp	r3, #0
 800105e:	d104      	bne.n	800106a <Button_Handle+0xae>
 8001060:	4b3a      	ldr	r3, [pc, #232]	@ (800114c <Button_Handle+0x190>)
 8001062:	7b9b      	ldrb	r3, [r3, #14]
 8001064:	b2db      	uxtb	r3, r3
 8001066:	2b00      	cmp	r3, #0
 8001068:	d001      	beq.n	800106e <Button_Handle+0xb2>
 800106a:	4b38      	ldr	r3, [pc, #224]	@ (800114c <Button_Handle+0x190>)
 800106c:	617b      	str	r3, [r7, #20]
  

  // Initialize the start tick for button hold detection
  uint32_t startTick = 0;
 800106e:	2300      	movs	r3, #0
 8001070:	613b      	str	r3, [r7, #16]
  
  // Debugging: Check if the button is pressed or held by increment its counter in activation
  if (button->press_flag)
 8001072:	697b      	ldr	r3, [r7, #20]
 8001074:	7b5b      	ldrb	r3, [r3, #13]
 8001076:	b2db      	uxtb	r3, r3
 8001078:	2b00      	cmp	r3, #0
 800107a:	d009      	beq.n	8001090 <Button_Handle+0xd4>
  {
    // Increment the debug counter for the button
    debug_button_counter[button->index]++;
 800107c:	697b      	ldr	r3, [r7, #20]
 800107e:	799b      	ldrb	r3, [r3, #6]
 8001080:	4a33      	ldr	r2, [pc, #204]	@ (8001150 <Button_Handle+0x194>)
 8001082:	5cd2      	ldrb	r2, [r2, r3]
 8001084:	b2d2      	uxtb	r2, r2
 8001086:	3201      	adds	r2, #1
 8001088:	b2d1      	uxtb	r1, r2
 800108a:	4a31      	ldr	r2, [pc, #196]	@ (8001150 <Button_Handle+0x194>)
 800108c:	54d1      	strb	r1, [r2, r3]
 800108e:	e017      	b.n	80010c0 <Button_Handle+0x104>
  }
  else if (button->hold_flag)
 8001090:	697b      	ldr	r3, [r7, #20]
 8001092:	7b9b      	ldrb	r3, [r3, #14]
 8001094:	b2db      	uxtb	r3, r3
 8001096:	2b00      	cmp	r3, #0
 8001098:	d012      	beq.n	80010c0 <Button_Handle+0x104>
  {
    // Check if the button is held down for a certain duration
    if (HAL_GetTick() - startTick >= BUTTON_HOLD_CYCLE) 
 800109a:	f001 f8b1 	bl	8002200 <HAL_GetTick>
 800109e:	4602      	mov	r2, r0
 80010a0:	693b      	ldr	r3, [r7, #16]
 80010a2:	1ad3      	subs	r3, r2, r3
 80010a4:	2bf9      	cmp	r3, #249	@ 0xf9
 80010a6:	d90b      	bls.n	80010c0 <Button_Handle+0x104>
    {
      // Increment the debug counter for the button
      debug_button_counter[button->index]++;
 80010a8:	697b      	ldr	r3, [r7, #20]
 80010aa:	799b      	ldrb	r3, [r3, #6]
 80010ac:	4a28      	ldr	r2, [pc, #160]	@ (8001150 <Button_Handle+0x194>)
 80010ae:	5cd2      	ldrb	r2, [r2, r3]
 80010b0:	b2d2      	uxtb	r2, r2
 80010b2:	3201      	adds	r2, #1
 80010b4:	b2d1      	uxtb	r1, r2
 80010b6:	4a26      	ldr	r2, [pc, #152]	@ (8001150 <Button_Handle+0x194>)
 80010b8:	54d1      	strb	r1, [r2, r3]

      // Reset the start tick for the next hold cycle
      startTick = HAL_GetTick();
 80010ba:	f001 f8a1 	bl	8002200 <HAL_GetTick>
 80010be:	6138      	str	r0, [r7, #16]
    }
  }

  // Check if the button is pressed or held
  if (button->press_flag || button->hold_flag) 
 80010c0:	697b      	ldr	r3, [r7, #20]
 80010c2:	7b5b      	ldrb	r3, [r3, #13]
 80010c4:	b2db      	uxtb	r3, r3
 80010c6:	2b00      	cmp	r3, #0
 80010c8:	d104      	bne.n	80010d4 <Button_Handle+0x118>
 80010ca:	697b      	ldr	r3, [r7, #20]
 80010cc:	7b9b      	ldrb	r3, [r3, #14]
 80010ce:	b2db      	uxtb	r3, r3
 80010d0:	2b00      	cmp	r3, #0
 80010d2:	d02c      	beq.n	800112e <Button_Handle+0x172>
  {
    // Handle button actions based on the current system mode
    switch (system_state.mode) 
 80010d4:	4b1f      	ldr	r3, [pc, #124]	@ (8001154 <Button_Handle+0x198>)
 80010d6:	781b      	ldrb	r3, [r3, #0]
 80010d8:	2b05      	cmp	r3, #5
 80010da:	d827      	bhi.n	800112c <Button_Handle+0x170>
 80010dc:	a201      	add	r2, pc, #4	@ (adr r2, 80010e4 <Button_Handle+0x128>)
 80010de:	f852 f023 	ldr.w	pc, [r2, r3, lsl #2]
 80010e2:	bf00      	nop
 80010e4:	080010fd 	.word	0x080010fd
 80010e8:	08001105 	.word	0x08001105
 80010ec:	0800110d 	.word	0x0800110d
 80010f0:	08001115 	.word	0x08001115
 80010f4:	0800111d 	.word	0x0800111d
 80010f8:	08001125 	.word	0x08001125
    {
      case DEFAULT_MODE: 
        System_Default_Mode_Handle (button);
 80010fc:	6978      	ldr	r0, [r7, #20]
 80010fe:	f000 f82b 	bl	8001158 <System_Default_Mode_Handle>
        break;
 8001102:	e014      	b.n	800112e <Button_Handle+0x172>

      case TIME_SETUP_MODE: 
        System_Time_Setup_Mode_Handle (button);
 8001104:	6978      	ldr	r0, [r7, #20]
 8001106:	f000 f8a1 	bl	800124c <System_Time_Setup_Mode_Handle>
        break;
 800110a:	e010      	b.n	800112e <Button_Handle+0x172>
      
      case ALARM_SETUP_MODE: 
        System_Alarm_Setup_Mode_Handle (button);
 800110c:	6978      	ldr	r0, [r7, #20]
 800110e:	f000 f9dd 	bl	80014cc <System_Alarm_Setup_Mode_Handle>
        break;
 8001112:	e00c      	b.n	800112e <Button_Handle+0x172>

      case ALARM_VIEW_MODE: 
        System_Alarm_View_Mode_Handle (button);
 8001114:	6978      	ldr	r0, [r7, #20]
 8001116:	f000 fb6d 	bl	80017f4 <System_Alarm_View_Mode_Handle>
        break;
 800111a:	e008      	b.n	800112e <Button_Handle+0x172>

      case ALARM_ACTIVE_MODE: 
        System_Alarm_Active_Mode_Handle (button);
 800111c:	6978      	ldr	r0, [r7, #20]
 800111e:	f000 fd2d 	bl	8001b7c <System_Alarm_Active_Mode_Handle>
        break;
 8001122:	e004      	b.n	800112e <Button_Handle+0x172>

      case SYSTEM_OPTIONS_MODE:
        System_Options_Mode_Handle (button);
 8001124:	6978      	ldr	r0, [r7, #20]
 8001126:	f000 fc95 	bl	8001a54 <System_Options_Mode_Handle>
        break;
 800112a:	e000      	b.n	800112e <Button_Handle+0x172>

      default:
        break;
 800112c:	bf00      	nop
    }
  }
}
 800112e:	bf00      	nop
 8001130:	371c      	adds	r7, #28
 8001132:	46bd      	mov	sp, r7
 8001134:	bd90      	pop	{r4, r7, pc}
 8001136:	bf00      	nop
 8001138:	08005850 	.word	0x08005850
 800113c:	20000000 	.word	0x20000000
 8001140:	20000010 	.word	0x20000010
 8001144:	20000020 	.word	0x20000020
 8001148:	20000030 	.word	0x20000030
 800114c:	20000040 	.word	0x20000040
 8001150:	20000160 	.word	0x20000160
 8001154:	200000fc 	.word	0x200000fc

08001158 <System_Default_Mode_Handle>:
 * @brief  Handles the default system mode based on button actions.
 * @param  button: Pointer to the BUTTON_DATA structure containing button state and index.
 * @retval None
 */
void System_Default_Mode_Handle (BUTTON_DATA *button)
{
 8001158:	b4f0      	push	{r4, r5, r6, r7}
 800115a:	b084      	sub	sp, #16
 800115c:	af00      	add	r7, sp, #0
 800115e:	6078      	str	r0, [r7, #4]
  switch (button->index) 
 8001160:	687b      	ldr	r3, [r7, #4]
 8001162:	799b      	ldrb	r3, [r3, #6]
 8001164:	2b04      	cmp	r3, #4
 8001166:	d85d      	bhi.n	8001224 <System_Default_Mode_Handle+0xcc>
 8001168:	a201      	add	r2, pc, #4	@ (adr r2, 8001170 <System_Default_Mode_Handle+0x18>)
 800116a:	f852 f023 	ldr.w	pc, [r2, r3, lsl #2]
 800116e:	bf00      	nop
 8001170:	08001185 	.word	0x08001185
 8001174:	08001195 	.word	0x08001195
 8001178:	080011a5 	.word	0x080011a5
 800117c:	080011b5 	.word	0x080011b5
 8001180:	080011c5 	.word	0x080011c5
  {
    // Button 0: Reserved for future use
    case 0:
      if (button->press_flag)
 8001184:	687b      	ldr	r3, [r7, #4]
 8001186:	7b5b      	ldrb	r3, [r3, #13]
 8001188:	b2db      	uxtb	r3, r3
 800118a:	2b00      	cmp	r3, #0
 800118c:	d14c      	bne.n	8001228 <System_Default_Mode_Handle+0xd0>
      {
        // Reserved
      }
      else if (button->hold_flag)
 800118e:	687b      	ldr	r3, [r7, #4]
 8001190:	7b9b      	ldrb	r3, [r3, #14]
      {
        // Reserved
      }
      break;
 8001192:	e049      	b.n	8001228 <System_Default_Mode_Handle+0xd0>
    
    // Button 1: Reserved for future use
    case 1: 
      if (button->press_flag)
 8001194:	687b      	ldr	r3, [r7, #4]
 8001196:	7b5b      	ldrb	r3, [r3, #13]
 8001198:	b2db      	uxtb	r3, r3
 800119a:	2b00      	cmp	r3, #0
 800119c:	d146      	bne.n	800122c <System_Default_Mode_Handle+0xd4>
      {
        // Reserved
      }
      else if (button->hold_flag)
 800119e:	687b      	ldr	r3, [r7, #4]
 80011a0:	7b9b      	ldrb	r3, [r3, #14]
      {
        // Reserved
      }
      break;
 80011a2:	e043      	b.n	800122c <System_Default_Mode_Handle+0xd4>

    // Button 2: If pressed, do nothing (reserved for future use); if held, do nothing (reserved for future use)
    case 2: 
      if (button->press_flag) 
 80011a4:	687b      	ldr	r3, [r7, #4]
 80011a6:	7b5b      	ldrb	r3, [r3, #13]
 80011a8:	b2db      	uxtb	r3, r3
 80011aa:	2b00      	cmp	r3, #0
 80011ac:	d140      	bne.n	8001230 <System_Default_Mode_Handle+0xd8>
      {
        // Reserved
      }
      else if (button->hold_flag)
 80011ae:	687b      	ldr	r3, [r7, #4]
 80011b0:	7b9b      	ldrb	r3, [r3, #14]
      {
        // Reserved
      }
      break;
 80011b2:	e03d      	b.n	8001230 <System_Default_Mode_Handle+0xd8>
    
    // Button 3: If pressed, do nothing (reserved for future use); if held, do nothing (reserved for future use)
    case 3:
      if (button->press_flag)
 80011b4:	687b      	ldr	r3, [r7, #4]
 80011b6:	7b5b      	ldrb	r3, [r3, #13]
 80011b8:	b2db      	uxtb	r3, r3
 80011ba:	2b00      	cmp	r3, #0
 80011bc:	d13a      	bne.n	8001234 <System_Default_Mode_Handle+0xdc>
      {
        // Reserved
      }
      else if (button->hold_flag)
 80011be:	687b      	ldr	r3, [r7, #4]
 80011c0:	7b9b      	ldrb	r3, [r3, #14]
      {
        // Reserved
      }
      break;
 80011c2:	e037      	b.n	8001234 <System_Default_Mode_Handle+0xdc>

    // Button 4: If pressed, cycle through the modes; if held, do nothing (reserved for future use)
    case 4:
      if (button->press_flag)
 80011c4:	687b      	ldr	r3, [r7, #4]
 80011c6:	7b5b      	ldrb	r3, [r3, #13]
 80011c8:	b2db      	uxtb	r3, r3
 80011ca:	2b00      	cmp	r3, #0
 80011cc:	d027      	beq.n	800121e <System_Default_Mode_Handle+0xc6>
      {
        // system_state.mode = (system_state.mode < (SYSTEM_MODE_NUM - 1)) ? (system_state.mode + 1) : 0;

        // Cycle to the next mode in the system state
        system_state.mode = TIME_SETUP_MODE;
 80011ce:	4b1c      	ldr	r3, [pc, #112]	@ (8001240 <System_Default_Mode_Handle+0xe8>)
 80011d0:	2201      	movs	r2, #1
 80011d2:	701a      	strb	r2, [r3, #0]

        // Set the system past mode to default mode
        system_state.past_mode = DEFAULT_MODE;
 80011d4:	4b1a      	ldr	r3, [pc, #104]	@ (8001240 <System_Default_Mode_Handle+0xe8>)
 80011d6:	2200      	movs	r2, #0
 80011d8:	705a      	strb	r2, [r3, #1]

        // Set the Time Setup data to the current time values for convinience
        time_setup_data =
        (TIME_SETUP_DATA)
        {
          time_get_data.minute,       // Minutes: 0-59
 80011da:	4b1a      	ldr	r3, [pc, #104]	@ (8001244 <System_Default_Mode_Handle+0xec>)
 80011dc:	785b      	ldrb	r3, [r3, #1]
 80011de:	b2de      	uxtb	r6, r3
          time_get_data.hour,         // Hours: 0-23
 80011e0:	4b18      	ldr	r3, [pc, #96]	@ (8001244 <System_Default_Mode_Handle+0xec>)
 80011e2:	789b      	ldrb	r3, [r3, #2]
 80011e4:	b2dd      	uxtb	r5, r3
          time_get_data.dayofweek,    // Day of the week: 1-7 (1 = Sunday, 2 = Monday, ..., 7 = Saturday)
 80011e6:	4b17      	ldr	r3, [pc, #92]	@ (8001244 <System_Default_Mode_Handle+0xec>)
 80011e8:	78db      	ldrb	r3, [r3, #3]
 80011ea:	b2dc      	uxtb	r4, r3
          time_get_data.dateofmonth,  // Date of the month: 1-31
 80011ec:	4b15      	ldr	r3, [pc, #84]	@ (8001244 <System_Default_Mode_Handle+0xec>)
 80011ee:	791b      	ldrb	r3, [r3, #4]
 80011f0:	b2d8      	uxtb	r0, r3
          time_get_data.month,        // Month: 1-12
 80011f2:	4b14      	ldr	r3, [pc, #80]	@ (8001244 <System_Default_Mode_Handle+0xec>)
 80011f4:	795b      	ldrb	r3, [r3, #5]
 80011f6:	b2d9      	uxtb	r1, r3
          time_get_data.year          // Year: 0-99 (0 = 2000, 1 = 2001, ..., 99 = 2099)
 80011f8:	4b12      	ldr	r3, [pc, #72]	@ (8001244 <System_Default_Mode_Handle+0xec>)
 80011fa:	799b      	ldrb	r3, [r3, #6]
 80011fc:	b2da      	uxtb	r2, r3
        time_setup_data =
 80011fe:	4b12      	ldr	r3, [pc, #72]	@ (8001248 <System_Default_Mode_Handle+0xf0>)
 8001200:	701e      	strb	r6, [r3, #0]
 8001202:	4b11      	ldr	r3, [pc, #68]	@ (8001248 <System_Default_Mode_Handle+0xf0>)
 8001204:	705d      	strb	r5, [r3, #1]
 8001206:	4b10      	ldr	r3, [pc, #64]	@ (8001248 <System_Default_Mode_Handle+0xf0>)
 8001208:	709c      	strb	r4, [r3, #2]
 800120a:	4b0f      	ldr	r3, [pc, #60]	@ (8001248 <System_Default_Mode_Handle+0xf0>)
 800120c:	70d8      	strb	r0, [r3, #3]
 800120e:	4b0e      	ldr	r3, [pc, #56]	@ (8001248 <System_Default_Mode_Handle+0xf0>)
 8001210:	7119      	strb	r1, [r3, #4]
 8001212:	4b0d      	ldr	r3, [pc, #52]	@ (8001248 <System_Default_Mode_Handle+0xf0>)
 8001214:	715a      	strb	r2, [r3, #5]
        };

        // Reset the cursor for the Time Setup mode to the first parameter (minute)
        system_state.time_setup_cursor = TIME_MINUTE;
 8001216:	4b0a      	ldr	r3, [pc, #40]	@ (8001240 <System_Default_Mode_Handle+0xe8>)
 8001218:	2200      	movs	r2, #0
 800121a:	709a      	strb	r2, [r3, #2]
      }
      else if (button->hold_flag)
      {
        // Reserved
      }
      break;
 800121c:	e00b      	b.n	8001236 <System_Default_Mode_Handle+0xde>
      else if (button->hold_flag)
 800121e:	687b      	ldr	r3, [r7, #4]
 8001220:	7b9b      	ldrb	r3, [r3, #14]
      break;
 8001222:	e008      	b.n	8001236 <System_Default_Mode_Handle+0xde>

    default: 
      break;
 8001224:	bf00      	nop
 8001226:	e006      	b.n	8001236 <System_Default_Mode_Handle+0xde>
      break;
 8001228:	bf00      	nop
 800122a:	e004      	b.n	8001236 <System_Default_Mode_Handle+0xde>
      break;
 800122c:	bf00      	nop
 800122e:	e002      	b.n	8001236 <System_Default_Mode_Handle+0xde>
      break;
 8001230:	bf00      	nop
 8001232:	e000      	b.n	8001236 <System_Default_Mode_Handle+0xde>
      break;
 8001234:	bf00      	nop
  }
}
 8001236:	bf00      	nop
 8001238:	3710      	adds	r7, #16
 800123a:	46bd      	mov	sp, r7
 800123c:	bcf0      	pop	{r4, r5, r6, r7}
 800123e:	4770      	bx	lr
 8001240:	200000fc 	.word	0x200000fc
 8001244:	20000114 	.word	0x20000114
 8001248:	20000104 	.word	0x20000104

0800124c <System_Time_Setup_Mode_Handle>:
 * @brief  Handles the time setup mode based on button actions.
 * @param  button: Pointer to the BUTTON structure containing button state and index.
 * @retval None
 */
void System_Time_Setup_Mode_Handle (BUTTON_DATA *button)
{
 800124c:	b5b0      	push	{r4, r5, r7, lr}
 800124e:	b08c      	sub	sp, #48	@ 0x30
 8001250:	af04      	add	r7, sp, #16
 8001252:	6078      	str	r0, [r7, #4]
  switch (button->index) 
 8001254:	687b      	ldr	r3, [r7, #4]
 8001256:	799b      	ldrb	r3, [r3, #6]
 8001258:	2b04      	cmp	r3, #4
 800125a:	f200 8118 	bhi.w	800148e <System_Time_Setup_Mode_Handle+0x242>
 800125e:	a201      	add	r2, pc, #4	@ (adr r2, 8001264 <System_Time_Setup_Mode_Handle+0x18>)
 8001260:	f852 f023 	ldr.w	pc, [r2, r3, lsl #2]
 8001264:	08001279 	.word	0x08001279
 8001268:	08001333 	.word	0x08001333
 800126c:	080013e7 	.word	0x080013e7
 8001270:	08001423 	.word	0x08001423
 8001274:	08001447 	.word	0x08001447
  {
    // Button 0: If pressed, increment the selected parameter; if held, do nothing (reserved for future use)
    case 0: 
      // Pointer to the selected parameter, its maximum value, and minimum value
      uint8_t *paramPtr1 = NULL;
 8001278:	2300      	movs	r3, #0
 800127a:	61fb      	str	r3, [r7, #28]
      uint8_t maxValue1 = 0;    
 800127c:	2300      	movs	r3, #0
 800127e:	76fb      	strb	r3, [r7, #27]
      uint8_t minValue1 = 0;  
 8001280:	2300      	movs	r3, #0
 8001282:	76bb      	strb	r3, [r7, #26]

      // Determine the parameter to increment based on the current selection
      switch (system_state.time_setup_cursor)
 8001284:	4b88      	ldr	r3, [pc, #544]	@ (80014a8 <System_Time_Setup_Mode_Handle+0x25c>)
 8001286:	789b      	ldrb	r3, [r3, #2]
 8001288:	2b05      	cmp	r3, #5
 800128a:	d839      	bhi.n	8001300 <System_Time_Setup_Mode_Handle+0xb4>
 800128c:	a201      	add	r2, pc, #4	@ (adr r2, 8001294 <System_Time_Setup_Mode_Handle+0x48>)
 800128e:	f852 f023 	ldr.w	pc, [r2, r3, lsl #2]
 8001292:	bf00      	nop
 8001294:	080012ad 	.word	0x080012ad
 8001298:	080012bb 	.word	0x080012bb
 800129c:	080012c9 	.word	0x080012c9
 80012a0:	080012d7 	.word	0x080012d7
 80012a4:	080012e5 	.word	0x080012e5
 80012a8:	080012f3 	.word	0x080012f3
      {
        case TIME_MINUTE:  paramPtr1 = &time_setup_data.minute;  maxValue1 = 59; minValue1 = 0; break;
 80012ac:	4b7f      	ldr	r3, [pc, #508]	@ (80014ac <System_Time_Setup_Mode_Handle+0x260>)
 80012ae:	61fb      	str	r3, [r7, #28]
 80012b0:	233b      	movs	r3, #59	@ 0x3b
 80012b2:	76fb      	strb	r3, [r7, #27]
 80012b4:	2300      	movs	r3, #0
 80012b6:	76bb      	strb	r3, [r7, #26]
 80012b8:	e023      	b.n	8001302 <System_Time_Setup_Mode_Handle+0xb6>
        case TIME_HOUR:    paramPtr1 = &time_setup_data.hour;    maxValue1 = 23; minValue1 = 0; break;
 80012ba:	4b7d      	ldr	r3, [pc, #500]	@ (80014b0 <System_Time_Setup_Mode_Handle+0x264>)
 80012bc:	61fb      	str	r3, [r7, #28]
 80012be:	2317      	movs	r3, #23
 80012c0:	76fb      	strb	r3, [r7, #27]
 80012c2:	2300      	movs	r3, #0
 80012c4:	76bb      	strb	r3, [r7, #26]
 80012c6:	e01c      	b.n	8001302 <System_Time_Setup_Mode_Handle+0xb6>
        case TIME_DOW:     paramPtr1 = &time_setup_data.dow;     maxValue1 = 7;  minValue1 = 1; break;
 80012c8:	4b7a      	ldr	r3, [pc, #488]	@ (80014b4 <System_Time_Setup_Mode_Handle+0x268>)
 80012ca:	61fb      	str	r3, [r7, #28]
 80012cc:	2307      	movs	r3, #7
 80012ce:	76fb      	strb	r3, [r7, #27]
 80012d0:	2301      	movs	r3, #1
 80012d2:	76bb      	strb	r3, [r7, #26]
 80012d4:	e015      	b.n	8001302 <System_Time_Setup_Mode_Handle+0xb6>
        case TIME_DOM:     paramPtr1 = &time_setup_data.dom;     maxValue1 = 31; minValue1 = 1; break;
 80012d6:	4b78      	ldr	r3, [pc, #480]	@ (80014b8 <System_Time_Setup_Mode_Handle+0x26c>)
 80012d8:	61fb      	str	r3, [r7, #28]
 80012da:	231f      	movs	r3, #31
 80012dc:	76fb      	strb	r3, [r7, #27]
 80012de:	2301      	movs	r3, #1
 80012e0:	76bb      	strb	r3, [r7, #26]
 80012e2:	e00e      	b.n	8001302 <System_Time_Setup_Mode_Handle+0xb6>
        case TIME_MONTH:   paramPtr1 = &time_setup_data.month;   maxValue1 = 12; minValue1 = 1; break;
 80012e4:	4b75      	ldr	r3, [pc, #468]	@ (80014bc <System_Time_Setup_Mode_Handle+0x270>)
 80012e6:	61fb      	str	r3, [r7, #28]
 80012e8:	230c      	movs	r3, #12
 80012ea:	76fb      	strb	r3, [r7, #27]
 80012ec:	2301      	movs	r3, #1
 80012ee:	76bb      	strb	r3, [r7, #26]
 80012f0:	e007      	b.n	8001302 <System_Time_Setup_Mode_Handle+0xb6>
        case TIME_YEAR:    paramPtr1 = &time_setup_data.year;    maxValue1 = 99; minValue1 = 0; break;
 80012f2:	4b73      	ldr	r3, [pc, #460]	@ (80014c0 <System_Time_Setup_Mode_Handle+0x274>)
 80012f4:	61fb      	str	r3, [r7, #28]
 80012f6:	2363      	movs	r3, #99	@ 0x63
 80012f8:	76fb      	strb	r3, [r7, #27]
 80012fa:	2300      	movs	r3, #0
 80012fc:	76bb      	strb	r3, [r7, #26]
 80012fe:	e000      	b.n	8001302 <System_Time_Setup_Mode_Handle+0xb6>
        default: break;
 8001300:	bf00      	nop
      }

      // Check if the button is pressed or held
      if (button->press_flag) 
 8001302:	687b      	ldr	r3, [r7, #4]
 8001304:	7b5b      	ldrb	r3, [r3, #13]
 8001306:	b2db      	uxtb	r3, r3
 8001308:	2b00      	cmp	r3, #0
 800130a:	f000 80c2 	beq.w	8001492 <System_Time_Setup_Mode_Handle+0x246>
      {
        // Increment the selected parameter value once for a button press
        if (paramPtr1) 
 800130e:	69fb      	ldr	r3, [r7, #28]
 8001310:	2b00      	cmp	r3, #0
 8001312:	f000 80be 	beq.w	8001492 <System_Time_Setup_Mode_Handle+0x246>
        {
          // Increment the parameter value, wrapping around if necessary
          *paramPtr1 = (*paramPtr1 < maxValue1) ? (*paramPtr1 + 1) : minValue1;
 8001316:	69fb      	ldr	r3, [r7, #28]
 8001318:	781b      	ldrb	r3, [r3, #0]
 800131a:	7efa      	ldrb	r2, [r7, #27]
 800131c:	429a      	cmp	r2, r3
 800131e:	d904      	bls.n	800132a <System_Time_Setup_Mode_Handle+0xde>
 8001320:	69fb      	ldr	r3, [r7, #28]
 8001322:	781b      	ldrb	r3, [r3, #0]
 8001324:	3301      	adds	r3, #1
 8001326:	b2db      	uxtb	r3, r3
 8001328:	e000      	b.n	800132c <System_Time_Setup_Mode_Handle+0xe0>
 800132a:	7ebb      	ldrb	r3, [r7, #26]
 800132c:	69fa      	ldr	r2, [r7, #28]
 800132e:	7013      	strb	r3, [r2, #0]

      //     // Update the start tick for the next hold cycle
      //     startTick1 = HAL_GetTick();
      //   }
      // } 
      break;
 8001330:	e0af      	b.n	8001492 <System_Time_Setup_Mode_Handle+0x246>
    
      // Button 1: If pressed, decrement the selected parameter; if held, do nothing (reserved for future use)
      case 1: 
        // Pointer to the selected parameter, its maximum value, and minimum value
        uint8_t *paramPtr2 = NULL;
 8001332:	2300      	movs	r3, #0
 8001334:	617b      	str	r3, [r7, #20]
        uint8_t maxValue2 = 0;    
 8001336:	2300      	movs	r3, #0
 8001338:	74fb      	strb	r3, [r7, #19]
        uint8_t minValue2 = 0;  
 800133a:	2300      	movs	r3, #0
 800133c:	74bb      	strb	r3, [r7, #18]

        // Determine the parameter to decrement based on the current selection
        switch (system_state.time_setup_cursor)
 800133e:	4b5a      	ldr	r3, [pc, #360]	@ (80014a8 <System_Time_Setup_Mode_Handle+0x25c>)
 8001340:	789b      	ldrb	r3, [r3, #2]
 8001342:	2b05      	cmp	r3, #5
 8001344:	d838      	bhi.n	80013b8 <System_Time_Setup_Mode_Handle+0x16c>
 8001346:	a201      	add	r2, pc, #4	@ (adr r2, 800134c <System_Time_Setup_Mode_Handle+0x100>)
 8001348:	f852 f023 	ldr.w	pc, [r2, r3, lsl #2]
 800134c:	08001365 	.word	0x08001365
 8001350:	08001373 	.word	0x08001373
 8001354:	08001381 	.word	0x08001381
 8001358:	0800138f 	.word	0x0800138f
 800135c:	0800139d 	.word	0x0800139d
 8001360:	080013ab 	.word	0x080013ab
        {
          case TIME_MINUTE:  paramPtr2 = &time_setup_data.minute;  maxValue2 = 59; minValue2 = 0; break;
 8001364:	4b51      	ldr	r3, [pc, #324]	@ (80014ac <System_Time_Setup_Mode_Handle+0x260>)
 8001366:	617b      	str	r3, [r7, #20]
 8001368:	233b      	movs	r3, #59	@ 0x3b
 800136a:	74fb      	strb	r3, [r7, #19]
 800136c:	2300      	movs	r3, #0
 800136e:	74bb      	strb	r3, [r7, #18]
 8001370:	e023      	b.n	80013ba <System_Time_Setup_Mode_Handle+0x16e>
          case TIME_HOUR:    paramPtr2 = &time_setup_data.hour;    maxValue2 = 23; minValue2 = 0; break;
 8001372:	4b4f      	ldr	r3, [pc, #316]	@ (80014b0 <System_Time_Setup_Mode_Handle+0x264>)
 8001374:	617b      	str	r3, [r7, #20]
 8001376:	2317      	movs	r3, #23
 8001378:	74fb      	strb	r3, [r7, #19]
 800137a:	2300      	movs	r3, #0
 800137c:	74bb      	strb	r3, [r7, #18]
 800137e:	e01c      	b.n	80013ba <System_Time_Setup_Mode_Handle+0x16e>
          case TIME_DOW:     paramPtr2 = &time_setup_data.dow;     maxValue2 = 7;  minValue2 = 1; break;
 8001380:	4b4c      	ldr	r3, [pc, #304]	@ (80014b4 <System_Time_Setup_Mode_Handle+0x268>)
 8001382:	617b      	str	r3, [r7, #20]
 8001384:	2307      	movs	r3, #7
 8001386:	74fb      	strb	r3, [r7, #19]
 8001388:	2301      	movs	r3, #1
 800138a:	74bb      	strb	r3, [r7, #18]
 800138c:	e015      	b.n	80013ba <System_Time_Setup_Mode_Handle+0x16e>
          case TIME_DOM:     paramPtr2 = &time_setup_data.dom;     maxValue2 = 31; minValue2 = 1; break;
 800138e:	4b4a      	ldr	r3, [pc, #296]	@ (80014b8 <System_Time_Setup_Mode_Handle+0x26c>)
 8001390:	617b      	str	r3, [r7, #20]
 8001392:	231f      	movs	r3, #31
 8001394:	74fb      	strb	r3, [r7, #19]
 8001396:	2301      	movs	r3, #1
 8001398:	74bb      	strb	r3, [r7, #18]
 800139a:	e00e      	b.n	80013ba <System_Time_Setup_Mode_Handle+0x16e>
          case TIME_MONTH:   paramPtr2 = &time_setup_data.month;   maxValue2 = 12; minValue2 = 1; break;
 800139c:	4b47      	ldr	r3, [pc, #284]	@ (80014bc <System_Time_Setup_Mode_Handle+0x270>)
 800139e:	617b      	str	r3, [r7, #20]
 80013a0:	230c      	movs	r3, #12
 80013a2:	74fb      	strb	r3, [r7, #19]
 80013a4:	2301      	movs	r3, #1
 80013a6:	74bb      	strb	r3, [r7, #18]
 80013a8:	e007      	b.n	80013ba <System_Time_Setup_Mode_Handle+0x16e>
          case TIME_YEAR:    paramPtr2 = &time_setup_data.year;    maxValue2 = 99; minValue2 = 0; break;
 80013aa:	4b45      	ldr	r3, [pc, #276]	@ (80014c0 <System_Time_Setup_Mode_Handle+0x274>)
 80013ac:	617b      	str	r3, [r7, #20]
 80013ae:	2363      	movs	r3, #99	@ 0x63
 80013b0:	74fb      	strb	r3, [r7, #19]
 80013b2:	2300      	movs	r3, #0
 80013b4:	74bb      	strb	r3, [r7, #18]
 80013b6:	e000      	b.n	80013ba <System_Time_Setup_Mode_Handle+0x16e>
          default: break;
 80013b8:	bf00      	nop
        }

        // Check if the button is pressed or held
        if (button->press_flag) 
 80013ba:	687b      	ldr	r3, [r7, #4]
 80013bc:	7b5b      	ldrb	r3, [r3, #13]
 80013be:	b2db      	uxtb	r3, r3
 80013c0:	2b00      	cmp	r3, #0
 80013c2:	d068      	beq.n	8001496 <System_Time_Setup_Mode_Handle+0x24a>
        {
          // Decrement the selected parameter value once for a button press
          if (paramPtr2) 
 80013c4:	697b      	ldr	r3, [r7, #20]
 80013c6:	2b00      	cmp	r3, #0
 80013c8:	d065      	beq.n	8001496 <System_Time_Setup_Mode_Handle+0x24a>
          {
            // Decrement the parameter value, wrapping around if necessary
            *paramPtr2 = (*paramPtr2 > minValue2) ? (*paramPtr2 - 1) : maxValue2;
 80013ca:	697b      	ldr	r3, [r7, #20]
 80013cc:	781b      	ldrb	r3, [r3, #0]
 80013ce:	7cba      	ldrb	r2, [r7, #18]
 80013d0:	429a      	cmp	r2, r3
 80013d2:	d204      	bcs.n	80013de <System_Time_Setup_Mode_Handle+0x192>
 80013d4:	697b      	ldr	r3, [r7, #20]
 80013d6:	781b      	ldrb	r3, [r3, #0]
 80013d8:	3b01      	subs	r3, #1
 80013da:	b2db      	uxtb	r3, r3
 80013dc:	e000      	b.n	80013e0 <System_Time_Setup_Mode_Handle+0x194>
 80013de:	7cfb      	ldrb	r3, [r7, #19]
 80013e0:	697a      	ldr	r2, [r7, #20]
 80013e2:	7013      	strb	r3, [r2, #0]

        //     // Update the start tick for the next hold cycle
        //     startTick2 = HAL_GetTick();
        //   }
        // } 
        break;
 80013e4:	e057      	b.n	8001496 <System_Time_Setup_Mode_Handle+0x24a>

    // Button 2: If pressed, set the time using the current parameter values; if held, do nothing (reserved for future use)
    case 2: 
      // If the button is pressed, move to the previous parameter field, wrapping around if necessary
      if (button->press_flag)
 80013e6:	687b      	ldr	r3, [r7, #4]
 80013e8:	7b5b      	ldrb	r3, [r3, #13]
 80013ea:	b2db      	uxtb	r3, r3
 80013ec:	2b00      	cmp	r3, #0
 80013ee:	d015      	beq.n	800141c <System_Time_Setup_Mode_Handle+0x1d0>
      {
        // Set the time using the current parameter values
        Time_Init
 80013f0:	4b2e      	ldr	r3, [pc, #184]	@ (80014ac <System_Time_Setup_Mode_Handle+0x260>)
 80013f2:	7818      	ldrb	r0, [r3, #0]
 80013f4:	4b2d      	ldr	r3, [pc, #180]	@ (80014ac <System_Time_Setup_Mode_Handle+0x260>)
 80013f6:	785c      	ldrb	r4, [r3, #1]
 80013f8:	4b2c      	ldr	r3, [pc, #176]	@ (80014ac <System_Time_Setup_Mode_Handle+0x260>)
 80013fa:	789d      	ldrb	r5, [r3, #2]
 80013fc:	4b2b      	ldr	r3, [pc, #172]	@ (80014ac <System_Time_Setup_Mode_Handle+0x260>)
 80013fe:	78db      	ldrb	r3, [r3, #3]
 8001400:	4a2a      	ldr	r2, [pc, #168]	@ (80014ac <System_Time_Setup_Mode_Handle+0x260>)
 8001402:	7912      	ldrb	r2, [r2, #4]
 8001404:	4929      	ldr	r1, [pc, #164]	@ (80014ac <System_Time_Setup_Mode_Handle+0x260>)
 8001406:	7949      	ldrb	r1, [r1, #5]
 8001408:	9102      	str	r1, [sp, #8]
 800140a:	9201      	str	r2, [sp, #4]
 800140c:	9300      	str	r3, [sp, #0]
 800140e:	462b      	mov	r3, r5
 8001410:	4622      	mov	r2, r4
 8001412:	4601      	mov	r1, r0
 8001414:	2000      	movs	r0, #0
 8001416:	f7ff fafb 	bl	8000a10 <Time_Init>
      // If the button is held down, do nothing (reserved for future use)
      else if (button->hold_flag) 
      {
        // Reserved
      }
      break;
 800141a:	e041      	b.n	80014a0 <System_Time_Setup_Mode_Handle+0x254>
      else if (button->hold_flag) 
 800141c:	687b      	ldr	r3, [r7, #4]
 800141e:	7b9b      	ldrb	r3, [r3, #14]
      break;
 8001420:	e03e      	b.n	80014a0 <System_Time_Setup_Mode_Handle+0x254>

    // Button 3: If pressed, move to the next field; if held, do nothing (reserved for future use)
    case 3: 
      // If the button is pressed, move to the next parameter field, wrapping around if necessary
      if(button->press_flag)
 8001422:	687b      	ldr	r3, [r7, #4]
 8001424:	7b5b      	ldrb	r3, [r3, #13]
 8001426:	b2db      	uxtb	r3, r3
 8001428:	2b00      	cmp	r3, #0
 800142a:	d036      	beq.n	800149a <System_Time_Setup_Mode_Handle+0x24e>
      {
        system_state.time_setup_cursor = (system_state.time_setup_cursor == TIME_YEAR) ? TIME_MINUTE : (system_state.time_setup_cursor + 1);
 800142c:	4b1e      	ldr	r3, [pc, #120]	@ (80014a8 <System_Time_Setup_Mode_Handle+0x25c>)
 800142e:	789b      	ldrb	r3, [r3, #2]
 8001430:	2b05      	cmp	r3, #5
 8001432:	d004      	beq.n	800143e <System_Time_Setup_Mode_Handle+0x1f2>
 8001434:	4b1c      	ldr	r3, [pc, #112]	@ (80014a8 <System_Time_Setup_Mode_Handle+0x25c>)
 8001436:	789b      	ldrb	r3, [r3, #2]
 8001438:	3301      	adds	r3, #1
 800143a:	b2db      	uxtb	r3, r3
 800143c:	e000      	b.n	8001440 <System_Time_Setup_Mode_Handle+0x1f4>
 800143e:	2300      	movs	r3, #0
 8001440:	4a19      	ldr	r2, [pc, #100]	@ (80014a8 <System_Time_Setup_Mode_Handle+0x25c>)
 8001442:	7093      	strb	r3, [r2, #2]
      //     system_param_data.month, 
      //     system_param_data.year
      //   );

      //   button->latch = true
      break;
 8001444:	e029      	b.n	800149a <System_Time_Setup_Mode_Handle+0x24e>

    // Button 4: If pressed, cycle through the system modes; if held, do nothing (reserved for future use)
    case 4:
      // If pressed, cycle through the time system modes, but the temporary setting data is still retained (avoid accidental press)
      if (button->press_flag)
 8001446:	687b      	ldr	r3, [r7, #4]
 8001448:	7b5b      	ldrb	r3, [r3, #13]
 800144a:	b2db      	uxtb	r3, r3
 800144c:	2b00      	cmp	r3, #0
 800144e:	d026      	beq.n	800149e <System_Time_Setup_Mode_Handle+0x252>
      {
        // system_state.mode = (system_state.mode < (SYSTEM_MODE_NUM - 1)) ? (system_state.mode + 1) : 0;

        // Cycle through the next system mode
        system_state.mode = ALARM_SETUP_MODE;
 8001450:	4b15      	ldr	r3, [pc, #84]	@ (80014a8 <System_Time_Setup_Mode_Handle+0x25c>)
 8001452:	2202      	movs	r2, #2
 8001454:	701a      	strb	r2, [r3, #0]

        // Set the system past mode to time setup mode
        system_state.past_mode = TIME_SETUP_MODE;
 8001456:	4b14      	ldr	r3, [pc, #80]	@ (80014a8 <System_Time_Setup_Mode_Handle+0x25c>)
 8001458:	2201      	movs	r2, #1
 800145a:	705a      	strb	r2, [r3, #1]

        // Set the Alarm Setup data to the current time values for convenience
        alarm_setup_data =
        (ALARM_SETUP_DATA)
        {
          time_get_data.minute,       // Minutes: 0-59
 800145c:	4b19      	ldr	r3, [pc, #100]	@ (80014c4 <System_Time_Setup_Mode_Handle+0x278>)
 800145e:	785b      	ldrb	r3, [r3, #1]
 8001460:	b2d8      	uxtb	r0, r3
          time_get_data.hour,         // Hours: 0-23
 8001462:	4b18      	ldr	r3, [pc, #96]	@ (80014c4 <System_Time_Setup_Mode_Handle+0x278>)
 8001464:	789b      	ldrb	r3, [r3, #2]
 8001466:	b2d9      	uxtb	r1, r3
          NOT_USED_MODE,              // Select: DAY_OF_WEEK_MODE, DATE_OF_MONTH_MODE, NOT_USED_MODE         
          time_get_data.dayofweek,    // Day of the week: 1-7 (1 = Sunday, 2 = Monday, ..., 7 = Saturday)
 8001468:	4b16      	ldr	r3, [pc, #88]	@ (80014c4 <System_Time_Setup_Mode_Handle+0x278>)
 800146a:	78db      	ldrb	r3, [r3, #3]
 800146c:	b2da      	uxtb	r2, r3
        alarm_setup_data =
 800146e:	4b16      	ldr	r3, [pc, #88]	@ (80014c8 <System_Time_Setup_Mode_Handle+0x27c>)
 8001470:	7018      	strb	r0, [r3, #0]
 8001472:	4b15      	ldr	r3, [pc, #84]	@ (80014c8 <System_Time_Setup_Mode_Handle+0x27c>)
 8001474:	7059      	strb	r1, [r3, #1]
 8001476:	4b14      	ldr	r3, [pc, #80]	@ (80014c8 <System_Time_Setup_Mode_Handle+0x27c>)
 8001478:	2102      	movs	r1, #2
 800147a:	7099      	strb	r1, [r3, #2]
 800147c:	4b12      	ldr	r3, [pc, #72]	@ (80014c8 <System_Time_Setup_Mode_Handle+0x27c>)
 800147e:	70da      	strb	r2, [r3, #3]
 8001480:	4b11      	ldr	r3, [pc, #68]	@ (80014c8 <System_Time_Setup_Mode_Handle+0x27c>)
 8001482:	2201      	movs	r2, #1
 8001484:	711a      	strb	r2, [r3, #4]
          true                       	// Alarm ON/OFF state: 1 = ON, 0 = OFF
        };
        
        // Reset the cursor for the Alarm Setup mode to the first parameter (minute)
        system_state.alarm_setup_cursor = ALARM_MINUTE;
 8001486:	4b08      	ldr	r3, [pc, #32]	@ (80014a8 <System_Time_Setup_Mode_Handle+0x25c>)
 8001488:	2200      	movs	r2, #0
 800148a:	70da      	strb	r2, [r3, #3]
      //     NOT_USED_MODE,              // Select: DAY_OF_WEEK_MODE, DATE_OF_MONTH_MODE, NOT_USED_MODE
      //     time_get_data.dayofweek,    // Day of the week: 1-7 (1 = Sunday, 2 = Monday, ..., 7 = Saturday), or Date of the month: 1-31
      //     true                        // true = ON, false = OFF
      //   };
      // }
      break;
 800148c:	e007      	b.n	800149e <System_Time_Setup_Mode_Handle+0x252>

    default: 
      break;
 800148e:	bf00      	nop
 8001490:	e006      	b.n	80014a0 <System_Time_Setup_Mode_Handle+0x254>
      break;
 8001492:	bf00      	nop
 8001494:	e004      	b.n	80014a0 <System_Time_Setup_Mode_Handle+0x254>
        break;
 8001496:	bf00      	nop
 8001498:	e002      	b.n	80014a0 <System_Time_Setup_Mode_Handle+0x254>
      break;
 800149a:	bf00      	nop
 800149c:	e000      	b.n	80014a0 <System_Time_Setup_Mode_Handle+0x254>
      break;
 800149e:	bf00      	nop
  }
}
 80014a0:	bf00      	nop
 80014a2:	3720      	adds	r7, #32
 80014a4:	46bd      	mov	sp, r7
 80014a6:	bdb0      	pop	{r4, r5, r7, pc}
 80014a8:	200000fc 	.word	0x200000fc
 80014ac:	20000104 	.word	0x20000104
 80014b0:	20000105 	.word	0x20000105
 80014b4:	20000106 	.word	0x20000106
 80014b8:	20000107 	.word	0x20000107
 80014bc:	20000108 	.word	0x20000108
 80014c0:	20000109 	.word	0x20000109
 80014c4:	20000114 	.word	0x20000114
 80014c8:	2000010c 	.word	0x2000010c

080014cc <System_Alarm_Setup_Mode_Handle>:
 * @brief  Handles the alarm setup mode based on button actions.
 * @param  button: Pointer to the BUTTON structure containing button state and index.
 * @retval None
 */
void System_Alarm_Setup_Mode_Handle (BUTTON_DATA *button)
{ 
 80014cc:	b5b0      	push	{r4, r5, r7, lr}
 80014ce:	b08a      	sub	sp, #40	@ 0x28
 80014d0:	af04      	add	r7, sp, #16
 80014d2:	6078      	str	r0, [r7, #4]
  switch (button->index) 
 80014d4:	687b      	ldr	r3, [r7, #4]
 80014d6:	799b      	ldrb	r3, [r3, #6]
 80014d8:	2b04      	cmp	r3, #4
 80014da:	f200 8178 	bhi.w	80017ce <System_Alarm_Setup_Mode_Handle+0x302>
 80014de:	a201      	add	r2, pc, #4	@ (adr r2, 80014e4 <System_Alarm_Setup_Mode_Handle+0x18>)
 80014e0:	f852 f023 	ldr.w	pc, [r2, r3, lsl #2]
 80014e4:	080014f9 	.word	0x080014f9
 80014e8:	080015bd 	.word	0x080015bd
 80014ec:	080016a9 	.word	0x080016a9
 80014f0:	08001771 	.word	0x08001771
 80014f4:	080017b1 	.word	0x080017b1
  {
    // Button 0: If pressed, increment the selected parameter; if held, do nothing (reserved for future use)
    case 0: 
      // Pointer to the selected parameter, its maximum value, and minimum value
      uint8_t *paramPtr1 = NULL;
 80014f8:	2300      	movs	r3, #0
 80014fa:	617b      	str	r3, [r7, #20]
      uint8_t maxValue1 = 0;    
 80014fc:	2300      	movs	r3, #0
 80014fe:	74fb      	strb	r3, [r7, #19]
      uint8_t minValue1 = 0;  
 8001500:	2300      	movs	r3, #0
 8001502:	74bb      	strb	r3, [r7, #18]

      // Determine the parameter to increment based on the current selection
      switch (system_state.alarm_setup_cursor)
 8001504:	4ba1      	ldr	r3, [pc, #644]	@ (800178c <System_Alarm_Setup_Mode_Handle+0x2c0>)
 8001506:	78db      	ldrb	r3, [r3, #3]
 8001508:	2b04      	cmp	r3, #4
 800150a:	d839      	bhi.n	8001580 <System_Alarm_Setup_Mode_Handle+0xb4>
 800150c:	a201      	add	r2, pc, #4	@ (adr r2, 8001514 <System_Alarm_Setup_Mode_Handle+0x48>)
 800150e:	f852 f023 	ldr.w	pc, [r2, r3, lsl #2]
 8001512:	bf00      	nop
 8001514:	08001529 	.word	0x08001529
 8001518:	08001537 	.word	0x08001537
 800151c:	08001545 	.word	0x08001545
 8001520:	08001553 	.word	0x08001553
 8001524:	08001561 	.word	0x08001561
      {
        case ALARM_MINUTE:  paramPtr1 = &alarm_setup_data.minute;  maxValue1 = 59; minValue1 = 0; break;
 8001528:	4b99      	ldr	r3, [pc, #612]	@ (8001790 <System_Alarm_Setup_Mode_Handle+0x2c4>)
 800152a:	617b      	str	r3, [r7, #20]
 800152c:	233b      	movs	r3, #59	@ 0x3b
 800152e:	74fb      	strb	r3, [r7, #19]
 8001530:	2300      	movs	r3, #0
 8001532:	74bb      	strb	r3, [r7, #18]
 8001534:	e025      	b.n	8001582 <System_Alarm_Setup_Mode_Handle+0xb6>
        case ALARM_HOUR:    paramPtr1 = &alarm_setup_data.hour;    maxValue1 = 23; minValue1 = 0; break;
 8001536:	4b97      	ldr	r3, [pc, #604]	@ (8001794 <System_Alarm_Setup_Mode_Handle+0x2c8>)
 8001538:	617b      	str	r3, [r7, #20]
 800153a:	2317      	movs	r3, #23
 800153c:	74fb      	strb	r3, [r7, #19]
 800153e:	2300      	movs	r3, #0
 8001540:	74bb      	strb	r3, [r7, #18]
 8001542:	e01e      	b.n	8001582 <System_Alarm_Setup_Mode_Handle+0xb6>
        case ALARM_DY_DT:   paramPtr1 = (uint8_t *)&alarm_setup_data.dy_dt; maxValue1 = 2; minValue1 = 0; break;
 8001544:	4b94      	ldr	r3, [pc, #592]	@ (8001798 <System_Alarm_Setup_Mode_Handle+0x2cc>)
 8001546:	617b      	str	r3, [r7, #20]
 8001548:	2302      	movs	r3, #2
 800154a:	74fb      	strb	r3, [r7, #19]
 800154c:	2300      	movs	r3, #0
 800154e:	74bb      	strb	r3, [r7, #18]
 8001550:	e017      	b.n	8001582 <System_Alarm_Setup_Mode_Handle+0xb6>
        case ALARM_DOW_DOM: paramPtr1 = &alarm_setup_data.dow_dom; maxValue1 = 31; minValue1 = 1; break;
 8001552:	4b92      	ldr	r3, [pc, #584]	@ (800179c <System_Alarm_Setup_Mode_Handle+0x2d0>)
 8001554:	617b      	str	r3, [r7, #20]
 8001556:	231f      	movs	r3, #31
 8001558:	74fb      	strb	r3, [r7, #19]
 800155a:	2301      	movs	r3, #1
 800155c:	74bb      	strb	r3, [r7, #18]
 800155e:	e010      	b.n	8001582 <System_Alarm_Setup_Mode_Handle+0xb6>
        case ALARM_ON_OFF:  alarm_setup_data.on_off = !alarm_setup_data.on_off;                   break;
 8001560:	4b8b      	ldr	r3, [pc, #556]	@ (8001790 <System_Alarm_Setup_Mode_Handle+0x2c4>)
 8001562:	791b      	ldrb	r3, [r3, #4]
 8001564:	2b00      	cmp	r3, #0
 8001566:	bf14      	ite	ne
 8001568:	2301      	movne	r3, #1
 800156a:	2300      	moveq	r3, #0
 800156c:	b2db      	uxtb	r3, r3
 800156e:	f083 0301 	eor.w	r3, r3, #1
 8001572:	b2db      	uxtb	r3, r3
 8001574:	f003 0301 	and.w	r3, r3, #1
 8001578:	b2da      	uxtb	r2, r3
 800157a:	4b85      	ldr	r3, [pc, #532]	@ (8001790 <System_Alarm_Setup_Mode_Handle+0x2c4>)
 800157c:	711a      	strb	r2, [r3, #4]
 800157e:	e000      	b.n	8001582 <System_Alarm_Setup_Mode_Handle+0xb6>
        default: break;
 8001580:	bf00      	nop
      }

      if (system_state.alarm_setup_cursor == ALARM_ON_OFF)
 8001582:	4b82      	ldr	r3, [pc, #520]	@ (800178c <System_Alarm_Setup_Mode_Handle+0x2c0>)
 8001584:	78db      	ldrb	r3, [r3, #3]
 8001586:	2b04      	cmp	r3, #4
 8001588:	f000 8123 	beq.w	80017d2 <System_Alarm_Setup_Mode_Handle+0x306>
      {
        break;
      }

      // Check if the button is pressed or held
      if (button->press_flag) 
 800158c:	687b      	ldr	r3, [r7, #4]
 800158e:	7b5b      	ldrb	r3, [r3, #13]
 8001590:	b2db      	uxtb	r3, r3
 8001592:	2b00      	cmp	r3, #0
 8001594:	f000 811f 	beq.w	80017d6 <System_Alarm_Setup_Mode_Handle+0x30a>
      {
        // Increment the selected parameter value once for a button press
        if (paramPtr1) 
 8001598:	697b      	ldr	r3, [r7, #20]
 800159a:	2b00      	cmp	r3, #0
 800159c:	f000 811b 	beq.w	80017d6 <System_Alarm_Setup_Mode_Handle+0x30a>
        {
          // Increment the parameter value, wrapping around if necessary
          *paramPtr1 = (*paramPtr1 < maxValue1) ? (*paramPtr1 + 1) : minValue1;
 80015a0:	697b      	ldr	r3, [r7, #20]
 80015a2:	781b      	ldrb	r3, [r3, #0]
 80015a4:	7cfa      	ldrb	r2, [r7, #19]
 80015a6:	429a      	cmp	r2, r3
 80015a8:	d904      	bls.n	80015b4 <System_Alarm_Setup_Mode_Handle+0xe8>
 80015aa:	697b      	ldr	r3, [r7, #20]
 80015ac:	781b      	ldrb	r3, [r3, #0]
 80015ae:	3301      	adds	r3, #1
 80015b0:	b2db      	uxtb	r3, r3
 80015b2:	e000      	b.n	80015b6 <System_Alarm_Setup_Mode_Handle+0xea>
 80015b4:	7cbb      	ldrb	r3, [r7, #18]
 80015b6:	697a      	ldr	r2, [r7, #20]
 80015b8:	7013      	strb	r3, [r2, #0]
      //   }

      //   // Update the start tick for the next hold cycle
      //   startTick1 = HAL_GetTick();
      // } 
      break;
 80015ba:	e10c      	b.n	80017d6 <System_Alarm_Setup_Mode_Handle+0x30a>

      // Button 1: If pressed, decrement the selected parameter; if held, do nothing (reserved for future use)
      case 1: 
        // Pointer to the selected parameter, its maximum value, and minimum value
        uint8_t *paramPtr2 = NULL;
 80015bc:	2300      	movs	r3, #0
 80015be:	60fb      	str	r3, [r7, #12]
        uint8_t maxValue2 = 0;    
 80015c0:	2300      	movs	r3, #0
 80015c2:	72fb      	strb	r3, [r7, #11]
        uint8_t minValue2 = 0;  
 80015c4:	2300      	movs	r3, #0
 80015c6:	72bb      	strb	r3, [r7, #10]

        // Determine the parameter to decrement based on the current selection
        switch (system_state.alarm_setup_cursor)
 80015c8:	4b70      	ldr	r3, [pc, #448]	@ (800178c <System_Alarm_Setup_Mode_Handle+0x2c0>)
 80015ca:	78db      	ldrb	r3, [r3, #3]
 80015cc:	2b04      	cmp	r3, #4
 80015ce:	d839      	bhi.n	8001644 <System_Alarm_Setup_Mode_Handle+0x178>
 80015d0:	a201      	add	r2, pc, #4	@ (adr r2, 80015d8 <System_Alarm_Setup_Mode_Handle+0x10c>)
 80015d2:	f852 f023 	ldr.w	pc, [r2, r3, lsl #2]
 80015d6:	bf00      	nop
 80015d8:	080015ed 	.word	0x080015ed
 80015dc:	080015fb 	.word	0x080015fb
 80015e0:	08001609 	.word	0x08001609
 80015e4:	08001617 	.word	0x08001617
 80015e8:	08001625 	.word	0x08001625
        {
          case ALARM_MINUTE:  paramPtr2 = &alarm_setup_data.minute;  maxValue2 = 59; minValue2 = 0; break;
 80015ec:	4b68      	ldr	r3, [pc, #416]	@ (8001790 <System_Alarm_Setup_Mode_Handle+0x2c4>)
 80015ee:	60fb      	str	r3, [r7, #12]
 80015f0:	233b      	movs	r3, #59	@ 0x3b
 80015f2:	72fb      	strb	r3, [r7, #11]
 80015f4:	2300      	movs	r3, #0
 80015f6:	72bb      	strb	r3, [r7, #10]
 80015f8:	e025      	b.n	8001646 <System_Alarm_Setup_Mode_Handle+0x17a>
          case ALARM_HOUR:    paramPtr2 = &alarm_setup_data.hour;    maxValue2 = 23; minValue2 = 0; break;
 80015fa:	4b66      	ldr	r3, [pc, #408]	@ (8001794 <System_Alarm_Setup_Mode_Handle+0x2c8>)
 80015fc:	60fb      	str	r3, [r7, #12]
 80015fe:	2317      	movs	r3, #23
 8001600:	72fb      	strb	r3, [r7, #11]
 8001602:	2300      	movs	r3, #0
 8001604:	72bb      	strb	r3, [r7, #10]
 8001606:	e01e      	b.n	8001646 <System_Alarm_Setup_Mode_Handle+0x17a>
          case ALARM_DY_DT:   paramPtr2 = (uint8_t *)&alarm_setup_data.dy_dt; maxValue2 = 2; minValue2 = 0; break;
 8001608:	4b63      	ldr	r3, [pc, #396]	@ (8001798 <System_Alarm_Setup_Mode_Handle+0x2cc>)
 800160a:	60fb      	str	r3, [r7, #12]
 800160c:	2302      	movs	r3, #2
 800160e:	72fb      	strb	r3, [r7, #11]
 8001610:	2300      	movs	r3, #0
 8001612:	72bb      	strb	r3, [r7, #10]
 8001614:	e017      	b.n	8001646 <System_Alarm_Setup_Mode_Handle+0x17a>
          case ALARM_DOW_DOM: paramPtr2 = &alarm_setup_data.dow_dom; maxValue2 = 31; minValue2 = 1; break;
 8001616:	4b61      	ldr	r3, [pc, #388]	@ (800179c <System_Alarm_Setup_Mode_Handle+0x2d0>)
 8001618:	60fb      	str	r3, [r7, #12]
 800161a:	231f      	movs	r3, #31
 800161c:	72fb      	strb	r3, [r7, #11]
 800161e:	2301      	movs	r3, #1
 8001620:	72bb      	strb	r3, [r7, #10]
 8001622:	e010      	b.n	8001646 <System_Alarm_Setup_Mode_Handle+0x17a>
          case ALARM_ON_OFF:  alarm_setup_data.on_off = !alarm_setup_data.on_off;                  break;
 8001624:	4b5a      	ldr	r3, [pc, #360]	@ (8001790 <System_Alarm_Setup_Mode_Handle+0x2c4>)
 8001626:	791b      	ldrb	r3, [r3, #4]
 8001628:	2b00      	cmp	r3, #0
 800162a:	bf14      	ite	ne
 800162c:	2301      	movne	r3, #1
 800162e:	2300      	moveq	r3, #0
 8001630:	b2db      	uxtb	r3, r3
 8001632:	f083 0301 	eor.w	r3, r3, #1
 8001636:	b2db      	uxtb	r3, r3
 8001638:	f003 0301 	and.w	r3, r3, #1
 800163c:	b2da      	uxtb	r2, r3
 800163e:	4b54      	ldr	r3, [pc, #336]	@ (8001790 <System_Alarm_Setup_Mode_Handle+0x2c4>)
 8001640:	711a      	strb	r2, [r3, #4]
 8001642:	e000      	b.n	8001646 <System_Alarm_Setup_Mode_Handle+0x17a>
          default: break;
 8001644:	bf00      	nop
        }

        // Check if the selected parameter is ON/OFF
        if (system_state.alarm_setup_cursor == ALARM_ON_OFF)
 8001646:	4b51      	ldr	r3, [pc, #324]	@ (800178c <System_Alarm_Setup_Mode_Handle+0x2c0>)
 8001648:	78db      	ldrb	r3, [r3, #3]
 800164a:	2b04      	cmp	r3, #4
 800164c:	f000 80c5 	beq.w	80017da <System_Alarm_Setup_Mode_Handle+0x30e>
        {
          break;
        }

        // Check if the button is pressed or held
        if (button->press_flag) 
 8001650:	687b      	ldr	r3, [r7, #4]
 8001652:	7b5b      	ldrb	r3, [r3, #13]
 8001654:	b2db      	uxtb	r3, r3
 8001656:	2b00      	cmp	r3, #0
 8001658:	f000 80c1 	beq.w	80017de <System_Alarm_Setup_Mode_Handle+0x312>
        {
          // Check if the selected parameter is ON/OFF
          if (system_state.alarm_setup_cursor == ALARM_ON_OFF)
 800165c:	4b4b      	ldr	r3, [pc, #300]	@ (800178c <System_Alarm_Setup_Mode_Handle+0x2c0>)
 800165e:	78db      	ldrb	r3, [r3, #3]
 8001660:	2b04      	cmp	r3, #4
 8001662:	d10f      	bne.n	8001684 <System_Alarm_Setup_Mode_Handle+0x1b8>
          {
            // Toggle the on/off state of the alarm
            alarm_setup_data.on_off = !alarm_setup_data.on_off;
 8001664:	4b4a      	ldr	r3, [pc, #296]	@ (8001790 <System_Alarm_Setup_Mode_Handle+0x2c4>)
 8001666:	791b      	ldrb	r3, [r3, #4]
 8001668:	2b00      	cmp	r3, #0
 800166a:	bf14      	ite	ne
 800166c:	2301      	movne	r3, #1
 800166e:	2300      	moveq	r3, #0
 8001670:	b2db      	uxtb	r3, r3
 8001672:	f083 0301 	eor.w	r3, r3, #1
 8001676:	b2db      	uxtb	r3, r3
 8001678:	f003 0301 	and.w	r3, r3, #1
 800167c:	b2da      	uxtb	r2, r3
 800167e:	4b44      	ldr	r3, [pc, #272]	@ (8001790 <System_Alarm_Setup_Mode_Handle+0x2c4>)
 8001680:	711a      	strb	r2, [r3, #4]

        //     // Update the start tick for the next hold cycle
        //     startTick2 = HAL_GetTick();
        //   }
        // } 
        break;
 8001682:	e0ac      	b.n	80017de <System_Alarm_Setup_Mode_Handle+0x312>
            if (paramPtr2) 
 8001684:	68fb      	ldr	r3, [r7, #12]
 8001686:	2b00      	cmp	r3, #0
 8001688:	f000 80a9 	beq.w	80017de <System_Alarm_Setup_Mode_Handle+0x312>
              *paramPtr2 = (*paramPtr2 > minValue2) ? (*paramPtr2 - 1) : maxValue2;
 800168c:	68fb      	ldr	r3, [r7, #12]
 800168e:	781b      	ldrb	r3, [r3, #0]
 8001690:	7aba      	ldrb	r2, [r7, #10]
 8001692:	429a      	cmp	r2, r3
 8001694:	d204      	bcs.n	80016a0 <System_Alarm_Setup_Mode_Handle+0x1d4>
 8001696:	68fb      	ldr	r3, [r7, #12]
 8001698:	781b      	ldrb	r3, [r3, #0]
 800169a:	3b01      	subs	r3, #1
 800169c:	b2db      	uxtb	r3, r3
 800169e:	e000      	b.n	80016a2 <System_Alarm_Setup_Mode_Handle+0x1d6>
 80016a0:	7afb      	ldrb	r3, [r7, #11]
 80016a2:	68fa      	ldr	r2, [r7, #12]
 80016a4:	7013      	strb	r3, [r2, #0]
        break;
 80016a6:	e09a      	b.n	80017de <System_Alarm_Setup_Mode_Handle+0x312>
    
    // Button 2: If pressed, save the alarm and return to default mode; if held, do nothing (reserved for future use)
    case 2:
      // If the button is pressed, save the alarm and return to default mode 
      if (button->press_flag)
 80016a8:	687b      	ldr	r3, [r7, #4]
 80016aa:	7b5b      	ldrb	r3, [r3, #13]
 80016ac:	b2db      	uxtb	r3, r3
 80016ae:	2b00      	cmp	r3, #0
 80016b0:	d05b      	beq.n	800176a <System_Alarm_Setup_Mode_Handle+0x29e>
      {
        // If the previous mode is Alarm View Mode
        // Use the system cursor instead to keep the alarm slot pointer unchanged
        if (system_state.past_mode == ALARM_VIEW_MODE)
 80016b2:	4b36      	ldr	r3, [pc, #216]	@ (800178c <System_Alarm_Setup_Mode_Handle+0x2c0>)
 80016b4:	785b      	ldrb	r3, [r3, #1]
 80016b6:	2b03      	cmp	r3, #3
 80016b8:	d124      	bne.n	8001704 <System_Alarm_Setup_Mode_Handle+0x238>
        {
          // Save the alarm to EEPROM and return to Default Mode
          //    void Alarm_Set (uint8_t sec, uint8_t min, uint8_t hour, uint8_t dow_dom, ALARM_DY_DT_MODE dy_dt, uint8_t on_off, uint8_t slot)
          Alarm_Set
 80016ba:	4b35      	ldr	r3, [pc, #212]	@ (8001790 <System_Alarm_Setup_Mode_Handle+0x2c4>)
 80016bc:	7818      	ldrb	r0, [r3, #0]
 80016be:	4b34      	ldr	r3, [pc, #208]	@ (8001790 <System_Alarm_Setup_Mode_Handle+0x2c4>)
 80016c0:	785c      	ldrb	r4, [r3, #1]
 80016c2:	4b33      	ldr	r3, [pc, #204]	@ (8001790 <System_Alarm_Setup_Mode_Handle+0x2c4>)
 80016c4:	78dd      	ldrb	r5, [r3, #3]
 80016c6:	4b32      	ldr	r3, [pc, #200]	@ (8001790 <System_Alarm_Setup_Mode_Handle+0x2c4>)
 80016c8:	789b      	ldrb	r3, [r3, #2]
 80016ca:	4a31      	ldr	r2, [pc, #196]	@ (8001790 <System_Alarm_Setup_Mode_Handle+0x2c4>)
 80016cc:	7912      	ldrb	r2, [r2, #4]
 80016ce:	492f      	ldr	r1, [pc, #188]	@ (800178c <System_Alarm_Setup_Mode_Handle+0x2c0>)
 80016d0:	7909      	ldrb	r1, [r1, #4]
 80016d2:	9102      	str	r1, [sp, #8]
 80016d4:	9201      	str	r2, [sp, #4]
 80016d6:	9300      	str	r3, [sp, #0]
 80016d8:	462b      	mov	r3, r5
 80016da:	4622      	mov	r2, r4
 80016dc:	4601      	mov	r1, r0
 80016de:	2000      	movs	r0, #0
 80016e0:	f7ff f9c2 	bl	8000a68 <Alarm_Set>
            alarm_setup_data.on_off,
            system_state.alarm_view_cursor         // Save the alarm at the address where the cursor points at in Alarm View Mode
          );

          // Update the newly set alarm data
          Alarm_Get(system_state.alarm_view_cursor, &alarm_get_data[system_state.alarm_view_cursor]);
 80016e4:	4b29      	ldr	r3, [pc, #164]	@ (800178c <System_Alarm_Setup_Mode_Handle+0x2c0>)
 80016e6:	791a      	ldrb	r2, [r3, #4]
 80016e8:	4b28      	ldr	r3, [pc, #160]	@ (800178c <System_Alarm_Setup_Mode_Handle+0x2c0>)
 80016ea:	791b      	ldrb	r3, [r3, #4]
 80016ec:	4619      	mov	r1, r3
 80016ee:	460b      	mov	r3, r1
 80016f0:	005b      	lsls	r3, r3, #1
 80016f2:	440b      	add	r3, r1
 80016f4:	005b      	lsls	r3, r3, #1
 80016f6:	492a      	ldr	r1, [pc, #168]	@ (80017a0 <System_Alarm_Setup_Mode_Handle+0x2d4>)
 80016f8:	440b      	add	r3, r1
 80016fa:	4619      	mov	r1, r3
 80016fc:	4610      	mov	r0, r2
 80016fe:	f7ff fa03 	bl	8000b08 <Alarm_Get>
      // If the button is held down, do nothing (reserved for future use)
      else if (button->hold_flag) 
      {
        // Reserved
      }
      break;
 8001702:	e071      	b.n	80017e8 <System_Alarm_Setup_Mode_Handle+0x31c>
          Alarm_Set
 8001704:	4b22      	ldr	r3, [pc, #136]	@ (8001790 <System_Alarm_Setup_Mode_Handle+0x2c4>)
 8001706:	7818      	ldrb	r0, [r3, #0]
 8001708:	4b21      	ldr	r3, [pc, #132]	@ (8001790 <System_Alarm_Setup_Mode_Handle+0x2c4>)
 800170a:	785c      	ldrb	r4, [r3, #1]
 800170c:	4b20      	ldr	r3, [pc, #128]	@ (8001790 <System_Alarm_Setup_Mode_Handle+0x2c4>)
 800170e:	78dd      	ldrb	r5, [r3, #3]
 8001710:	4b1f      	ldr	r3, [pc, #124]	@ (8001790 <System_Alarm_Setup_Mode_Handle+0x2c4>)
 8001712:	789b      	ldrb	r3, [r3, #2]
 8001714:	4a1e      	ldr	r2, [pc, #120]	@ (8001790 <System_Alarm_Setup_Mode_Handle+0x2c4>)
 8001716:	7912      	ldrb	r2, [r2, #4]
 8001718:	4922      	ldr	r1, [pc, #136]	@ (80017a4 <System_Alarm_Setup_Mode_Handle+0x2d8>)
 800171a:	7809      	ldrb	r1, [r1, #0]
 800171c:	9102      	str	r1, [sp, #8]
 800171e:	9201      	str	r2, [sp, #4]
 8001720:	9300      	str	r3, [sp, #0]
 8001722:	462b      	mov	r3, r5
 8001724:	4622      	mov	r2, r4
 8001726:	4601      	mov	r1, r0
 8001728:	2000      	movs	r0, #0
 800172a:	f7ff f99d 	bl	8000a68 <Alarm_Set>
          Alarm_Get(alarm_slot_ptr, &alarm_get_data[alarm_slot_ptr]);
 800172e:	4b1d      	ldr	r3, [pc, #116]	@ (80017a4 <System_Alarm_Setup_Mode_Handle+0x2d8>)
 8001730:	781a      	ldrb	r2, [r3, #0]
 8001732:	4b1c      	ldr	r3, [pc, #112]	@ (80017a4 <System_Alarm_Setup_Mode_Handle+0x2d8>)
 8001734:	781b      	ldrb	r3, [r3, #0]
 8001736:	4619      	mov	r1, r3
 8001738:	460b      	mov	r3, r1
 800173a:	005b      	lsls	r3, r3, #1
 800173c:	440b      	add	r3, r1
 800173e:	005b      	lsls	r3, r3, #1
 8001740:	4917      	ldr	r1, [pc, #92]	@ (80017a0 <System_Alarm_Setup_Mode_Handle+0x2d4>)
 8001742:	440b      	add	r3, r1
 8001744:	4619      	mov	r1, r3
 8001746:	4610      	mov	r0, r2
 8001748:	f7ff f9de 	bl	8000b08 <Alarm_Get>
          alarm_slot_ptr = (alarm_slot_ptr < ALARM_SLOT_NUM) ? (alarm_slot_ptr + 1) : 0;
 800174c:	4b15      	ldr	r3, [pc, #84]	@ (80017a4 <System_Alarm_Setup_Mode_Handle+0x2d8>)
 800174e:	781b      	ldrb	r3, [r3, #0]
 8001750:	2b09      	cmp	r3, #9
 8001752:	d804      	bhi.n	800175e <System_Alarm_Setup_Mode_Handle+0x292>
 8001754:	4b13      	ldr	r3, [pc, #76]	@ (80017a4 <System_Alarm_Setup_Mode_Handle+0x2d8>)
 8001756:	781b      	ldrb	r3, [r3, #0]
 8001758:	3301      	adds	r3, #1
 800175a:	b2db      	uxtb	r3, r3
 800175c:	e000      	b.n	8001760 <System_Alarm_Setup_Mode_Handle+0x294>
 800175e:	2300      	movs	r3, #0
 8001760:	4a10      	ldr	r2, [pc, #64]	@ (80017a4 <System_Alarm_Setup_Mode_Handle+0x2d8>)
 8001762:	7013      	strb	r3, [r2, #0]
          Alarm_Slot_Pointer_Set();
 8001764:	f7ff fa4e 	bl	8000c04 <Alarm_Slot_Pointer_Set>
      break;
 8001768:	e03e      	b.n	80017e8 <System_Alarm_Setup_Mode_Handle+0x31c>
      else if (button->hold_flag) 
 800176a:	687b      	ldr	r3, [r7, #4]
 800176c:	7b9b      	ldrb	r3, [r3, #14]
      break;
 800176e:	e03b      	b.n	80017e8 <System_Alarm_Setup_Mode_Handle+0x31c>

    // Button 3: If pressed, move to the next field; if held, do nothing (reserved for future use)
    case 3:
      // If the button is pressed, move to the next parameter field, wrapping around if necessary  
      if (button->press_flag)
 8001770:	687b      	ldr	r3, [r7, #4]
 8001772:	7b5b      	ldrb	r3, [r3, #13]
 8001774:	b2db      	uxtb	r3, r3
 8001776:	2b00      	cmp	r3, #0
 8001778:	d033      	beq.n	80017e2 <System_Alarm_Setup_Mode_Handle+0x316>
      {
        system_state.alarm_setup_cursor = (system_state.alarm_setup_cursor == ALARM_ON_OFF) ? ALARM_MINUTE : (system_state.alarm_setup_cursor + 1);
 800177a:	4b04      	ldr	r3, [pc, #16]	@ (800178c <System_Alarm_Setup_Mode_Handle+0x2c0>)
 800177c:	78db      	ldrb	r3, [r3, #3]
 800177e:	2b04      	cmp	r3, #4
 8001780:	d012      	beq.n	80017a8 <System_Alarm_Setup_Mode_Handle+0x2dc>
 8001782:	4b02      	ldr	r3, [pc, #8]	@ (800178c <System_Alarm_Setup_Mode_Handle+0x2c0>)
 8001784:	78db      	ldrb	r3, [r3, #3]
 8001786:	3301      	adds	r3, #1
 8001788:	b2db      	uxtb	r3, r3
 800178a:	e00e      	b.n	80017aa <System_Alarm_Setup_Mode_Handle+0x2de>
 800178c:	200000fc 	.word	0x200000fc
 8001790:	2000010c 	.word	0x2000010c
 8001794:	2000010d 	.word	0x2000010d
 8001798:	2000010e 	.word	0x2000010e
 800179c:	2000010f 	.word	0x2000010f
 80017a0:	2000011c 	.word	0x2000011c
 80017a4:	20000158 	.word	0x20000158
 80017a8:	2300      	movs	r3, #0
 80017aa:	4a11      	ldr	r2, [pc, #68]	@ (80017f0 <System_Alarm_Setup_Mode_Handle+0x324>)
 80017ac:	70d3      	strb	r3, [r2, #3]
      //   }

      //   // Reset the button latch to avoid function replication
      //   button->latch = true;
      // }
      break;
 80017ae:	e018      	b.n	80017e2 <System_Alarm_Setup_Mode_Handle+0x316>
    
    // Button 4: If pressed, cycle through the system modes; if held, do nothing (reserved for future use)
    case 4:
      // If pressed, cycle through the time system modes, but the temporary setting data is still retained (avoid accidental press)
      if (button->press_flag)
 80017b0:	687b      	ldr	r3, [r7, #4]
 80017b2:	7b5b      	ldrb	r3, [r3, #13]
 80017b4:	b2db      	uxtb	r3, r3
 80017b6:	2b00      	cmp	r3, #0
 80017b8:	d015      	beq.n	80017e6 <System_Alarm_Setup_Mode_Handle+0x31a>
      {
        // system_state.mode = (system_state.mode < (SYSTEM_MODE_NUM - 1)) ? (system_state.mode + 1) : 0;
        
        // Cycle through the next system mode
        system_state.mode = ALARM_VIEW_MODE;
 80017ba:	4b0d      	ldr	r3, [pc, #52]	@ (80017f0 <System_Alarm_Setup_Mode_Handle+0x324>)
 80017bc:	2203      	movs	r2, #3
 80017be:	701a      	strb	r2, [r3, #0]

        // Set the system past mode to alarm setup mode
        system_state.past_mode = ALARM_SETUP_MODE;
 80017c0:	4b0b      	ldr	r3, [pc, #44]	@ (80017f0 <System_Alarm_Setup_Mode_Handle+0x324>)
 80017c2:	2202      	movs	r2, #2
 80017c4:	705a      	strb	r2, [r3, #1]

        // Reset the cursor for the Alarm View mode
        system_state.alarm_view_cursor = 0; 
 80017c6:	4b0a      	ldr	r3, [pc, #40]	@ (80017f0 <System_Alarm_Setup_Mode_Handle+0x324>)
 80017c8:	2200      	movs	r2, #0
 80017ca:	711a      	strb	r2, [r3, #4]
      //     NOT_USED_MODE,              // Select: DAY_OF_WEEK_MODE, DATE_OF_MONTH_MODE, NOT_USED_MODE
      //     time_get_data.dayofweek,    // Day of the week: 1-7 (1 = Sunday, 2 = Monday, ..., 7 = Saturday), or Date of the month: 1-31
      //     true                        // true = ON, false = OFF
      //   };
      // }
      break;
 80017cc:	e00b      	b.n	80017e6 <System_Alarm_Setup_Mode_Handle+0x31a>

    default:
      // Reserved for future use
      break;
 80017ce:	bf00      	nop
 80017d0:	e00a      	b.n	80017e8 <System_Alarm_Setup_Mode_Handle+0x31c>
        break;
 80017d2:	bf00      	nop
 80017d4:	e008      	b.n	80017e8 <System_Alarm_Setup_Mode_Handle+0x31c>
      break;
 80017d6:	bf00      	nop
 80017d8:	e006      	b.n	80017e8 <System_Alarm_Setup_Mode_Handle+0x31c>
          break;
 80017da:	bf00      	nop
 80017dc:	e004      	b.n	80017e8 <System_Alarm_Setup_Mode_Handle+0x31c>
        break;
 80017de:	bf00      	nop
 80017e0:	e002      	b.n	80017e8 <System_Alarm_Setup_Mode_Handle+0x31c>
      break;
 80017e2:	bf00      	nop
 80017e4:	e000      	b.n	80017e8 <System_Alarm_Setup_Mode_Handle+0x31c>
      break;
 80017e6:	bf00      	nop
  }
}
 80017e8:	bf00      	nop
 80017ea:	3718      	adds	r7, #24
 80017ec:	46bd      	mov	sp, r7
 80017ee:	bdb0      	pop	{r4, r5, r7, pc}
 80017f0:	200000fc 	.word	0x200000fc

080017f4 <System_Alarm_View_Mode_Handle>:
 * @brief  Handles the alarm view mode based on button actions.
 * @param  button: Pointer to the BUTTON structure containing button state and index.
 * @retval None
 */
void System_Alarm_View_Mode_Handle (BUTTON_DATA *button)
{ 
 80017f4:	b5b0      	push	{r4, r5, r7, lr}
 80017f6:	b086      	sub	sp, #24
 80017f8:	af04      	add	r7, sp, #16
 80017fa:	6078      	str	r0, [r7, #4]
  // Handle button actions in alarm view mode
  switch (button->index) 
 80017fc:	687b      	ldr	r3, [r7, #4]
 80017fe:	799b      	ldrb	r3, [r3, #6]
 8001800:	2b04      	cmp	r3, #4
 8001802:	f200 8115 	bhi.w	8001a30 <System_Alarm_View_Mode_Handle+0x23c>
 8001806:	a201      	add	r2, pc, #4	@ (adr r2, 800180c <System_Alarm_View_Mode_Handle+0x18>)
 8001808:	f852 f023 	ldr.w	pc, [r2, r3, lsl #2]
 800180c:	08001821 	.word	0x08001821
 8001810:	0800184b 	.word	0x0800184b
 8001814:	08001875 	.word	0x08001875
 8001818:	08001975 	.word	0x08001975
 800181c:	08001a19 	.word	0x08001a19
  {
    // Button 0: If pressed, increment the selection cursor; if held, do nothing (reserved for future use)
    case 0:
      if      (button->press_flag)
 8001820:	687b      	ldr	r3, [r7, #4]
 8001822:	7b5b      	ldrb	r3, [r3, #13]
 8001824:	b2db      	uxtb	r3, r3
 8001826:	2b00      	cmp	r3, #0
 8001828:	d00c      	beq.n	8001844 <System_Alarm_View_Mode_Handle+0x50>
      {
        system_state.alarm_view_cursor = (system_state.alarm_view_cursor == ALARM_VIEW_CURSOR_MAX) ? 0 : (system_state.alarm_view_cursor + 1);
 800182a:	4b87      	ldr	r3, [pc, #540]	@ (8001a48 <System_Alarm_View_Mode_Handle+0x254>)
 800182c:	791b      	ldrb	r3, [r3, #4]
 800182e:	2b09      	cmp	r3, #9
 8001830:	d004      	beq.n	800183c <System_Alarm_View_Mode_Handle+0x48>
 8001832:	4b85      	ldr	r3, [pc, #532]	@ (8001a48 <System_Alarm_View_Mode_Handle+0x254>)
 8001834:	791b      	ldrb	r3, [r3, #4]
 8001836:	3301      	adds	r3, #1
 8001838:	b2db      	uxtb	r3, r3
 800183a:	e000      	b.n	800183e <System_Alarm_View_Mode_Handle+0x4a>
 800183c:	2300      	movs	r3, #0
 800183e:	4a82      	ldr	r2, [pc, #520]	@ (8001a48 <System_Alarm_View_Mode_Handle+0x254>)
 8001840:	7113      	strb	r3, [r2, #4]
      }
      else if (button->hold_flag)
      {
        // Reserved
      }
      break;
 8001842:	e0fc      	b.n	8001a3e <System_Alarm_View_Mode_Handle+0x24a>
      else if (button->hold_flag)
 8001844:	687b      	ldr	r3, [r7, #4]
 8001846:	7b9b      	ldrb	r3, [r3, #14]
      break;
 8001848:	e0f9      	b.n	8001a3e <System_Alarm_View_Mode_Handle+0x24a>

    // Button 1: If pressed, decrement the selection cursor; if held, do nothing (reserved for future use)
    case 1:
      if      (button->press_flag)
 800184a:	687b      	ldr	r3, [r7, #4]
 800184c:	7b5b      	ldrb	r3, [r3, #13]
 800184e:	b2db      	uxtb	r3, r3
 8001850:	2b00      	cmp	r3, #0
 8001852:	d00c      	beq.n	800186e <System_Alarm_View_Mode_Handle+0x7a>
      {
        system_state.alarm_view_cursor = (system_state.alarm_view_cursor == 0) ? ALARM_VIEW_CURSOR_MAX : (system_state.alarm_view_cursor - 1);
 8001854:	4b7c      	ldr	r3, [pc, #496]	@ (8001a48 <System_Alarm_View_Mode_Handle+0x254>)
 8001856:	791b      	ldrb	r3, [r3, #4]
 8001858:	2b00      	cmp	r3, #0
 800185a:	d004      	beq.n	8001866 <System_Alarm_View_Mode_Handle+0x72>
 800185c:	4b7a      	ldr	r3, [pc, #488]	@ (8001a48 <System_Alarm_View_Mode_Handle+0x254>)
 800185e:	791b      	ldrb	r3, [r3, #4]
 8001860:	3b01      	subs	r3, #1
 8001862:	b2db      	uxtb	r3, r3
 8001864:	e000      	b.n	8001868 <System_Alarm_View_Mode_Handle+0x74>
 8001866:	2309      	movs	r3, #9
 8001868:	4a77      	ldr	r2, [pc, #476]	@ (8001a48 <System_Alarm_View_Mode_Handle+0x254>)
 800186a:	7113      	strb	r3, [r2, #4]
      }
      else if (button->hold_flag)
      {
        // Reserved
      }
      break;
 800186c:	e0e7      	b.n	8001a3e <System_Alarm_View_Mode_Handle+0x24a>
      else if (button->hold_flag)
 800186e:	687b      	ldr	r3, [r7, #4]
 8001870:	7b9b      	ldrb	r3, [r3, #14]
      break;
 8001872:	e0e4      	b.n	8001a3e <System_Alarm_View_Mode_Handle+0x24a>
    
    // Button 2: If pressed, toggle ON/OFF; if held, do nothing (reserved for future use)
    case 2:
      if      (button->press_flag)
 8001874:	687b      	ldr	r3, [r7, #4]
 8001876:	7b5b      	ldrb	r3, [r3, #13]
 8001878:	b2db      	uxtb	r3, r3
 800187a:	2b00      	cmp	r3, #0
 800187c:	f000 80da 	beq.w	8001a34 <System_Alarm_View_Mode_Handle+0x240>
      {
        // Retrieve the selected alarm data to system parameter data
        alarm_setup_data.minute  = alarm_get_data[system_state.alarm_view_cursor].minute;
 8001880:	4b71      	ldr	r3, [pc, #452]	@ (8001a48 <System_Alarm_View_Mode_Handle+0x254>)
 8001882:	791b      	ldrb	r3, [r3, #4]
 8001884:	4619      	mov	r1, r3
 8001886:	4a71      	ldr	r2, [pc, #452]	@ (8001a4c <System_Alarm_View_Mode_Handle+0x258>)
 8001888:	460b      	mov	r3, r1
 800188a:	005b      	lsls	r3, r3, #1
 800188c:	440b      	add	r3, r1
 800188e:	005b      	lsls	r3, r3, #1
 8001890:	4413      	add	r3, r2
 8001892:	3301      	adds	r3, #1
 8001894:	781b      	ldrb	r3, [r3, #0]
 8001896:	b2da      	uxtb	r2, r3
 8001898:	4b6d      	ldr	r3, [pc, #436]	@ (8001a50 <System_Alarm_View_Mode_Handle+0x25c>)
 800189a:	701a      	strb	r2, [r3, #0]
        alarm_setup_data.hour    = alarm_get_data[system_state.alarm_view_cursor].hour;
 800189c:	4b6a      	ldr	r3, [pc, #424]	@ (8001a48 <System_Alarm_View_Mode_Handle+0x254>)
 800189e:	791b      	ldrb	r3, [r3, #4]
 80018a0:	4619      	mov	r1, r3
 80018a2:	4a6a      	ldr	r2, [pc, #424]	@ (8001a4c <System_Alarm_View_Mode_Handle+0x258>)
 80018a4:	460b      	mov	r3, r1
 80018a6:	005b      	lsls	r3, r3, #1
 80018a8:	440b      	add	r3, r1
 80018aa:	005b      	lsls	r3, r3, #1
 80018ac:	4413      	add	r3, r2
 80018ae:	3302      	adds	r3, #2
 80018b0:	781b      	ldrb	r3, [r3, #0]
 80018b2:	b2da      	uxtb	r2, r3
 80018b4:	4b66      	ldr	r3, [pc, #408]	@ (8001a50 <System_Alarm_View_Mode_Handle+0x25c>)
 80018b6:	705a      	strb	r2, [r3, #1]
        alarm_setup_data.dy_dt   = alarm_get_data[system_state.alarm_view_cursor].dy_dt;
 80018b8:	4b63      	ldr	r3, [pc, #396]	@ (8001a48 <System_Alarm_View_Mode_Handle+0x254>)
 80018ba:	791b      	ldrb	r3, [r3, #4]
 80018bc:	4619      	mov	r1, r3
 80018be:	4a63      	ldr	r2, [pc, #396]	@ (8001a4c <System_Alarm_View_Mode_Handle+0x258>)
 80018c0:	460b      	mov	r3, r1
 80018c2:	005b      	lsls	r3, r3, #1
 80018c4:	440b      	add	r3, r1
 80018c6:	005b      	lsls	r3, r3, #1
 80018c8:	4413      	add	r3, r2
 80018ca:	3303      	adds	r3, #3
 80018cc:	781b      	ldrb	r3, [r3, #0]
 80018ce:	b2da      	uxtb	r2, r3
 80018d0:	4b5f      	ldr	r3, [pc, #380]	@ (8001a50 <System_Alarm_View_Mode_Handle+0x25c>)
 80018d2:	709a      	strb	r2, [r3, #2]
        alarm_setup_data.dow_dom = alarm_get_data[system_state.alarm_view_cursor].dow_dom;
 80018d4:	4b5c      	ldr	r3, [pc, #368]	@ (8001a48 <System_Alarm_View_Mode_Handle+0x254>)
 80018d6:	791b      	ldrb	r3, [r3, #4]
 80018d8:	4619      	mov	r1, r3
 80018da:	4a5c      	ldr	r2, [pc, #368]	@ (8001a4c <System_Alarm_View_Mode_Handle+0x258>)
 80018dc:	460b      	mov	r3, r1
 80018de:	005b      	lsls	r3, r3, #1
 80018e0:	440b      	add	r3, r1
 80018e2:	005b      	lsls	r3, r3, #1
 80018e4:	4413      	add	r3, r2
 80018e6:	3304      	adds	r3, #4
 80018e8:	781b      	ldrb	r3, [r3, #0]
 80018ea:	b2da      	uxtb	r2, r3
 80018ec:	4b58      	ldr	r3, [pc, #352]	@ (8001a50 <System_Alarm_View_Mode_Handle+0x25c>)
 80018ee:	70da      	strb	r2, [r3, #3]
        alarm_setup_data.on_off  = alarm_get_data[system_state.alarm_view_cursor].on_off;
 80018f0:	4b55      	ldr	r3, [pc, #340]	@ (8001a48 <System_Alarm_View_Mode_Handle+0x254>)
 80018f2:	791b      	ldrb	r3, [r3, #4]
 80018f4:	4619      	mov	r1, r3
 80018f6:	4a55      	ldr	r2, [pc, #340]	@ (8001a4c <System_Alarm_View_Mode_Handle+0x258>)
 80018f8:	460b      	mov	r3, r1
 80018fa:	005b      	lsls	r3, r3, #1
 80018fc:	440b      	add	r3, r1
 80018fe:	005b      	lsls	r3, r3, #1
 8001900:	4413      	add	r3, r2
 8001902:	3305      	adds	r3, #5
 8001904:	781b      	ldrb	r3, [r3, #0]
 8001906:	b2da      	uxtb	r2, r3
 8001908:	4b51      	ldr	r3, [pc, #324]	@ (8001a50 <System_Alarm_View_Mode_Handle+0x25c>)
 800190a:	711a      	strb	r2, [r3, #4]

        // Toggle ON/OFF data
        alarm_setup_data.on_off = !alarm_setup_data.on_off;
 800190c:	4b50      	ldr	r3, [pc, #320]	@ (8001a50 <System_Alarm_View_Mode_Handle+0x25c>)
 800190e:	791b      	ldrb	r3, [r3, #4]
 8001910:	2b00      	cmp	r3, #0
 8001912:	bf14      	ite	ne
 8001914:	2301      	movne	r3, #1
 8001916:	2300      	moveq	r3, #0
 8001918:	b2db      	uxtb	r3, r3
 800191a:	f083 0301 	eor.w	r3, r3, #1
 800191e:	b2db      	uxtb	r3, r3
 8001920:	f003 0301 	and.w	r3, r3, #1
 8001924:	b2da      	uxtb	r2, r3
 8001926:	4b4a      	ldr	r3, [pc, #296]	@ (8001a50 <System_Alarm_View_Mode_Handle+0x25c>)
 8001928:	711a      	strb	r2, [r3, #4]

        // Save the modified alarm to the EEPROM module
        //    void Alarm_Set (uint8_t sec, uint8_t min, uint8_t hour, uint8_t dow_dom, ALARM_DY_DT_MODE dy_dt, uint8_t on_off, uint8_t slot)
        Alarm_Set
 800192a:	4b49      	ldr	r3, [pc, #292]	@ (8001a50 <System_Alarm_View_Mode_Handle+0x25c>)
 800192c:	7818      	ldrb	r0, [r3, #0]
 800192e:	4b48      	ldr	r3, [pc, #288]	@ (8001a50 <System_Alarm_View_Mode_Handle+0x25c>)
 8001930:	785c      	ldrb	r4, [r3, #1]
 8001932:	4b47      	ldr	r3, [pc, #284]	@ (8001a50 <System_Alarm_View_Mode_Handle+0x25c>)
 8001934:	78dd      	ldrb	r5, [r3, #3]
 8001936:	4b46      	ldr	r3, [pc, #280]	@ (8001a50 <System_Alarm_View_Mode_Handle+0x25c>)
 8001938:	789b      	ldrb	r3, [r3, #2]
 800193a:	4a45      	ldr	r2, [pc, #276]	@ (8001a50 <System_Alarm_View_Mode_Handle+0x25c>)
 800193c:	7912      	ldrb	r2, [r2, #4]
 800193e:	4942      	ldr	r1, [pc, #264]	@ (8001a48 <System_Alarm_View_Mode_Handle+0x254>)
 8001940:	7909      	ldrb	r1, [r1, #4]
 8001942:	9102      	str	r1, [sp, #8]
 8001944:	9201      	str	r2, [sp, #4]
 8001946:	9300      	str	r3, [sp, #0]
 8001948:	462b      	mov	r3, r5
 800194a:	4622      	mov	r2, r4
 800194c:	4601      	mov	r1, r0
 800194e:	2000      	movs	r0, #0
 8001950:	f7ff f88a 	bl	8000a68 <Alarm_Set>
          alarm_setup_data.on_off,
          system_state.alarm_view_cursor   
        );

        // Update the newly set alarm data
        Alarm_Get(system_state.alarm_view_cursor, &alarm_get_data[system_state.alarm_view_cursor]);
 8001954:	4b3c      	ldr	r3, [pc, #240]	@ (8001a48 <System_Alarm_View_Mode_Handle+0x254>)
 8001956:	791a      	ldrb	r2, [r3, #4]
 8001958:	4b3b      	ldr	r3, [pc, #236]	@ (8001a48 <System_Alarm_View_Mode_Handle+0x254>)
 800195a:	791b      	ldrb	r3, [r3, #4]
 800195c:	4619      	mov	r1, r3
 800195e:	460b      	mov	r3, r1
 8001960:	005b      	lsls	r3, r3, #1
 8001962:	440b      	add	r3, r1
 8001964:	005b      	lsls	r3, r3, #1
 8001966:	4939      	ldr	r1, [pc, #228]	@ (8001a4c <System_Alarm_View_Mode_Handle+0x258>)
 8001968:	440b      	add	r3, r1
 800196a:	4619      	mov	r1, r3
 800196c:	4610      	mov	r0, r2
 800196e:	f7ff f8cb 	bl	8000b08 <Alarm_Get>
      //   system_param_data.on_off  = alarm_get_data[system_state.cursor].on_off;

      //   // System switches to Alarm Setup Mode
      //   system_state.mode = ALARM_SETUP_MODE;
      // }
      break;
 8001972:	e05f      	b.n	8001a34 <System_Alarm_View_Mode_Handle+0x240>

    // Button 3: If pressed, enter Alarm Setup Mode with selected alarm data preloaded (for editing); if held, do nothing (reserved for future use)
    case 3: 
      if      (button->press_flag)
 8001974:	687b      	ldr	r3, [r7, #4]
 8001976:	7b5b      	ldrb	r3, [r3, #13]
 8001978:	b2db      	uxtb	r3, r3
 800197a:	2b00      	cmp	r3, #0
 800197c:	d05c      	beq.n	8001a38 <System_Alarm_View_Mode_Handle+0x244>
      {
        // Retrieve the selected alarm data to system parameter data
        alarm_setup_data.minute  = alarm_get_data[system_state.alarm_view_cursor].minute;
 800197e:	4b32      	ldr	r3, [pc, #200]	@ (8001a48 <System_Alarm_View_Mode_Handle+0x254>)
 8001980:	791b      	ldrb	r3, [r3, #4]
 8001982:	4619      	mov	r1, r3
 8001984:	4a31      	ldr	r2, [pc, #196]	@ (8001a4c <System_Alarm_View_Mode_Handle+0x258>)
 8001986:	460b      	mov	r3, r1
 8001988:	005b      	lsls	r3, r3, #1
 800198a:	440b      	add	r3, r1
 800198c:	005b      	lsls	r3, r3, #1
 800198e:	4413      	add	r3, r2
 8001990:	3301      	adds	r3, #1
 8001992:	781b      	ldrb	r3, [r3, #0]
 8001994:	b2da      	uxtb	r2, r3
 8001996:	4b2e      	ldr	r3, [pc, #184]	@ (8001a50 <System_Alarm_View_Mode_Handle+0x25c>)
 8001998:	701a      	strb	r2, [r3, #0]
        alarm_setup_data.hour    = alarm_get_data[system_state.alarm_view_cursor].hour;
 800199a:	4b2b      	ldr	r3, [pc, #172]	@ (8001a48 <System_Alarm_View_Mode_Handle+0x254>)
 800199c:	791b      	ldrb	r3, [r3, #4]
 800199e:	4619      	mov	r1, r3
 80019a0:	4a2a      	ldr	r2, [pc, #168]	@ (8001a4c <System_Alarm_View_Mode_Handle+0x258>)
 80019a2:	460b      	mov	r3, r1
 80019a4:	005b      	lsls	r3, r3, #1
 80019a6:	440b      	add	r3, r1
 80019a8:	005b      	lsls	r3, r3, #1
 80019aa:	4413      	add	r3, r2
 80019ac:	3302      	adds	r3, #2
 80019ae:	781b      	ldrb	r3, [r3, #0]
 80019b0:	b2da      	uxtb	r2, r3
 80019b2:	4b27      	ldr	r3, [pc, #156]	@ (8001a50 <System_Alarm_View_Mode_Handle+0x25c>)
 80019b4:	705a      	strb	r2, [r3, #1]
        alarm_setup_data.dy_dt   = alarm_get_data[system_state.alarm_view_cursor].dy_dt;
 80019b6:	4b24      	ldr	r3, [pc, #144]	@ (8001a48 <System_Alarm_View_Mode_Handle+0x254>)
 80019b8:	791b      	ldrb	r3, [r3, #4]
 80019ba:	4619      	mov	r1, r3
 80019bc:	4a23      	ldr	r2, [pc, #140]	@ (8001a4c <System_Alarm_View_Mode_Handle+0x258>)
 80019be:	460b      	mov	r3, r1
 80019c0:	005b      	lsls	r3, r3, #1
 80019c2:	440b      	add	r3, r1
 80019c4:	005b      	lsls	r3, r3, #1
 80019c6:	4413      	add	r3, r2
 80019c8:	3303      	adds	r3, #3
 80019ca:	781b      	ldrb	r3, [r3, #0]
 80019cc:	b2da      	uxtb	r2, r3
 80019ce:	4b20      	ldr	r3, [pc, #128]	@ (8001a50 <System_Alarm_View_Mode_Handle+0x25c>)
 80019d0:	709a      	strb	r2, [r3, #2]
        alarm_setup_data.dow_dom = alarm_get_data[system_state.alarm_view_cursor].dow_dom;
 80019d2:	4b1d      	ldr	r3, [pc, #116]	@ (8001a48 <System_Alarm_View_Mode_Handle+0x254>)
 80019d4:	791b      	ldrb	r3, [r3, #4]
 80019d6:	4619      	mov	r1, r3
 80019d8:	4a1c      	ldr	r2, [pc, #112]	@ (8001a4c <System_Alarm_View_Mode_Handle+0x258>)
 80019da:	460b      	mov	r3, r1
 80019dc:	005b      	lsls	r3, r3, #1
 80019de:	440b      	add	r3, r1
 80019e0:	005b      	lsls	r3, r3, #1
 80019e2:	4413      	add	r3, r2
 80019e4:	3304      	adds	r3, #4
 80019e6:	781b      	ldrb	r3, [r3, #0]
 80019e8:	b2da      	uxtb	r2, r3
 80019ea:	4b19      	ldr	r3, [pc, #100]	@ (8001a50 <System_Alarm_View_Mode_Handle+0x25c>)
 80019ec:	70da      	strb	r2, [r3, #3]
        alarm_setup_data.on_off  = alarm_get_data[system_state.alarm_view_cursor].on_off;
 80019ee:	4b16      	ldr	r3, [pc, #88]	@ (8001a48 <System_Alarm_View_Mode_Handle+0x254>)
 80019f0:	791b      	ldrb	r3, [r3, #4]
 80019f2:	4619      	mov	r1, r3
 80019f4:	4a15      	ldr	r2, [pc, #84]	@ (8001a4c <System_Alarm_View_Mode_Handle+0x258>)
 80019f6:	460b      	mov	r3, r1
 80019f8:	005b      	lsls	r3, r3, #1
 80019fa:	440b      	add	r3, r1
 80019fc:	005b      	lsls	r3, r3, #1
 80019fe:	4413      	add	r3, r2
 8001a00:	3305      	adds	r3, #5
 8001a02:	781b      	ldrb	r3, [r3, #0]
 8001a04:	b2da      	uxtb	r2, r3
 8001a06:	4b12      	ldr	r3, [pc, #72]	@ (8001a50 <System_Alarm_View_Mode_Handle+0x25c>)
 8001a08:	711a      	strb	r2, [r3, #4]

        // System switches to Alarm Setup Mode
        system_state.mode = ALARM_SETUP_MODE;
 8001a0a:	4b0f      	ldr	r3, [pc, #60]	@ (8001a48 <System_Alarm_View_Mode_Handle+0x254>)
 8001a0c:	2202      	movs	r2, #2
 8001a0e:	701a      	strb	r2, [r3, #0]

        // Set the system past mode to alarm view mode
        system_state.past_mode = ALARM_VIEW_MODE;
 8001a10:	4b0d      	ldr	r3, [pc, #52]	@ (8001a48 <System_Alarm_View_Mode_Handle+0x254>)
 8001a12:	2203      	movs	r2, #3
 8001a14:	705a      	strb	r2, [r3, #1]
      //   Alarm_Clear(system_state.cursor);

      //   // Update alarm data
      //   Alarm_Get(system_state.cursor, &alarm_get_data[system_state.cursor]);
      // }
      break;
 8001a16:	e00f      	b.n	8001a38 <System_Alarm_View_Mode_Handle+0x244>

    // Button 4: If pressed, cycle through the time setup fields; if held, do nothing (reserved for future use)
    case 4:
      // If pressed, cycle to the next system mode
      if (button->press_flag)
 8001a18:	687b      	ldr	r3, [r7, #4]
 8001a1a:	7b5b      	ldrb	r3, [r3, #13]
 8001a1c:	b2db      	uxtb	r3, r3
 8001a1e:	2b00      	cmp	r3, #0
 8001a20:	d00c      	beq.n	8001a3c <System_Alarm_View_Mode_Handle+0x248>
      {
        // Cycle through the next system mode
        system_state.mode = SYSTEM_OPTIONS_MODE;
 8001a22:	4b09      	ldr	r3, [pc, #36]	@ (8001a48 <System_Alarm_View_Mode_Handle+0x254>)
 8001a24:	2205      	movs	r2, #5
 8001a26:	701a      	strb	r2, [r3, #0]

        // Set the system past mode to alarm view mode
        system_state.past_mode = ALARM_VIEW_MODE;
 8001a28:	4b07      	ldr	r3, [pc, #28]	@ (8001a48 <System_Alarm_View_Mode_Handle+0x254>)
 8001a2a:	2203      	movs	r2, #3
 8001a2c:	705a      	strb	r2, [r3, #1]
      // else if (button->hold_flag && !button->latch)
      // {
      //   system_state.mode = DEFAULT_MODE; 
      //   button->latch = true;
      // }
      break;
 8001a2e:	e005      	b.n	8001a3c <System_Alarm_View_Mode_Handle+0x248>

    default: 
      break;
 8001a30:	bf00      	nop
 8001a32:	e004      	b.n	8001a3e <System_Alarm_View_Mode_Handle+0x24a>
      break;
 8001a34:	bf00      	nop
 8001a36:	e002      	b.n	8001a3e <System_Alarm_View_Mode_Handle+0x24a>
      break;
 8001a38:	bf00      	nop
 8001a3a:	e000      	b.n	8001a3e <System_Alarm_View_Mode_Handle+0x24a>
      break;
 8001a3c:	bf00      	nop
  }
}
 8001a3e:	bf00      	nop
 8001a40:	3708      	adds	r7, #8
 8001a42:	46bd      	mov	sp, r7
 8001a44:	bdb0      	pop	{r4, r5, r7, pc}
 8001a46:	bf00      	nop
 8001a48:	200000fc 	.word	0x200000fc
 8001a4c:	2000011c 	.word	0x2000011c
 8001a50:	2000010c 	.word	0x2000010c

08001a54 <System_Options_Mode_Handle>:
 * @brief  Handles the system options mode based on button actions.
 * @param  button: Pointer to the BUTTON structure containing button state and index.
 * @retval None
 */
void System_Options_Mode_Handle (BUTTON_DATA *button)
{
 8001a54:	b580      	push	{r7, lr}
 8001a56:	b084      	sub	sp, #16
 8001a58:	af00      	add	r7, sp, #0
 8001a5a:	6078      	str	r0, [r7, #4]
  switch (button->index) 
 8001a5c:	687b      	ldr	r3, [r7, #4]
 8001a5e:	799b      	ldrb	r3, [r3, #6]
 8001a60:	2b04      	cmp	r3, #4
 8001a62:	d87c      	bhi.n	8001b5e <System_Options_Mode_Handle+0x10a>
 8001a64:	a201      	add	r2, pc, #4	@ (adr r2, 8001a6c <System_Options_Mode_Handle+0x18>)
 8001a66:	f852 f023 	ldr.w	pc, [r2, r3, lsl #2]
 8001a6a:	bf00      	nop
 8001a6c:	08001a81 	.word	0x08001a81
 8001a70:	08001aab 	.word	0x08001aab
 8001a74:	08001ad5 	.word	0x08001ad5
 8001a78:	08001b37 	.word	0x08001b37
 8001a7c:	08001b47 	.word	0x08001b47
  {
    // Button 0: If pressed, increment the selection cursor; if held, do nothing (reserved for future use)
    case 0:
      if      (button->press_flag)
 8001a80:	687b      	ldr	r3, [r7, #4]
 8001a82:	7b5b      	ldrb	r3, [r3, #13]
 8001a84:	b2db      	uxtb	r3, r3
 8001a86:	2b00      	cmp	r3, #0
 8001a88:	d00c      	beq.n	8001aa4 <System_Options_Mode_Handle+0x50>
      {
        system_state.system_opt_cursor = (system_state.system_opt_cursor == SYSTEM_OPT_CURSOR_MAX) ? 0 : (system_state.system_opt_cursor + 1);
 8001a8a:	4b39      	ldr	r3, [pc, #228]	@ (8001b70 <System_Options_Mode_Handle+0x11c>)
 8001a8c:	795b      	ldrb	r3, [r3, #5]
 8001a8e:	2b01      	cmp	r3, #1
 8001a90:	d004      	beq.n	8001a9c <System_Options_Mode_Handle+0x48>
 8001a92:	4b37      	ldr	r3, [pc, #220]	@ (8001b70 <System_Options_Mode_Handle+0x11c>)
 8001a94:	795b      	ldrb	r3, [r3, #5]
 8001a96:	3301      	adds	r3, #1
 8001a98:	b2db      	uxtb	r3, r3
 8001a9a:	e000      	b.n	8001a9e <System_Options_Mode_Handle+0x4a>
 8001a9c:	2300      	movs	r3, #0
 8001a9e:	4a34      	ldr	r2, [pc, #208]	@ (8001b70 <System_Options_Mode_Handle+0x11c>)
 8001aa0:	7153      	strb	r3, [r2, #5]
      }
      else if (button->hold_flag)
      {
        // Reserved
      }
      break;
 8001aa2:	e061      	b.n	8001b68 <System_Options_Mode_Handle+0x114>
      else if (button->hold_flag)
 8001aa4:	687b      	ldr	r3, [r7, #4]
 8001aa6:	7b9b      	ldrb	r3, [r3, #14]
      break;
 8001aa8:	e05e      	b.n	8001b68 <System_Options_Mode_Handle+0x114>
    
    // Button 1: If pressed, decrement the selection cursor; if held, do nothing (reserved for future use)
    case 1:
      if      (button->press_flag)
 8001aaa:	687b      	ldr	r3, [r7, #4]
 8001aac:	7b5b      	ldrb	r3, [r3, #13]
 8001aae:	b2db      	uxtb	r3, r3
 8001ab0:	2b00      	cmp	r3, #0
 8001ab2:	d00c      	beq.n	8001ace <System_Options_Mode_Handle+0x7a>
      {
        system_state.system_opt_cursor = (system_state.system_opt_cursor == 0) ? SYSTEM_OPT_CURSOR_MAX : (system_state.system_opt_cursor - 1);
 8001ab4:	4b2e      	ldr	r3, [pc, #184]	@ (8001b70 <System_Options_Mode_Handle+0x11c>)
 8001ab6:	795b      	ldrb	r3, [r3, #5]
 8001ab8:	2b00      	cmp	r3, #0
 8001aba:	d004      	beq.n	8001ac6 <System_Options_Mode_Handle+0x72>
 8001abc:	4b2c      	ldr	r3, [pc, #176]	@ (8001b70 <System_Options_Mode_Handle+0x11c>)
 8001abe:	795b      	ldrb	r3, [r3, #5]
 8001ac0:	3b01      	subs	r3, #1
 8001ac2:	b2db      	uxtb	r3, r3
 8001ac4:	e000      	b.n	8001ac8 <System_Options_Mode_Handle+0x74>
 8001ac6:	2301      	movs	r3, #1
 8001ac8:	4a29      	ldr	r2, [pc, #164]	@ (8001b70 <System_Options_Mode_Handle+0x11c>)
 8001aca:	7153      	strb	r3, [r2, #5]
      }
      else if (button->hold_flag)
      {
        // Reserved
      }
      break;
 8001acc:	e04c      	b.n	8001b68 <System_Options_Mode_Handle+0x114>
      else if (button->hold_flag)
 8001ace:	687b      	ldr	r3, [r7, #4]
 8001ad0:	7b9b      	ldrb	r3, [r3, #14]
      break;
 8001ad2:	e049      	b.n	8001b68 <System_Options_Mode_Handle+0x114>
    
    // Button 2: If pressed, operate the selected option; if held, do nothing (reserved for future use)
    case 2:
      if      (button->press_flag)
 8001ad4:	687b      	ldr	r3, [r7, #4]
 8001ad6:	7b5b      	ldrb	r3, [r3, #13]
 8001ad8:	b2db      	uxtb	r3, r3
 8001ada:	2b00      	cmp	r3, #0
 8001adc:	d026      	beq.n	8001b2c <System_Options_Mode_Handle+0xd8>
      {
        switch (system_state.system_opt_cursor)
 8001ade:	4b24      	ldr	r3, [pc, #144]	@ (8001b70 <System_Options_Mode_Handle+0x11c>)
 8001ae0:	795b      	ldrb	r3, [r3, #5]
 8001ae2:	2b00      	cmp	r3, #0
 8001ae4:	d002      	beq.n	8001aec <System_Options_Mode_Handle+0x98>
 8001ae6:	2b01      	cmp	r3, #1
 8001ae8:	d023      	beq.n	8001b32 <System_Options_Mode_Handle+0xde>
          case CONTRIBUTOR_INFO:
            // Display contributor information
            break;

          default:
            break;
 8001aea:	e023      	b.n	8001b34 <System_Options_Mode_Handle+0xe0>
            for (int i = 0; i < ALARM_SLOT_NUM; i++)
 8001aec:	2300      	movs	r3, #0
 8001aee:	60fb      	str	r3, [r7, #12]
 8001af0:	e013      	b.n	8001b1a <System_Options_Mode_Handle+0xc6>
              Alarm_Clear(i);
 8001af2:	68fb      	ldr	r3, [r7, #12]
 8001af4:	b2db      	uxtb	r3, r3
 8001af6:	4618      	mov	r0, r3
 8001af8:	f7ff f862 	bl	8000bc0 <Alarm_Clear>
              Alarm_Get(i, &alarm_get_data[i]);
 8001afc:	68fb      	ldr	r3, [r7, #12]
 8001afe:	b2d8      	uxtb	r0, r3
 8001b00:	68fa      	ldr	r2, [r7, #12]
 8001b02:	4613      	mov	r3, r2
 8001b04:	005b      	lsls	r3, r3, #1
 8001b06:	4413      	add	r3, r2
 8001b08:	005b      	lsls	r3, r3, #1
 8001b0a:	4a1a      	ldr	r2, [pc, #104]	@ (8001b74 <System_Options_Mode_Handle+0x120>)
 8001b0c:	4413      	add	r3, r2
 8001b0e:	4619      	mov	r1, r3
 8001b10:	f7fe fffa 	bl	8000b08 <Alarm_Get>
            for (int i = 0; i < ALARM_SLOT_NUM; i++)
 8001b14:	68fb      	ldr	r3, [r7, #12]
 8001b16:	3301      	adds	r3, #1
 8001b18:	60fb      	str	r3, [r7, #12]
 8001b1a:	68fb      	ldr	r3, [r7, #12]
 8001b1c:	2b09      	cmp	r3, #9
 8001b1e:	dde8      	ble.n	8001af2 <System_Options_Mode_Handle+0x9e>
            alarm_slot_ptr = 0;
 8001b20:	4b15      	ldr	r3, [pc, #84]	@ (8001b78 <System_Options_Mode_Handle+0x124>)
 8001b22:	2200      	movs	r2, #0
 8001b24:	701a      	strb	r2, [r3, #0]
            Alarm_Slot_Pointer_Set();
 8001b26:	f7ff f86d 	bl	8000c04 <Alarm_Slot_Pointer_Set>
            break;
 8001b2a:	e003      	b.n	8001b34 <System_Options_Mode_Handle+0xe0>
        }
      }
      else if (button->hold_flag)
 8001b2c:	687b      	ldr	r3, [r7, #4]
 8001b2e:	7b9b      	ldrb	r3, [r3, #14]
      {
        // Reserved
      }
      break;
 8001b30:	e01a      	b.n	8001b68 <System_Options_Mode_Handle+0x114>
            break;
 8001b32:	bf00      	nop
      break;
 8001b34:	e018      	b.n	8001b68 <System_Options_Mode_Handle+0x114>

    case 3: 
      if      (button->press_flag)
 8001b36:	687b      	ldr	r3, [r7, #4]
 8001b38:	7b5b      	ldrb	r3, [r3, #13]
 8001b3a:	b2db      	uxtb	r3, r3
 8001b3c:	2b00      	cmp	r3, #0
 8001b3e:	d110      	bne.n	8001b62 <System_Options_Mode_Handle+0x10e>
      {

      }
      else if (button->hold_flag)
 8001b40:	687b      	ldr	r3, [r7, #4]
 8001b42:	7b9b      	ldrb	r3, [r3, #14]
      {
        // Reserved
      }
      break;
 8001b44:	e00d      	b.n	8001b62 <System_Options_Mode_Handle+0x10e>
    
    // Button 4: If pressed, cycle through the time setup fields; if held, do nothing (reserved for future use)
    case 4:
      // If pressed, cycle through the next system mode
      if      (button->press_flag)
 8001b46:	687b      	ldr	r3, [r7, #4]
 8001b48:	7b5b      	ldrb	r3, [r3, #13]
 8001b4a:	b2db      	uxtb	r3, r3
 8001b4c:	2b00      	cmp	r3, #0
 8001b4e:	d00a      	beq.n	8001b66 <System_Options_Mode_Handle+0x112>
      {
        // system_state.mode = (system_state.mode < (SYSTEM_MODE_NUM - 1)) ? (system_state.mode + 1) : 0;

        // Cycle through the next system mode
        system_state.mode = DEFAULT_MODE;
 8001b50:	4b07      	ldr	r3, [pc, #28]	@ (8001b70 <System_Options_Mode_Handle+0x11c>)
 8001b52:	2200      	movs	r2, #0
 8001b54:	701a      	strb	r2, [r3, #0]

        // Set the system past mode to system options mode
        system_state.past_mode = SYSTEM_OPTIONS_MODE;
 8001b56:	4b06      	ldr	r3, [pc, #24]	@ (8001b70 <System_Options_Mode_Handle+0x11c>)
 8001b58:	2205      	movs	r2, #5
 8001b5a:	705a      	strb	r2, [r3, #1]
      // // If held, set the mode to default
      // else if (button->hold_flag)
      // {
      //   system_state.mode = DEFAULT_MODE;
      // }
      break;
 8001b5c:	e003      	b.n	8001b66 <System_Options_Mode_Handle+0x112>

    default: 
      break;
 8001b5e:	bf00      	nop
 8001b60:	e002      	b.n	8001b68 <System_Options_Mode_Handle+0x114>
      break;
 8001b62:	bf00      	nop
 8001b64:	e000      	b.n	8001b68 <System_Options_Mode_Handle+0x114>
      break;
 8001b66:	bf00      	nop
  }
}
 8001b68:	bf00      	nop
 8001b6a:	3710      	adds	r7, #16
 8001b6c:	46bd      	mov	sp, r7
 8001b6e:	bd80      	pop	{r7, pc}
 8001b70:	200000fc 	.word	0x200000fc
 8001b74:	2000011c 	.word	0x2000011c
 8001b78:	20000158 	.word	0x20000158

08001b7c <System_Alarm_Active_Mode_Handle>:
 * @brief  Handles the alarm active mode based on button actions.
 * @param  button: Pointer to the BUTTON structure containing button state and index.
 * @retval None
 */
void System_Alarm_Active_Mode_Handle (BUTTON_DATA *button)
{
 8001b7c:	b580      	push	{r7, lr}
 8001b7e:	b082      	sub	sp, #8
 8001b80:	af00      	add	r7, sp, #0
 8001b82:	6078      	str	r0, [r7, #4]
  // Handle button actions in alarm active mode
  switch (button->index) 
 8001b84:	687b      	ldr	r3, [r7, #4]
 8001b86:	799b      	ldrb	r3, [r3, #6]
 8001b88:	2b04      	cmp	r3, #4
 8001b8a:	d87b      	bhi.n	8001c84 <System_Alarm_Active_Mode_Handle+0x108>
 8001b8c:	a201      	add	r2, pc, #4	@ (adr r2, 8001b94 <System_Alarm_Active_Mode_Handle+0x18>)
 8001b8e:	f852 f023 	ldr.w	pc, [r2, r3, lsl #2]
 8001b92:	bf00      	nop
 8001b94:	08001ba9 	.word	0x08001ba9
 8001b98:	08001bdd 	.word	0x08001bdd
 8001b9c:	08001c07 	.word	0x08001c07
 8001ba0:	08001c31 	.word	0x08001c31
 8001ba4:	08001c5b 	.word	0x08001c5b
  {
    // Button 0: If pressed, stop ringing the alarm; if held, do nothing (reserved for future use)
    case 0:
      // If pressed, cycle through the time setup fields
      if (button->press_flag)
 8001ba8:	687b      	ldr	r3, [r7, #4]
 8001baa:	7b5b      	ldrb	r3, [r3, #13]
 8001bac:	b2db      	uxtb	r3, r3
 8001bae:	2b00      	cmp	r3, #0
 8001bb0:	d00c      	beq.n	8001bcc <System_Alarm_Active_Mode_Handle+0x50>
      {
        // Stop ringing the alarm
        alarm_active_flag = false; 
 8001bb2:	4b38      	ldr	r3, [pc, #224]	@ (8001c94 <System_Alarm_Active_Mode_Handle+0x118>)
 8001bb4:	2200      	movs	r2, #0
 8001bb6:	701a      	strb	r2, [r3, #0]

        // Return to the previous mode
        system_state.mode = system_state.past_mode; 
 8001bb8:	4b37      	ldr	r3, [pc, #220]	@ (8001c98 <System_Alarm_Active_Mode_Handle+0x11c>)
 8001bba:	785a      	ldrb	r2, [r3, #1]
 8001bbc:	4b36      	ldr	r3, [pc, #216]	@ (8001c98 <System_Alarm_Active_Mode_Handle+0x11c>)
 8001bbe:	701a      	strb	r2, [r3, #0]

        // // Set the system past mode to alarm active mode
        // system_state.past_mode = ALARM_ACTIVE_MODE; 

        // Reset the buzzer
        HAL_GPIO_WritePin(BUZZER_GPIO_Port, BUZZER_Pin, BUZZER_INACTIVE); 
 8001bc0:	2201      	movs	r2, #1
 8001bc2:	2101      	movs	r1, #1
 8001bc4:	4835      	ldr	r0, [pc, #212]	@ (8001c9c <System_Alarm_Active_Mode_Handle+0x120>)
 8001bc6:	f001 faa2 	bl	800310e <HAL_GPIO_WritePin>
      // If held, do nothing (reserved for future use)
      else if (button->hold_flag && !button->latch)
      {
        // Reserved
      }
      break;
 8001bca:	e05d      	b.n	8001c88 <System_Alarm_Active_Mode_Handle+0x10c>
      else if (button->hold_flag && !button->latch)
 8001bcc:	687b      	ldr	r3, [r7, #4]
 8001bce:	7b9b      	ldrb	r3, [r3, #14]
 8001bd0:	b2db      	uxtb	r3, r3
 8001bd2:	2b00      	cmp	r3, #0
 8001bd4:	d058      	beq.n	8001c88 <System_Alarm_Active_Mode_Handle+0x10c>
 8001bd6:	687b      	ldr	r3, [r7, #4]
 8001bd8:	7bdb      	ldrb	r3, [r3, #15]
      break;
 8001bda:	e055      	b.n	8001c88 <System_Alarm_Active_Mode_Handle+0x10c>

    // Button 1: If pressed, stop ringing the alarm; if held, do nothing (reserved for future use)
    case 1:
      if      (button->press_flag)
 8001bdc:	687b      	ldr	r3, [r7, #4]
 8001bde:	7b5b      	ldrb	r3, [r3, #13]
 8001be0:	b2db      	uxtb	r3, r3
 8001be2:	2b00      	cmp	r3, #0
 8001be4:	d00c      	beq.n	8001c00 <System_Alarm_Active_Mode_Handle+0x84>
      {
        // Stop ringing the alarm
        alarm_active_flag = false;  
 8001be6:	4b2b      	ldr	r3, [pc, #172]	@ (8001c94 <System_Alarm_Active_Mode_Handle+0x118>)
 8001be8:	2200      	movs	r2, #0
 8001bea:	701a      	strb	r2, [r3, #0]

        // Return to the previous mode
        system_state.mode = system_state.past_mode; 
 8001bec:	4b2a      	ldr	r3, [pc, #168]	@ (8001c98 <System_Alarm_Active_Mode_Handle+0x11c>)
 8001bee:	785a      	ldrb	r2, [r3, #1]
 8001bf0:	4b29      	ldr	r3, [pc, #164]	@ (8001c98 <System_Alarm_Active_Mode_Handle+0x11c>)
 8001bf2:	701a      	strb	r2, [r3, #0]

        // // Set the system past mode to alarm active mode
        // system_state.past_mode = ALARM_ACTIVE_MODE; 

        // Reset the buzzer
        HAL_GPIO_WritePin(BUZZER_GPIO_Port, BUZZER_Pin, BUZZER_INACTIVE); 
 8001bf4:	2201      	movs	r2, #1
 8001bf6:	2101      	movs	r1, #1
 8001bf8:	4828      	ldr	r0, [pc, #160]	@ (8001c9c <System_Alarm_Active_Mode_Handle+0x120>)
 8001bfa:	f001 fa88 	bl	800310e <HAL_GPIO_WritePin>
      }
      else if (button->hold_flag)
      {
        // Reserved 
      }
      break;
 8001bfe:	e044      	b.n	8001c8a <System_Alarm_Active_Mode_Handle+0x10e>
      else if (button->hold_flag)
 8001c00:	687b      	ldr	r3, [r7, #4]
 8001c02:	7b9b      	ldrb	r3, [r3, #14]
      break;
 8001c04:	e041      	b.n	8001c8a <System_Alarm_Active_Mode_Handle+0x10e>

    // Button 2: If pressed, stop ringing the alarm; if held, do nothing (reserved for future use)
    case 2:
      if      (button->press_flag)
 8001c06:	687b      	ldr	r3, [r7, #4]
 8001c08:	7b5b      	ldrb	r3, [r3, #13]
 8001c0a:	b2db      	uxtb	r3, r3
 8001c0c:	2b00      	cmp	r3, #0
 8001c0e:	d00c      	beq.n	8001c2a <System_Alarm_Active_Mode_Handle+0xae>
      {
        // Stop ringing the alarm
        alarm_active_flag = false;  
 8001c10:	4b20      	ldr	r3, [pc, #128]	@ (8001c94 <System_Alarm_Active_Mode_Handle+0x118>)
 8001c12:	2200      	movs	r2, #0
 8001c14:	701a      	strb	r2, [r3, #0]

        // Return to the previous mode
        system_state.mode = system_state.past_mode; 
 8001c16:	4b20      	ldr	r3, [pc, #128]	@ (8001c98 <System_Alarm_Active_Mode_Handle+0x11c>)
 8001c18:	785a      	ldrb	r2, [r3, #1]
 8001c1a:	4b1f      	ldr	r3, [pc, #124]	@ (8001c98 <System_Alarm_Active_Mode_Handle+0x11c>)
 8001c1c:	701a      	strb	r2, [r3, #0]

        // // Set the system past mode to alarm active mode
        // system_state.past_mode = ALARM_ACTIVE_MODE; 

        // Reset the buzzer
        HAL_GPIO_WritePin(BUZZER_GPIO_Port, BUZZER_Pin, BUZZER_INACTIVE); 
 8001c1e:	2201      	movs	r2, #1
 8001c20:	2101      	movs	r1, #1
 8001c22:	481e      	ldr	r0, [pc, #120]	@ (8001c9c <System_Alarm_Active_Mode_Handle+0x120>)
 8001c24:	f001 fa73 	bl	800310e <HAL_GPIO_WritePin>
      }
      else if (button->hold_flag)
      {
        // Reserved
      }
      break;
 8001c28:	e02f      	b.n	8001c8a <System_Alarm_Active_Mode_Handle+0x10e>
      else if (button->hold_flag)
 8001c2a:	687b      	ldr	r3, [r7, #4]
 8001c2c:	7b9b      	ldrb	r3, [r3, #14]
      break;
 8001c2e:	e02c      	b.n	8001c8a <System_Alarm_Active_Mode_Handle+0x10e>
    
    // Button 3: If pressed, stop ringing the alarm; if held, do nothing (reserved for future use)
    case 3:
      if      (button->press_flag)
 8001c30:	687b      	ldr	r3, [r7, #4]
 8001c32:	7b5b      	ldrb	r3, [r3, #13]
 8001c34:	b2db      	uxtb	r3, r3
 8001c36:	2b00      	cmp	r3, #0
 8001c38:	d00c      	beq.n	8001c54 <System_Alarm_Active_Mode_Handle+0xd8>
      {
        // Stop ringing the alarm
        alarm_active_flag = false;  
 8001c3a:	4b16      	ldr	r3, [pc, #88]	@ (8001c94 <System_Alarm_Active_Mode_Handle+0x118>)
 8001c3c:	2200      	movs	r2, #0
 8001c3e:	701a      	strb	r2, [r3, #0]

        // Return to the previous mode
        system_state.mode = system_state.past_mode; 
 8001c40:	4b15      	ldr	r3, [pc, #84]	@ (8001c98 <System_Alarm_Active_Mode_Handle+0x11c>)
 8001c42:	785a      	ldrb	r2, [r3, #1]
 8001c44:	4b14      	ldr	r3, [pc, #80]	@ (8001c98 <System_Alarm_Active_Mode_Handle+0x11c>)
 8001c46:	701a      	strb	r2, [r3, #0]

        // // Set the system past mode to alarm active mode
        // system_state.past_mode = ALARM_ACTIVE_MODE; 

        // Reset the buzzer
        HAL_GPIO_WritePin(BUZZER_GPIO_Port, BUZZER_Pin, BUZZER_INACTIVE); 
 8001c48:	2201      	movs	r2, #1
 8001c4a:	2101      	movs	r1, #1
 8001c4c:	4813      	ldr	r0, [pc, #76]	@ (8001c9c <System_Alarm_Active_Mode_Handle+0x120>)
 8001c4e:	f001 fa5e 	bl	800310e <HAL_GPIO_WritePin>
      }
      else if (button->hold_flag)
      {
        // Reserved
      }
      break;
 8001c52:	e01a      	b.n	8001c8a <System_Alarm_Active_Mode_Handle+0x10e>
      else if (button->hold_flag)
 8001c54:	687b      	ldr	r3, [r7, #4]
 8001c56:	7b9b      	ldrb	r3, [r3, #14]
      break;
 8001c58:	e017      	b.n	8001c8a <System_Alarm_Active_Mode_Handle+0x10e>

    // Button 4: If pressed, stop ringing the alarm; if held, do nothing (reserved for future use)
    case 4: 
      if      (button->press_flag)
 8001c5a:	687b      	ldr	r3, [r7, #4]
 8001c5c:	7b5b      	ldrb	r3, [r3, #13]
 8001c5e:	b2db      	uxtb	r3, r3
 8001c60:	2b00      	cmp	r3, #0
 8001c62:	d00c      	beq.n	8001c7e <System_Alarm_Active_Mode_Handle+0x102>
      {
        // Stop ringing the alarm
        alarm_active_flag = false;  
 8001c64:	4b0b      	ldr	r3, [pc, #44]	@ (8001c94 <System_Alarm_Active_Mode_Handle+0x118>)
 8001c66:	2200      	movs	r2, #0
 8001c68:	701a      	strb	r2, [r3, #0]

        // Return to the previous mode
        system_state.mode = system_state.past_mode; 
 8001c6a:	4b0b      	ldr	r3, [pc, #44]	@ (8001c98 <System_Alarm_Active_Mode_Handle+0x11c>)
 8001c6c:	785a      	ldrb	r2, [r3, #1]
 8001c6e:	4b0a      	ldr	r3, [pc, #40]	@ (8001c98 <System_Alarm_Active_Mode_Handle+0x11c>)
 8001c70:	701a      	strb	r2, [r3, #0]

        // // Set the system past mode to alarm active mode
        // system_state.past_mode = ALARM_ACTIVE_MODE; 

        // Reset the buzzer
        HAL_GPIO_WritePin(BUZZER_GPIO_Port, BUZZER_Pin, BUZZER_INACTIVE); 
 8001c72:	2201      	movs	r2, #1
 8001c74:	2101      	movs	r1, #1
 8001c76:	4809      	ldr	r0, [pc, #36]	@ (8001c9c <System_Alarm_Active_Mode_Handle+0x120>)
 8001c78:	f001 fa49 	bl	800310e <HAL_GPIO_WritePin>
      }
      else if (button->hold_flag)
      {
        // Reserved
      }
      break;
 8001c7c:	e005      	b.n	8001c8a <System_Alarm_Active_Mode_Handle+0x10e>
      else if (button->hold_flag)
 8001c7e:	687b      	ldr	r3, [r7, #4]
 8001c80:	7b9b      	ldrb	r3, [r3, #14]
      break;
 8001c82:	e002      	b.n	8001c8a <System_Alarm_Active_Mode_Handle+0x10e>

    default: 
      break;
 8001c84:	bf00      	nop
 8001c86:	e000      	b.n	8001c8a <System_Alarm_Active_Mode_Handle+0x10e>
      break;
 8001c88:	bf00      	nop
  }
}
 8001c8a:	bf00      	nop
 8001c8c:	3708      	adds	r7, #8
 8001c8e:	46bd      	mov	sp, r7
 8001c90:	bd80      	pop	{r7, pc}
 8001c92:	bf00      	nop
 8001c94:	2000015c 	.word	0x2000015c
 8001c98:	200000fc 	.word	0x200000fc
 8001c9c:	40010c00 	.word	0x40010c00

08001ca0 <HAL_GPIO_EXTI_Callback>:
  * @brief  Callback function to handle GPIO interrupts.
  * @param  GPIO_Pin: The pin number of the GPIO that triggered the interrupt.
  * @retval None
*/
void HAL_GPIO_EXTI_Callback(uint16_t GPIO_Pin)
{
 8001ca0:	b480      	push	{r7}
 8001ca2:	b083      	sub	sp, #12
 8001ca4:	af00      	add	r7, sp, #0
 8001ca6:	4603      	mov	r3, r0
 8001ca8:	80fb      	strh	r3, [r7, #6]
  switch (GPIO_Pin)
 8001caa:	88fb      	ldrh	r3, [r7, #6]
 8001cac:	f5b3 4f00 	cmp.w	r3, #32768	@ 0x8000
 8001cb0:	d02a      	beq.n	8001d08 <HAL_GPIO_EXTI_Callback+0x68>
 8001cb2:	f5b3 4f00 	cmp.w	r3, #32768	@ 0x8000
 8001cb6:	dc2f      	bgt.n	8001d18 <HAL_GPIO_EXTI_Callback+0x78>
 8001cb8:	f5b3 4f80 	cmp.w	r3, #16384	@ 0x4000
 8001cbc:	d020      	beq.n	8001d00 <HAL_GPIO_EXTI_Callback+0x60>
 8001cbe:	f5b3 4f80 	cmp.w	r3, #16384	@ 0x4000
 8001cc2:	dc29      	bgt.n	8001d18 <HAL_GPIO_EXTI_Callback+0x78>
 8001cc4:	f5b3 5f00 	cmp.w	r3, #8192	@ 0x2000
 8001cc8:	d016      	beq.n	8001cf8 <HAL_GPIO_EXTI_Callback+0x58>
 8001cca:	f5b3 5f00 	cmp.w	r3, #8192	@ 0x2000
 8001cce:	dc23      	bgt.n	8001d18 <HAL_GPIO_EXTI_Callback+0x78>
 8001cd0:	f5b3 5f80 	cmp.w	r3, #4096	@ 0x1000
 8001cd4:	d00c      	beq.n	8001cf0 <HAL_GPIO_EXTI_Callback+0x50>
 8001cd6:	f5b3 5f80 	cmp.w	r3, #4096	@ 0x1000
 8001cda:	dc1d      	bgt.n	8001d18 <HAL_GPIO_EXTI_Callback+0x78>
 8001cdc:	2b20      	cmp	r3, #32
 8001cde:	d003      	beq.n	8001ce8 <HAL_GPIO_EXTI_Callback+0x48>
 8001ce0:	f5b3 7f80 	cmp.w	r3, #256	@ 0x100
 8001ce4:	d014      	beq.n	8001d10 <HAL_GPIO_EXTI_Callback+0x70>
      button4.int_flag = true;
      break;  

    default:
      // Handle other GPIO interrupts if necessary
      break;
 8001ce6:	e017      	b.n	8001d18 <HAL_GPIO_EXTI_Callback+0x78>
      rtc_int_flag = true;
 8001ce8:	4b0e      	ldr	r3, [pc, #56]	@ (8001d24 <HAL_GPIO_EXTI_Callback+0x84>)
 8001cea:	2201      	movs	r2, #1
 8001cec:	701a      	strb	r2, [r3, #0]
      break;
 8001cee:	e014      	b.n	8001d1a <HAL_GPIO_EXTI_Callback+0x7a>
      button0.int_flag = true;
 8001cf0:	4b0d      	ldr	r3, [pc, #52]	@ (8001d28 <HAL_GPIO_EXTI_Callback+0x88>)
 8001cf2:	2201      	movs	r2, #1
 8001cf4:	731a      	strb	r2, [r3, #12]
      break;
 8001cf6:	e010      	b.n	8001d1a <HAL_GPIO_EXTI_Callback+0x7a>
      button1.int_flag = true;
 8001cf8:	4b0c      	ldr	r3, [pc, #48]	@ (8001d2c <HAL_GPIO_EXTI_Callback+0x8c>)
 8001cfa:	2201      	movs	r2, #1
 8001cfc:	731a      	strb	r2, [r3, #12]
      break;
 8001cfe:	e00c      	b.n	8001d1a <HAL_GPIO_EXTI_Callback+0x7a>
      button2.int_flag = true;
 8001d00:	4b0b      	ldr	r3, [pc, #44]	@ (8001d30 <HAL_GPIO_EXTI_Callback+0x90>)
 8001d02:	2201      	movs	r2, #1
 8001d04:	731a      	strb	r2, [r3, #12]
      break;
 8001d06:	e008      	b.n	8001d1a <HAL_GPIO_EXTI_Callback+0x7a>
      button3.int_flag = true;
 8001d08:	4b0a      	ldr	r3, [pc, #40]	@ (8001d34 <HAL_GPIO_EXTI_Callback+0x94>)
 8001d0a:	2201      	movs	r2, #1
 8001d0c:	731a      	strb	r2, [r3, #12]
      break;  
 8001d0e:	e004      	b.n	8001d1a <HAL_GPIO_EXTI_Callback+0x7a>
      button4.int_flag = true;
 8001d10:	4b09      	ldr	r3, [pc, #36]	@ (8001d38 <HAL_GPIO_EXTI_Callback+0x98>)
 8001d12:	2201      	movs	r2, #1
 8001d14:	731a      	strb	r2, [r3, #12]
      break;  
 8001d16:	e000      	b.n	8001d1a <HAL_GPIO_EXTI_Callback+0x7a>
      break;
 8001d18:	bf00      	nop
  }
}
 8001d1a:	bf00      	nop
 8001d1c:	370c      	adds	r7, #12
 8001d1e:	46bd      	mov	sp, r7
 8001d20:	bc80      	pop	{r7}
 8001d22:	4770      	bx	lr
 8001d24:	20000159 	.word	0x20000159
 8001d28:	20000000 	.word	0x20000000
 8001d2c:	20000010 	.word	0x20000010
 8001d30:	20000020 	.word	0x20000020
 8001d34:	20000030 	.word	0x20000030
 8001d38:	20000040 	.word	0x20000040

08001d3c <HAL_UART_RxCpltCallback>:
  * @brief  Callback function to handle UART interrupts.
  * @param  huart: Pointer to the UART handle.
  * @retval None
*/
void HAL_UART_RxCpltCallback(UART_HandleTypeDef *huart)
{
 8001d3c:	b480      	push	{r7}
 8001d3e:	b083      	sub	sp, #12
 8001d40:	af00      	add	r7, sp, #0
 8001d42:	6078      	str	r0, [r7, #4]
  // Verify the UART instance to ensure the callback is for USART1
  // If the UART instance is USART1, store the received data into the uart_rx_data array
  if(huart->Instance == USART1)
 8001d44:	687b      	ldr	r3, [r7, #4]
 8001d46:	681b      	ldr	r3, [r3, #0]
 8001d48:	4a09      	ldr	r2, [pc, #36]	@ (8001d70 <HAL_UART_RxCpltCallback+0x34>)
 8001d4a:	4293      	cmp	r3, r2
 8001d4c:	d10a      	bne.n	8001d64 <HAL_UART_RxCpltCallback+0x28>
  {
    // Store the received data into the uart_rx_data array
    uart_rx_hour = uart_rx_data[0];
 8001d4e:	4b09      	ldr	r3, [pc, #36]	@ (8001d74 <HAL_UART_RxCpltCallback+0x38>)
 8001d50:	781a      	ldrb	r2, [r3, #0]
 8001d52:	4b09      	ldr	r3, [pc, #36]	@ (8001d78 <HAL_UART_RxCpltCallback+0x3c>)
 8001d54:	701a      	strb	r2, [r3, #0]
    uart_rx_minute = uart_rx_data[1];
 8001d56:	4b07      	ldr	r3, [pc, #28]	@ (8001d74 <HAL_UART_RxCpltCallback+0x38>)
 8001d58:	785a      	ldrb	r2, [r3, #1]
 8001d5a:	4b08      	ldr	r3, [pc, #32]	@ (8001d7c <HAL_UART_RxCpltCallback+0x40>)
 8001d5c:	701a      	strb	r2, [r3, #0]

    // Set the UART receive flag
    uart_rx_flag = 1;
 8001d5e:	4b08      	ldr	r3, [pc, #32]	@ (8001d80 <HAL_UART_RxCpltCallback+0x44>)
 8001d60:	2201      	movs	r2, #1
 8001d62:	701a      	strb	r2, [r3, #0]
  }
}
 8001d64:	bf00      	nop
 8001d66:	370c      	adds	r7, #12
 8001d68:	46bd      	mov	sp, r7
 8001d6a:	bc80      	pop	{r7}
 8001d6c:	4770      	bx	lr
 8001d6e:	bf00      	nop
 8001d70:	40013800 	.word	0x40013800
 8001d74:	2000016c 	.word	0x2000016c
 8001d78:	2000016e 	.word	0x2000016e
 8001d7c:	2000016f 	.word	0x2000016f
 8001d80:	2000016a 	.word	0x2000016a

08001d84 <HAL_ADC_ConvCpltCallback>:
  * @brief  Callback function to handle ADC conversion complete interrupts.
  * @param  hadc: Pointer to the ADC handle.
  * @retval None
*/
void HAL_ADC_ConvCpltCallback(ADC_HandleTypeDef* hadc)
{
 8001d84:	b580      	push	{r7, lr}
 8001d86:	b082      	sub	sp, #8
 8001d88:	af00      	add	r7, sp, #0
 8001d8a:	6078      	str	r0, [r7, #4]
	// Verify the ADC instance to ensure the callback is for ADC1
  // If the ADC instance is ADC1, get the ADC value and calculate the battery percentage
  if (hadc == &hadc1)
 8001d8c:	687b      	ldr	r3, [r7, #4]
 8001d8e:	4a10      	ldr	r2, [pc, #64]	@ (8001dd0 <HAL_ADC_ConvCpltCallback+0x4c>)
 8001d90:	4293      	cmp	r3, r2
 8001d92:	d119      	bne.n	8001dc8 <HAL_ADC_ConvCpltCallback+0x44>
	{
    // Get the ADC value
    adc_data = HAL_ADC_GetValue(&hadc1);
 8001d94:	480e      	ldr	r0, [pc, #56]	@ (8001dd0 <HAL_ADC_ConvCpltCallback+0x4c>)
 8001d96:	f000 fbef 	bl	8002578 <HAL_ADC_GetValue>
 8001d9a:	4603      	mov	r3, r0
 8001d9c:	b29a      	uxth	r2, r3
 8001d9e:	4b0d      	ldr	r3, [pc, #52]	@ (8001dd4 <HAL_ADC_ConvCpltCallback+0x50>)
 8001da0:	801a      	strh	r2, [r3, #0]

    // Set the ADC valid flag
    adc_valid_flag = 1;
 8001da2:	4b0d      	ldr	r3, [pc, #52]	@ (8001dd8 <HAL_ADC_ConvCpltCallback+0x54>)
 8001da4:	2201      	movs	r2, #1
 8001da6:	701a      	strb	r2, [r3, #0]

    // Calculate the battery percentage
    battery_percentage = adc_data * 100 / 4095;
 8001da8:	4b0a      	ldr	r3, [pc, #40]	@ (8001dd4 <HAL_ADC_ConvCpltCallback+0x50>)
 8001daa:	881b      	ldrh	r3, [r3, #0]
 8001dac:	461a      	mov	r2, r3
 8001dae:	2364      	movs	r3, #100	@ 0x64
 8001db0:	fb02 f303 	mul.w	r3, r2, r3
 8001db4:	4a09      	ldr	r2, [pc, #36]	@ (8001ddc <HAL_ADC_ConvCpltCallback+0x58>)
 8001db6:	fb82 1203 	smull	r1, r2, r2, r3
 8001dba:	441a      	add	r2, r3
 8001dbc:	12d2      	asrs	r2, r2, #11
 8001dbe:	17db      	asrs	r3, r3, #31
 8001dc0:	1ad3      	subs	r3, r2, r3
 8001dc2:	b29a      	uxth	r2, r3
 8001dc4:	4b06      	ldr	r3, [pc, #24]	@ (8001de0 <HAL_ADC_ConvCpltCallback+0x5c>)
 8001dc6:	801a      	strh	r2, [r3, #0]
	}
}
 8001dc8:	bf00      	nop
 8001dca:	3708      	adds	r7, #8
 8001dcc:	46bd      	mov	sp, r7
 8001dce:	bd80      	pop	{r7, pc}
 8001dd0:	20000078 	.word	0x20000078
 8001dd4:	20000166 	.word	0x20000166
 8001dd8:	20000165 	.word	0x20000165
 8001ddc:	80080081 	.word	0x80080081
 8001de0:	20000168 	.word	0x20000168

08001de4 <Error_Handler>:
/**
  * @brief  This function is executed in case of error occurrence.
  * @retval None
  */
void Error_Handler(void)
{
 8001de4:	b480      	push	{r7}
 8001de6:	af00      	add	r7, sp, #0
  \details Disables IRQ interrupts by setting the I-bit in the CPSR.
           Can only be executed in Privileged modes.
 */
__STATIC_FORCEINLINE void __disable_irq(void)
{
  __ASM volatile ("cpsid i" : : : "memory");
 8001de8:	b672      	cpsid	i
}
 8001dea:	bf00      	nop
  /* USER CODE BEGIN Error_Handler_Debug */
  /* User can add his own implementation to report the HAL error return state */
  __disable_irq();
  while (1)
 8001dec:	bf00      	nop
 8001dee:	e7fd      	b.n	8001dec <Error_Handler+0x8>

08001df0 <MX_SPI1_Init>:

SPI_HandleTypeDef hspi1;

/* SPI1 init function */
void MX_SPI1_Init(void)
{
 8001df0:	b580      	push	{r7, lr}
 8001df2:	af00      	add	r7, sp, #0
  /* USER CODE END SPI1_Init 0 */

  /* USER CODE BEGIN SPI1_Init 1 */

  /* USER CODE END SPI1_Init 1 */
  hspi1.Instance = SPI1;
 8001df4:	4b17      	ldr	r3, [pc, #92]	@ (8001e54 <MX_SPI1_Init+0x64>)
 8001df6:	4a18      	ldr	r2, [pc, #96]	@ (8001e58 <MX_SPI1_Init+0x68>)
 8001df8:	601a      	str	r2, [r3, #0]
  hspi1.Init.Mode = SPI_MODE_MASTER;
 8001dfa:	4b16      	ldr	r3, [pc, #88]	@ (8001e54 <MX_SPI1_Init+0x64>)
 8001dfc:	f44f 7282 	mov.w	r2, #260	@ 0x104
 8001e00:	605a      	str	r2, [r3, #4]
  hspi1.Init.Direction = SPI_DIRECTION_2LINES;
 8001e02:	4b14      	ldr	r3, [pc, #80]	@ (8001e54 <MX_SPI1_Init+0x64>)
 8001e04:	2200      	movs	r2, #0
 8001e06:	609a      	str	r2, [r3, #8]
  hspi1.Init.DataSize = SPI_DATASIZE_8BIT;
 8001e08:	4b12      	ldr	r3, [pc, #72]	@ (8001e54 <MX_SPI1_Init+0x64>)
 8001e0a:	2200      	movs	r2, #0
 8001e0c:	60da      	str	r2, [r3, #12]
  hspi1.Init.CLKPolarity = SPI_POLARITY_LOW;
 8001e0e:	4b11      	ldr	r3, [pc, #68]	@ (8001e54 <MX_SPI1_Init+0x64>)
 8001e10:	2200      	movs	r2, #0
 8001e12:	611a      	str	r2, [r3, #16]
  hspi1.Init.CLKPhase = SPI_PHASE_1EDGE;
 8001e14:	4b0f      	ldr	r3, [pc, #60]	@ (8001e54 <MX_SPI1_Init+0x64>)
 8001e16:	2200      	movs	r2, #0
 8001e18:	615a      	str	r2, [r3, #20]
  hspi1.Init.NSS = SPI_NSS_SOFT;
 8001e1a:	4b0e      	ldr	r3, [pc, #56]	@ (8001e54 <MX_SPI1_Init+0x64>)
 8001e1c:	f44f 7200 	mov.w	r2, #512	@ 0x200
 8001e20:	619a      	str	r2, [r3, #24]
  hspi1.Init.BaudRatePrescaler = SPI_BAUDRATEPRESCALER_64;
 8001e22:	4b0c      	ldr	r3, [pc, #48]	@ (8001e54 <MX_SPI1_Init+0x64>)
 8001e24:	2228      	movs	r2, #40	@ 0x28
 8001e26:	61da      	str	r2, [r3, #28]
  hspi1.Init.FirstBit = SPI_FIRSTBIT_MSB;
 8001e28:	4b0a      	ldr	r3, [pc, #40]	@ (8001e54 <MX_SPI1_Init+0x64>)
 8001e2a:	2200      	movs	r2, #0
 8001e2c:	621a      	str	r2, [r3, #32]
  hspi1.Init.TIMode = SPI_TIMODE_DISABLE;
 8001e2e:	4b09      	ldr	r3, [pc, #36]	@ (8001e54 <MX_SPI1_Init+0x64>)
 8001e30:	2200      	movs	r2, #0
 8001e32:	625a      	str	r2, [r3, #36]	@ 0x24
  hspi1.Init.CRCCalculation = SPI_CRCCALCULATION_DISABLE;
 8001e34:	4b07      	ldr	r3, [pc, #28]	@ (8001e54 <MX_SPI1_Init+0x64>)
 8001e36:	2200      	movs	r2, #0
 8001e38:	629a      	str	r2, [r3, #40]	@ 0x28
  hspi1.Init.CRCPolynomial = 10;
 8001e3a:	4b06      	ldr	r3, [pc, #24]	@ (8001e54 <MX_SPI1_Init+0x64>)
 8001e3c:	220a      	movs	r2, #10
 8001e3e:	62da      	str	r2, [r3, #44]	@ 0x2c
  if (HAL_SPI_Init(&hspi1) != HAL_OK)
 8001e40:	4804      	ldr	r0, [pc, #16]	@ (8001e54 <MX_SPI1_Init+0x64>)
 8001e42:	f002 fec1 	bl	8004bc8 <HAL_SPI_Init>
 8001e46:	4603      	mov	r3, r0
 8001e48:	2b00      	cmp	r3, #0
 8001e4a:	d001      	beq.n	8001e50 <MX_SPI1_Init+0x60>
  {
    Error_Handler();
 8001e4c:	f7ff ffca 	bl	8001de4 <Error_Handler>
  }
  /* USER CODE BEGIN SPI1_Init 2 */

  /* USER CODE END SPI1_Init 2 */

}
 8001e50:	bf00      	nop
 8001e52:	bd80      	pop	{r7, pc}
 8001e54:	20000178 	.word	0x20000178
 8001e58:	40013000 	.word	0x40013000

08001e5c <HAL_SPI_MspInit>:

void HAL_SPI_MspInit(SPI_HandleTypeDef* spiHandle)
{
 8001e5c:	b580      	push	{r7, lr}
 8001e5e:	b088      	sub	sp, #32
 8001e60:	af00      	add	r7, sp, #0
 8001e62:	6078      	str	r0, [r7, #4]

  GPIO_InitTypeDef GPIO_InitStruct = {0};
 8001e64:	f107 0310 	add.w	r3, r7, #16
 8001e68:	2200      	movs	r2, #0
 8001e6a:	601a      	str	r2, [r3, #0]
 8001e6c:	605a      	str	r2, [r3, #4]
 8001e6e:	609a      	str	r2, [r3, #8]
 8001e70:	60da      	str	r2, [r3, #12]
  if(spiHandle->Instance==SPI1)
 8001e72:	687b      	ldr	r3, [r7, #4]
 8001e74:	681b      	ldr	r3, [r3, #0]
 8001e76:	4a15      	ldr	r2, [pc, #84]	@ (8001ecc <HAL_SPI_MspInit+0x70>)
 8001e78:	4293      	cmp	r3, r2
 8001e7a:	d123      	bne.n	8001ec4 <HAL_SPI_MspInit+0x68>
  {
  /* USER CODE BEGIN SPI1_MspInit 0 */

  /* USER CODE END SPI1_MspInit 0 */
    /* SPI1 clock enable */
    __HAL_RCC_SPI1_CLK_ENABLE();
 8001e7c:	4b14      	ldr	r3, [pc, #80]	@ (8001ed0 <HAL_SPI_MspInit+0x74>)
 8001e7e:	699b      	ldr	r3, [r3, #24]
 8001e80:	4a13      	ldr	r2, [pc, #76]	@ (8001ed0 <HAL_SPI_MspInit+0x74>)
 8001e82:	f443 5380 	orr.w	r3, r3, #4096	@ 0x1000
 8001e86:	6193      	str	r3, [r2, #24]
 8001e88:	4b11      	ldr	r3, [pc, #68]	@ (8001ed0 <HAL_SPI_MspInit+0x74>)
 8001e8a:	699b      	ldr	r3, [r3, #24]
 8001e8c:	f403 5380 	and.w	r3, r3, #4096	@ 0x1000
 8001e90:	60fb      	str	r3, [r7, #12]
 8001e92:	68fb      	ldr	r3, [r7, #12]

    __HAL_RCC_GPIOA_CLK_ENABLE();
 8001e94:	4b0e      	ldr	r3, [pc, #56]	@ (8001ed0 <HAL_SPI_MspInit+0x74>)
 8001e96:	699b      	ldr	r3, [r3, #24]
 8001e98:	4a0d      	ldr	r2, [pc, #52]	@ (8001ed0 <HAL_SPI_MspInit+0x74>)
 8001e9a:	f043 0304 	orr.w	r3, r3, #4
 8001e9e:	6193      	str	r3, [r2, #24]
 8001ea0:	4b0b      	ldr	r3, [pc, #44]	@ (8001ed0 <HAL_SPI_MspInit+0x74>)
 8001ea2:	699b      	ldr	r3, [r3, #24]
 8001ea4:	f003 0304 	and.w	r3, r3, #4
 8001ea8:	60bb      	str	r3, [r7, #8]
 8001eaa:	68bb      	ldr	r3, [r7, #8]
    /**SPI1 GPIO Configuration
    PA5     ------> SPI1_SCK
    PA7     ------> SPI1_MOSI
    */
    GPIO_InitStruct.Pin = SCK_Pin|DIN_Pin;
 8001eac:	23a0      	movs	r3, #160	@ 0xa0
 8001eae:	613b      	str	r3, [r7, #16]
    GPIO_InitStruct.Mode = GPIO_MODE_AF_PP;
 8001eb0:	2302      	movs	r3, #2
 8001eb2:	617b      	str	r3, [r7, #20]
    GPIO_InitStruct.Speed = GPIO_SPEED_FREQ_HIGH;
 8001eb4:	2303      	movs	r3, #3
 8001eb6:	61fb      	str	r3, [r7, #28]
    HAL_GPIO_Init(GPIOA, &GPIO_InitStruct);
 8001eb8:	f107 0310 	add.w	r3, r7, #16
 8001ebc:	4619      	mov	r1, r3
 8001ebe:	4805      	ldr	r0, [pc, #20]	@ (8001ed4 <HAL_SPI_MspInit+0x78>)
 8001ec0:	f000 ff8a 	bl	8002dd8 <HAL_GPIO_Init>

  /* USER CODE BEGIN SPI1_MspInit 1 */

  /* USER CODE END SPI1_MspInit 1 */
  }
}
 8001ec4:	bf00      	nop
 8001ec6:	3720      	adds	r7, #32
 8001ec8:	46bd      	mov	sp, r7
 8001eca:	bd80      	pop	{r7, pc}
 8001ecc:	40013000 	.word	0x40013000
 8001ed0:	40021000 	.word	0x40021000
 8001ed4:	40010800 	.word	0x40010800

08001ed8 <HAL_MspInit>:
/* USER CODE END 0 */
/**
  * Initializes the Global MSP.
  */
void HAL_MspInit(void)
{
 8001ed8:	b480      	push	{r7}
 8001eda:	b085      	sub	sp, #20
 8001edc:	af00      	add	r7, sp, #0

  /* USER CODE BEGIN MspInit 0 */

  /* USER CODE END MspInit 0 */

  __HAL_RCC_AFIO_CLK_ENABLE();
 8001ede:	4b15      	ldr	r3, [pc, #84]	@ (8001f34 <HAL_MspInit+0x5c>)
 8001ee0:	699b      	ldr	r3, [r3, #24]
 8001ee2:	4a14      	ldr	r2, [pc, #80]	@ (8001f34 <HAL_MspInit+0x5c>)
 8001ee4:	f043 0301 	orr.w	r3, r3, #1
 8001ee8:	6193      	str	r3, [r2, #24]
 8001eea:	4b12      	ldr	r3, [pc, #72]	@ (8001f34 <HAL_MspInit+0x5c>)
 8001eec:	699b      	ldr	r3, [r3, #24]
 8001eee:	f003 0301 	and.w	r3, r3, #1
 8001ef2:	60bb      	str	r3, [r7, #8]
 8001ef4:	68bb      	ldr	r3, [r7, #8]
  __HAL_RCC_PWR_CLK_ENABLE();
 8001ef6:	4b0f      	ldr	r3, [pc, #60]	@ (8001f34 <HAL_MspInit+0x5c>)
 8001ef8:	69db      	ldr	r3, [r3, #28]
 8001efa:	4a0e      	ldr	r2, [pc, #56]	@ (8001f34 <HAL_MspInit+0x5c>)
 8001efc:	f043 5380 	orr.w	r3, r3, #268435456	@ 0x10000000
 8001f00:	61d3      	str	r3, [r2, #28]
 8001f02:	4b0c      	ldr	r3, [pc, #48]	@ (8001f34 <HAL_MspInit+0x5c>)
 8001f04:	69db      	ldr	r3, [r3, #28]
 8001f06:	f003 5380 	and.w	r3, r3, #268435456	@ 0x10000000
 8001f0a:	607b      	str	r3, [r7, #4]
 8001f0c:	687b      	ldr	r3, [r7, #4]

  /* System interrupt init*/

  /** NOJTAG: JTAG-DP Disabled and SW-DP Enabled
  */
  __HAL_AFIO_REMAP_SWJ_NOJTAG();
 8001f0e:	4b0a      	ldr	r3, [pc, #40]	@ (8001f38 <HAL_MspInit+0x60>)
 8001f10:	685b      	ldr	r3, [r3, #4]
 8001f12:	60fb      	str	r3, [r7, #12]
 8001f14:	68fb      	ldr	r3, [r7, #12]
 8001f16:	f023 63e0 	bic.w	r3, r3, #117440512	@ 0x7000000
 8001f1a:	60fb      	str	r3, [r7, #12]
 8001f1c:	68fb      	ldr	r3, [r7, #12]
 8001f1e:	f043 7300 	orr.w	r3, r3, #33554432	@ 0x2000000
 8001f22:	60fb      	str	r3, [r7, #12]
 8001f24:	4a04      	ldr	r2, [pc, #16]	@ (8001f38 <HAL_MspInit+0x60>)
 8001f26:	68fb      	ldr	r3, [r7, #12]
 8001f28:	6053      	str	r3, [r2, #4]

  /* USER CODE BEGIN MspInit 1 */

  /* USER CODE END MspInit 1 */
}
 8001f2a:	bf00      	nop
 8001f2c:	3714      	adds	r7, #20
 8001f2e:	46bd      	mov	sp, r7
 8001f30:	bc80      	pop	{r7}
 8001f32:	4770      	bx	lr
 8001f34:	40021000 	.word	0x40021000
 8001f38:	40010000 	.word	0x40010000

08001f3c <NMI_Handler>:
/******************************************************************************/
/**
  * @brief This function handles Non maskable interrupt.
  */
void NMI_Handler(void)
{
 8001f3c:	b480      	push	{r7}
 8001f3e:	af00      	add	r7, sp, #0
  /* USER CODE BEGIN NonMaskableInt_IRQn 0 */

  /* USER CODE END NonMaskableInt_IRQn 0 */
  /* USER CODE BEGIN NonMaskableInt_IRQn 1 */
   while (1)
 8001f40:	bf00      	nop
 8001f42:	e7fd      	b.n	8001f40 <NMI_Handler+0x4>

08001f44 <HardFault_Handler>:

/**
  * @brief This function handles Hard fault interrupt.
  */
void HardFault_Handler(void)
{
 8001f44:	b480      	push	{r7}
 8001f46:	af00      	add	r7, sp, #0
  /* USER CODE BEGIN HardFault_IRQn 0 */

  /* USER CODE END HardFault_IRQn 0 */
  while (1)
 8001f48:	bf00      	nop
 8001f4a:	e7fd      	b.n	8001f48 <HardFault_Handler+0x4>

08001f4c <MemManage_Handler>:

/**
  * @brief This function handles Memory management fault.
  */
void MemManage_Handler(void)
{
 8001f4c:	b480      	push	{r7}
 8001f4e:	af00      	add	r7, sp, #0
  /* USER CODE BEGIN MemoryManagement_IRQn 0 */

  /* USER CODE END MemoryManagement_IRQn 0 */
  while (1)
 8001f50:	bf00      	nop
 8001f52:	e7fd      	b.n	8001f50 <MemManage_Handler+0x4>

08001f54 <BusFault_Handler>:

/**
  * @brief This function handles Prefetch fault, memory access fault.
  */
void BusFault_Handler(void)
{
 8001f54:	b480      	push	{r7}
 8001f56:	af00      	add	r7, sp, #0
  /* USER CODE BEGIN BusFault_IRQn 0 */

  /* USER CODE END BusFault_IRQn 0 */
  while (1)
 8001f58:	bf00      	nop
 8001f5a:	e7fd      	b.n	8001f58 <BusFault_Handler+0x4>

08001f5c <UsageFault_Handler>:

/**
  * @brief This function handles Undefined instruction or illegal state.
  */
void UsageFault_Handler(void)
{
 8001f5c:	b480      	push	{r7}
 8001f5e:	af00      	add	r7, sp, #0
  /* USER CODE BEGIN UsageFault_IRQn 0 */

  /* USER CODE END UsageFault_IRQn 0 */
  while (1)
 8001f60:	bf00      	nop
 8001f62:	e7fd      	b.n	8001f60 <UsageFault_Handler+0x4>

08001f64 <SVC_Handler>:

/**
  * @brief This function handles System service call via SWI instruction.
  */
void SVC_Handler(void)
{
 8001f64:	b480      	push	{r7}
 8001f66:	af00      	add	r7, sp, #0

  /* USER CODE END SVCall_IRQn 0 */
  /* USER CODE BEGIN SVCall_IRQn 1 */

  /* USER CODE END SVCall_IRQn 1 */
}
 8001f68:	bf00      	nop
 8001f6a:	46bd      	mov	sp, r7
 8001f6c:	bc80      	pop	{r7}
 8001f6e:	4770      	bx	lr

08001f70 <DebugMon_Handler>:

/**
  * @brief This function handles Debug monitor.
  */
void DebugMon_Handler(void)
{
 8001f70:	b480      	push	{r7}
 8001f72:	af00      	add	r7, sp, #0

  /* USER CODE END DebugMonitor_IRQn 0 */
  /* USER CODE BEGIN DebugMonitor_IRQn 1 */

  /* USER CODE END DebugMonitor_IRQn 1 */
}
 8001f74:	bf00      	nop
 8001f76:	46bd      	mov	sp, r7
 8001f78:	bc80      	pop	{r7}
 8001f7a:	4770      	bx	lr

08001f7c <PendSV_Handler>:

/**
  * @brief This function handles Pendable request for system service.
  */
void PendSV_Handler(void)
{
 8001f7c:	b480      	push	{r7}
 8001f7e:	af00      	add	r7, sp, #0

  /* USER CODE END PendSV_IRQn 0 */
  /* USER CODE BEGIN PendSV_IRQn 1 */

  /* USER CODE END PendSV_IRQn 1 */
}
 8001f80:	bf00      	nop
 8001f82:	46bd      	mov	sp, r7
 8001f84:	bc80      	pop	{r7}
 8001f86:	4770      	bx	lr

08001f88 <SysTick_Handler>:

/**
  * @brief This function handles System tick timer.
  */
void SysTick_Handler(void)
{
 8001f88:	b580      	push	{r7, lr}
 8001f8a:	af00      	add	r7, sp, #0
  /* USER CODE BEGIN SysTick_IRQn 0 */

  /* USER CODE END SysTick_IRQn 0 */
  HAL_IncTick();
 8001f8c:	f000 f926 	bl	80021dc <HAL_IncTick>
  /* USER CODE BEGIN SysTick_IRQn 1 */

  /* USER CODE END SysTick_IRQn 1 */
}
 8001f90:	bf00      	nop
 8001f92:	bd80      	pop	{r7, pc}

08001f94 <ADC1_2_IRQHandler>:

/**
  * @brief This function handles ADC1 and ADC2 global interrupts.
  */
void ADC1_2_IRQHandler(void)
{
 8001f94:	b580      	push	{r7, lr}
 8001f96:	af00      	add	r7, sp, #0
  /* USER CODE BEGIN ADC1_2_IRQn 0 */

  /* USER CODE END ADC1_2_IRQn 0 */
  HAL_ADC_IRQHandler(&hadc1);
 8001f98:	4802      	ldr	r0, [pc, #8]	@ (8001fa4 <ADC1_2_IRQHandler+0x10>)
 8001f9a:	f000 faf9 	bl	8002590 <HAL_ADC_IRQHandler>
  /* USER CODE BEGIN ADC1_2_IRQn 1 */

  /* USER CODE END ADC1_2_IRQn 1 */
}
 8001f9e:	bf00      	nop
 8001fa0:	bd80      	pop	{r7, pc}
 8001fa2:	bf00      	nop
 8001fa4:	20000078 	.word	0x20000078

08001fa8 <EXTI9_5_IRQHandler>:

/**
  * @brief This function handles EXTI line[9:5] interrupts.
  */
void EXTI9_5_IRQHandler(void)
{
 8001fa8:	b580      	push	{r7, lr}
 8001faa:	af00      	add	r7, sp, #0
  /* USER CODE BEGIN EXTI9_5_IRQn 0 */

  /* USER CODE END EXTI9_5_IRQn 0 */
  HAL_GPIO_EXTI_IRQHandler(RTC_IN5_Pin);
 8001fac:	2020      	movs	r0, #32
 8001fae:	f001 f8c7 	bl	8003140 <HAL_GPIO_EXTI_IRQHandler>
  HAL_GPIO_EXTI_IRQHandler(BUTTON4_IN8_Pin);
 8001fb2:	f44f 7080 	mov.w	r0, #256	@ 0x100
 8001fb6:	f001 f8c3 	bl	8003140 <HAL_GPIO_EXTI_IRQHandler>
  /* USER CODE BEGIN EXTI9_5_IRQn 1 */

  /* USER CODE END EXTI9_5_IRQn 1 */
}
 8001fba:	bf00      	nop
 8001fbc:	bd80      	pop	{r7, pc}
	...

08001fc0 <USART1_IRQHandler>:

/**
  * @brief This function handles USART1 global interrupt.
  */
void USART1_IRQHandler(void)
{
 8001fc0:	b580      	push	{r7, lr}
 8001fc2:	af00      	add	r7, sp, #0
  /* USER CODE BEGIN USART1_IRQn 0 */

  /* USER CODE END USART1_IRQn 0 */
  HAL_UART_IRQHandler(&huart1);
 8001fc4:	4802      	ldr	r0, [pc, #8]	@ (8001fd0 <USART1_IRQHandler+0x10>)
 8001fc6:	f002 fef9 	bl	8004dbc <HAL_UART_IRQHandler>
  /* USER CODE BEGIN USART1_IRQn 1 */

  /* USER CODE END USART1_IRQn 1 */
}
 8001fca:	bf00      	nop
 8001fcc:	bd80      	pop	{r7, pc}
 8001fce:	bf00      	nop
 8001fd0:	200001d0 	.word	0x200001d0

08001fd4 <EXTI15_10_IRQHandler>:

/**
  * @brief This function handles EXTI line[15:10] interrupts.
  */
void EXTI15_10_IRQHandler(void)
{
 8001fd4:	b580      	push	{r7, lr}
 8001fd6:	af00      	add	r7, sp, #0
  /* USER CODE BEGIN EXTI15_10_IRQn 0 */

  /* USER CODE END EXTI15_10_IRQn 0 */
  HAL_GPIO_EXTI_IRQHandler(BUTTON0_IN12_Pin);
 8001fd8:	f44f 5080 	mov.w	r0, #4096	@ 0x1000
 8001fdc:	f001 f8b0 	bl	8003140 <HAL_GPIO_EXTI_IRQHandler>
  HAL_GPIO_EXTI_IRQHandler(BUTTON1_IN13_Pin);
 8001fe0:	f44f 5000 	mov.w	r0, #8192	@ 0x2000
 8001fe4:	f001 f8ac 	bl	8003140 <HAL_GPIO_EXTI_IRQHandler>
  HAL_GPIO_EXTI_IRQHandler(BUTTON2_IN14_Pin);
 8001fe8:	f44f 4080 	mov.w	r0, #16384	@ 0x4000
 8001fec:	f001 f8a8 	bl	8003140 <HAL_GPIO_EXTI_IRQHandler>
  HAL_GPIO_EXTI_IRQHandler(BUTTON3_IN15_Pin);
 8001ff0:	f44f 4000 	mov.w	r0, #32768	@ 0x8000
 8001ff4:	f001 f8a4 	bl	8003140 <HAL_GPIO_EXTI_IRQHandler>
  /* USER CODE BEGIN EXTI15_10_IRQn 1 */

  /* USER CODE END EXTI15_10_IRQn 1 */
}
 8001ff8:	bf00      	nop
 8001ffa:	bd80      	pop	{r7, pc}

08001ffc <SystemInit>:
  * @note   This function should be used only after reset.
  * @param  None
  * @retval None
  */
void SystemInit (void)
{
 8001ffc:	b480      	push	{r7}
 8001ffe:	af00      	add	r7, sp, #0

  /* Configure the Vector Table location -------------------------------------*/
#if defined(USER_VECT_TAB_ADDRESS)
  SCB->VTOR = VECT_TAB_BASE_ADDRESS | VECT_TAB_OFFSET; /* Vector Table Relocation in Internal SRAM. */
#endif /* USER_VECT_TAB_ADDRESS */
}
 8002000:	bf00      	nop
 8002002:	46bd      	mov	sp, r7
 8002004:	bc80      	pop	{r7}
 8002006:	4770      	bx	lr

08002008 <MX_USART1_UART_Init>:
UART_HandleTypeDef huart1;

/* USART1 init function */

void MX_USART1_UART_Init(void)
{
 8002008:	b580      	push	{r7, lr}
 800200a:	af00      	add	r7, sp, #0
  /* USER CODE END USART1_Init 0 */

  /* USER CODE BEGIN USART1_Init 1 */

  /* USER CODE END USART1_Init 1 */
  huart1.Instance = USART1;
 800200c:	4b11      	ldr	r3, [pc, #68]	@ (8002054 <MX_USART1_UART_Init+0x4c>)
 800200e:	4a12      	ldr	r2, [pc, #72]	@ (8002058 <MX_USART1_UART_Init+0x50>)
 8002010:	601a      	str	r2, [r3, #0]
  huart1.Init.BaudRate = 9600;
 8002012:	4b10      	ldr	r3, [pc, #64]	@ (8002054 <MX_USART1_UART_Init+0x4c>)
 8002014:	f44f 5216 	mov.w	r2, #9600	@ 0x2580
 8002018:	605a      	str	r2, [r3, #4]
  huart1.Init.WordLength = UART_WORDLENGTH_8B;
 800201a:	4b0e      	ldr	r3, [pc, #56]	@ (8002054 <MX_USART1_UART_Init+0x4c>)
 800201c:	2200      	movs	r2, #0
 800201e:	609a      	str	r2, [r3, #8]
  huart1.Init.StopBits = UART_STOPBITS_1;
 8002020:	4b0c      	ldr	r3, [pc, #48]	@ (8002054 <MX_USART1_UART_Init+0x4c>)
 8002022:	2200      	movs	r2, #0
 8002024:	60da      	str	r2, [r3, #12]
  huart1.Init.Parity = UART_PARITY_NONE;
 8002026:	4b0b      	ldr	r3, [pc, #44]	@ (8002054 <MX_USART1_UART_Init+0x4c>)
 8002028:	2200      	movs	r2, #0
 800202a:	611a      	str	r2, [r3, #16]
  huart1.Init.Mode = UART_MODE_TX_RX;
 800202c:	4b09      	ldr	r3, [pc, #36]	@ (8002054 <MX_USART1_UART_Init+0x4c>)
 800202e:	220c      	movs	r2, #12
 8002030:	615a      	str	r2, [r3, #20]
  huart1.Init.HwFlowCtl = UART_HWCONTROL_NONE;
 8002032:	4b08      	ldr	r3, [pc, #32]	@ (8002054 <MX_USART1_UART_Init+0x4c>)
 8002034:	2200      	movs	r2, #0
 8002036:	619a      	str	r2, [r3, #24]
  huart1.Init.OverSampling = UART_OVERSAMPLING_16;
 8002038:	4b06      	ldr	r3, [pc, #24]	@ (8002054 <MX_USART1_UART_Init+0x4c>)
 800203a:	2200      	movs	r2, #0
 800203c:	61da      	str	r2, [r3, #28]
  if (HAL_UART_Init(&huart1) != HAL_OK)
 800203e:	4805      	ldr	r0, [pc, #20]	@ (8002054 <MX_USART1_UART_Init+0x4c>)
 8002040:	f002 fe46 	bl	8004cd0 <HAL_UART_Init>
 8002044:	4603      	mov	r3, r0
 8002046:	2b00      	cmp	r3, #0
 8002048:	d001      	beq.n	800204e <MX_USART1_UART_Init+0x46>
  {
    Error_Handler();
 800204a:	f7ff fecb 	bl	8001de4 <Error_Handler>
  }
  /* USER CODE BEGIN USART1_Init 2 */

  /* USER CODE END USART1_Init 2 */

}
 800204e:	bf00      	nop
 8002050:	bd80      	pop	{r7, pc}
 8002052:	bf00      	nop
 8002054:	200001d0 	.word	0x200001d0
 8002058:	40013800 	.word	0x40013800

0800205c <HAL_UART_MspInit>:

void HAL_UART_MspInit(UART_HandleTypeDef* uartHandle)
{
 800205c:	b580      	push	{r7, lr}
 800205e:	b088      	sub	sp, #32
 8002060:	af00      	add	r7, sp, #0
 8002062:	6078      	str	r0, [r7, #4]

  GPIO_InitTypeDef GPIO_InitStruct = {0};
 8002064:	f107 0310 	add.w	r3, r7, #16
 8002068:	2200      	movs	r2, #0
 800206a:	601a      	str	r2, [r3, #0]
 800206c:	605a      	str	r2, [r3, #4]
 800206e:	609a      	str	r2, [r3, #8]
 8002070:	60da      	str	r2, [r3, #12]
  if(uartHandle->Instance==USART1)
 8002072:	687b      	ldr	r3, [r7, #4]
 8002074:	681b      	ldr	r3, [r3, #0]
 8002076:	4a20      	ldr	r2, [pc, #128]	@ (80020f8 <HAL_UART_MspInit+0x9c>)
 8002078:	4293      	cmp	r3, r2
 800207a:	d139      	bne.n	80020f0 <HAL_UART_MspInit+0x94>
  {
  /* USER CODE BEGIN USART1_MspInit 0 */

  /* USER CODE END USART1_MspInit 0 */
    /* USART1 clock enable */
    __HAL_RCC_USART1_CLK_ENABLE();
 800207c:	4b1f      	ldr	r3, [pc, #124]	@ (80020fc <HAL_UART_MspInit+0xa0>)
 800207e:	699b      	ldr	r3, [r3, #24]
 8002080:	4a1e      	ldr	r2, [pc, #120]	@ (80020fc <HAL_UART_MspInit+0xa0>)
 8002082:	f443 4380 	orr.w	r3, r3, #16384	@ 0x4000
 8002086:	6193      	str	r3, [r2, #24]
 8002088:	4b1c      	ldr	r3, [pc, #112]	@ (80020fc <HAL_UART_MspInit+0xa0>)
 800208a:	699b      	ldr	r3, [r3, #24]
 800208c:	f403 4380 	and.w	r3, r3, #16384	@ 0x4000
 8002090:	60fb      	str	r3, [r7, #12]
 8002092:	68fb      	ldr	r3, [r7, #12]

    __HAL_RCC_GPIOA_CLK_ENABLE();
 8002094:	4b19      	ldr	r3, [pc, #100]	@ (80020fc <HAL_UART_MspInit+0xa0>)
 8002096:	699b      	ldr	r3, [r3, #24]
 8002098:	4a18      	ldr	r2, [pc, #96]	@ (80020fc <HAL_UART_MspInit+0xa0>)
 800209a:	f043 0304 	orr.w	r3, r3, #4
 800209e:	6193      	str	r3, [r2, #24]
 80020a0:	4b16      	ldr	r3, [pc, #88]	@ (80020fc <HAL_UART_MspInit+0xa0>)
 80020a2:	699b      	ldr	r3, [r3, #24]
 80020a4:	f003 0304 	and.w	r3, r3, #4
 80020a8:	60bb      	str	r3, [r7, #8]
 80020aa:	68bb      	ldr	r3, [r7, #8]
    /**USART1 GPIO Configuration
    PA9     ------> USART1_TX
    PA10     ------> USART1_RX
    */
    GPIO_InitStruct.Pin = GPIO_PIN_9;
 80020ac:	f44f 7300 	mov.w	r3, #512	@ 0x200
 80020b0:	613b      	str	r3, [r7, #16]
    GPIO_InitStruct.Mode = GPIO_MODE_AF_PP;
 80020b2:	2302      	movs	r3, #2
 80020b4:	617b      	str	r3, [r7, #20]
    GPIO_InitStruct.Speed = GPIO_SPEED_FREQ_HIGH;
 80020b6:	2303      	movs	r3, #3
 80020b8:	61fb      	str	r3, [r7, #28]
    HAL_GPIO_Init(GPIOA, &GPIO_InitStruct);
 80020ba:	f107 0310 	add.w	r3, r7, #16
 80020be:	4619      	mov	r1, r3
 80020c0:	480f      	ldr	r0, [pc, #60]	@ (8002100 <HAL_UART_MspInit+0xa4>)
 80020c2:	f000 fe89 	bl	8002dd8 <HAL_GPIO_Init>

    GPIO_InitStruct.Pin = GPIO_PIN_10;
 80020c6:	f44f 6380 	mov.w	r3, #1024	@ 0x400
 80020ca:	613b      	str	r3, [r7, #16]
    GPIO_InitStruct.Mode = GPIO_MODE_INPUT;
 80020cc:	2300      	movs	r3, #0
 80020ce:	617b      	str	r3, [r7, #20]
    GPIO_InitStruct.Pull = GPIO_NOPULL;
 80020d0:	2300      	movs	r3, #0
 80020d2:	61bb      	str	r3, [r7, #24]
    HAL_GPIO_Init(GPIOA, &GPIO_InitStruct);
 80020d4:	f107 0310 	add.w	r3, r7, #16
 80020d8:	4619      	mov	r1, r3
 80020da:	4809      	ldr	r0, [pc, #36]	@ (8002100 <HAL_UART_MspInit+0xa4>)
 80020dc:	f000 fe7c 	bl	8002dd8 <HAL_GPIO_Init>

    /* USART1 interrupt Init */
    HAL_NVIC_SetPriority(USART1_IRQn, 0, 0);
 80020e0:	2200      	movs	r2, #0
 80020e2:	2100      	movs	r1, #0
 80020e4:	2025      	movs	r0, #37	@ 0x25
 80020e6:	f000 fd8e 	bl	8002c06 <HAL_NVIC_SetPriority>
    HAL_NVIC_EnableIRQ(USART1_IRQn);
 80020ea:	2025      	movs	r0, #37	@ 0x25
 80020ec:	f000 fda7 	bl	8002c3e <HAL_NVIC_EnableIRQ>
  /* USER CODE BEGIN USART1_MspInit 1 */

  /* USER CODE END USART1_MspInit 1 */
  }
}
 80020f0:	bf00      	nop
 80020f2:	3720      	adds	r7, #32
 80020f4:	46bd      	mov	sp, r7
 80020f6:	bd80      	pop	{r7, pc}
 80020f8:	40013800 	.word	0x40013800
 80020fc:	40021000 	.word	0x40021000
 8002100:	40010800 	.word	0x40010800

08002104 <Reset_Handler>:
  .weak Reset_Handler
  .type Reset_Handler, %function
Reset_Handler:

/* Call the clock system initialization function.*/
    bl  SystemInit
 8002104:	f7ff ff7a 	bl	8001ffc <SystemInit>

/* Copy the data segment initializers from flash to SRAM */
  ldr r0, =_sdata
 8002108:	480b      	ldr	r0, [pc, #44]	@ (8002138 <LoopFillZerobss+0xe>)
  ldr r1, =_edata
 800210a:	490c      	ldr	r1, [pc, #48]	@ (800213c <LoopFillZerobss+0x12>)
  ldr r2, =_sidata
 800210c:	4a0c      	ldr	r2, [pc, #48]	@ (8002140 <LoopFillZerobss+0x16>)
  movs r3, #0
 800210e:	2300      	movs	r3, #0
  b LoopCopyDataInit
 8002110:	e002      	b.n	8002118 <LoopCopyDataInit>

08002112 <CopyDataInit>:

CopyDataInit:
  ldr r4, [r2, r3]
 8002112:	58d4      	ldr	r4, [r2, r3]
  str r4, [r0, r3]
 8002114:	50c4      	str	r4, [r0, r3]
  adds r3, r3, #4
 8002116:	3304      	adds	r3, #4

08002118 <LoopCopyDataInit>:

LoopCopyDataInit:
  adds r4, r0, r3
 8002118:	18c4      	adds	r4, r0, r3
  cmp r4, r1
 800211a:	428c      	cmp	r4, r1
  bcc CopyDataInit
 800211c:	d3f9      	bcc.n	8002112 <CopyDataInit>
  
/* Zero fill the bss segment. */
  ldr r2, =_sbss
 800211e:	4a09      	ldr	r2, [pc, #36]	@ (8002144 <LoopFillZerobss+0x1a>)
  ldr r4, =_ebss
 8002120:	4c09      	ldr	r4, [pc, #36]	@ (8002148 <LoopFillZerobss+0x1e>)
  movs r3, #0
 8002122:	2300      	movs	r3, #0
  b LoopFillZerobss
 8002124:	e001      	b.n	800212a <LoopFillZerobss>

08002126 <FillZerobss>:

FillZerobss:
  str  r3, [r2]
 8002126:	6013      	str	r3, [r2, #0]
  adds r2, r2, #4
 8002128:	3204      	adds	r2, #4

0800212a <LoopFillZerobss>:

LoopFillZerobss:
  cmp r2, r4
 800212a:	42a2      	cmp	r2, r4
  bcc FillZerobss
 800212c:	d3fb      	bcc.n	8002126 <FillZerobss>

/* Call static constructors */
    bl __libc_init_array
 800212e:	f003 fb5f 	bl	80057f0 <__libc_init_array>
/* Call the application's entry point.*/
  bl main
 8002132:	f7fe f99d 	bl	8000470 <main>
  bx lr
 8002136:	4770      	bx	lr
  ldr r0, =_sdata
 8002138:	20000000 	.word	0x20000000
  ldr r1, =_edata
 800213c:	2000005c 	.word	0x2000005c
  ldr r2, =_sidata
 8002140:	08005894 	.word	0x08005894
  ldr r2, =_sbss
 8002144:	2000005c 	.word	0x2000005c
  ldr r4, =_ebss
 8002148:	2000021c 	.word	0x2000021c

0800214c <CAN1_RX1_IRQHandler>:
 * @retval : None
*/
    .section .text.Default_Handler,"ax",%progbits
Default_Handler:
Infinite_Loop:
  b Infinite_Loop
 800214c:	e7fe      	b.n	800214c <CAN1_RX1_IRQHandler>
	...

08002150 <HAL_Init>:
  *         need to ensure that the SysTick time base is always set to 1 millisecond
  *         to have correct HAL operation.
  * @retval HAL status
  */
HAL_StatusTypeDef HAL_Init(void)
{
 8002150:	b580      	push	{r7, lr}
 8002152:	af00      	add	r7, sp, #0
    defined(STM32F102x6) || defined(STM32F102xB) || \
    defined(STM32F103x6) || defined(STM32F103xB) || defined(STM32F103xE) || defined(STM32F103xG) || \
    defined(STM32F105xC) || defined(STM32F107xC)

  /* Prefetch buffer is not available on value line devices */
  __HAL_FLASH_PREFETCH_BUFFER_ENABLE();
 8002154:	4b08      	ldr	r3, [pc, #32]	@ (8002178 <HAL_Init+0x28>)
 8002156:	681b      	ldr	r3, [r3, #0]
 8002158:	4a07      	ldr	r2, [pc, #28]	@ (8002178 <HAL_Init+0x28>)
 800215a:	f043 0310 	orr.w	r3, r3, #16
 800215e:	6013      	str	r3, [r2, #0]
#endif
#endif /* PREFETCH_ENABLE */

  /* Set Interrupt Group Priority */
  HAL_NVIC_SetPriorityGrouping(NVIC_PRIORITYGROUP_4);
 8002160:	2003      	movs	r0, #3
 8002162:	f000 fd45 	bl	8002bf0 <HAL_NVIC_SetPriorityGrouping>

  /* Use systick as time base source and configure 1ms tick (default clock after Reset is HSI) */
  HAL_InitTick(TICK_INT_PRIORITY);
 8002166:	200f      	movs	r0, #15
 8002168:	f000 f808 	bl	800217c <HAL_InitTick>

  /* Init the low level hardware */
  HAL_MspInit();
 800216c:	f7ff feb4 	bl	8001ed8 <HAL_MspInit>

  /* Return function status */
  return HAL_OK;
 8002170:	2300      	movs	r3, #0
}
 8002172:	4618      	mov	r0, r3
 8002174:	bd80      	pop	{r7, pc}
 8002176:	bf00      	nop
 8002178:	40022000 	.word	0x40022000

0800217c <HAL_InitTick>:
  *       implementation  in user file.
  * @param TickPriority Tick interrupt priority.
  * @retval HAL status
  */
__weak HAL_StatusTypeDef HAL_InitTick(uint32_t TickPriority)
{
 800217c:	b580      	push	{r7, lr}
 800217e:	b082      	sub	sp, #8
 8002180:	af00      	add	r7, sp, #0
 8002182:	6078      	str	r0, [r7, #4]
  /* Configure the SysTick to have interrupt in 1ms time basis*/
  if (HAL_SYSTICK_Config(SystemCoreClock / (1000U / uwTickFreq)) > 0U)
 8002184:	4b12      	ldr	r3, [pc, #72]	@ (80021d0 <HAL_InitTick+0x54>)
 8002186:	681a      	ldr	r2, [r3, #0]
 8002188:	4b12      	ldr	r3, [pc, #72]	@ (80021d4 <HAL_InitTick+0x58>)
 800218a:	781b      	ldrb	r3, [r3, #0]
 800218c:	4619      	mov	r1, r3
 800218e:	f44f 737a 	mov.w	r3, #1000	@ 0x3e8
 8002192:	fbb3 f3f1 	udiv	r3, r3, r1
 8002196:	fbb2 f3f3 	udiv	r3, r2, r3
 800219a:	4618      	mov	r0, r3
 800219c:	f000 fd5d 	bl	8002c5a <HAL_SYSTICK_Config>
 80021a0:	4603      	mov	r3, r0
 80021a2:	2b00      	cmp	r3, #0
 80021a4:	d001      	beq.n	80021aa <HAL_InitTick+0x2e>
  {
    return HAL_ERROR;
 80021a6:	2301      	movs	r3, #1
 80021a8:	e00e      	b.n	80021c8 <HAL_InitTick+0x4c>
  }

  /* Configure the SysTick IRQ priority */
  if (TickPriority < (1UL << __NVIC_PRIO_BITS))
 80021aa:	687b      	ldr	r3, [r7, #4]
 80021ac:	2b0f      	cmp	r3, #15
 80021ae:	d80a      	bhi.n	80021c6 <HAL_InitTick+0x4a>
  {
    HAL_NVIC_SetPriority(SysTick_IRQn, TickPriority, 0U);
 80021b0:	2200      	movs	r2, #0
 80021b2:	6879      	ldr	r1, [r7, #4]
 80021b4:	f04f 30ff 	mov.w	r0, #4294967295
 80021b8:	f000 fd25 	bl	8002c06 <HAL_NVIC_SetPriority>
    uwTickPrio = TickPriority;
 80021bc:	4a06      	ldr	r2, [pc, #24]	@ (80021d8 <HAL_InitTick+0x5c>)
 80021be:	687b      	ldr	r3, [r7, #4]
 80021c0:	6013      	str	r3, [r2, #0]
  {
    return HAL_ERROR;
  }

  /* Return function status */
  return HAL_OK;
 80021c2:	2300      	movs	r3, #0
 80021c4:	e000      	b.n	80021c8 <HAL_InitTick+0x4c>
    return HAL_ERROR;
 80021c6:	2301      	movs	r3, #1
}
 80021c8:	4618      	mov	r0, r3
 80021ca:	3708      	adds	r7, #8
 80021cc:	46bd      	mov	sp, r7
 80021ce:	bd80      	pop	{r7, pc}
 80021d0:	20000050 	.word	0x20000050
 80021d4:	20000058 	.word	0x20000058
 80021d8:	20000054 	.word	0x20000054

080021dc <HAL_IncTick>:
  * @note This function is declared as __weak to be overwritten in case of other
  *      implementations in user file.
  * @retval None
  */
__weak void HAL_IncTick(void)
{
 80021dc:	b480      	push	{r7}
 80021de:	af00      	add	r7, sp, #0
  uwTick += uwTickFreq;
 80021e0:	4b05      	ldr	r3, [pc, #20]	@ (80021f8 <HAL_IncTick+0x1c>)
 80021e2:	781b      	ldrb	r3, [r3, #0]
 80021e4:	461a      	mov	r2, r3
 80021e6:	4b05      	ldr	r3, [pc, #20]	@ (80021fc <HAL_IncTick+0x20>)
 80021e8:	681b      	ldr	r3, [r3, #0]
 80021ea:	4413      	add	r3, r2
 80021ec:	4a03      	ldr	r2, [pc, #12]	@ (80021fc <HAL_IncTick+0x20>)
 80021ee:	6013      	str	r3, [r2, #0]
}
 80021f0:	bf00      	nop
 80021f2:	46bd      	mov	sp, r7
 80021f4:	bc80      	pop	{r7}
 80021f6:	4770      	bx	lr
 80021f8:	20000058 	.word	0x20000058
 80021fc:	20000218 	.word	0x20000218

08002200 <HAL_GetTick>:
  * @note  This function is declared as __weak to be overwritten in case of other
  *       implementations in user file.
  * @retval tick value
  */
__weak uint32_t HAL_GetTick(void)
{
 8002200:	b480      	push	{r7}
 8002202:	af00      	add	r7, sp, #0
  return uwTick;
 8002204:	4b02      	ldr	r3, [pc, #8]	@ (8002210 <HAL_GetTick+0x10>)
 8002206:	681b      	ldr	r3, [r3, #0]
}
 8002208:	4618      	mov	r0, r3
 800220a:	46bd      	mov	sp, r7
 800220c:	bc80      	pop	{r7}
 800220e:	4770      	bx	lr
 8002210:	20000218 	.word	0x20000218

08002214 <HAL_Delay>:
  *       implementations in user file.
  * @param Delay specifies the delay time length, in milliseconds.
  * @retval None
  */
__weak void HAL_Delay(uint32_t Delay)
{
 8002214:	b580      	push	{r7, lr}
 8002216:	b084      	sub	sp, #16
 8002218:	af00      	add	r7, sp, #0
 800221a:	6078      	str	r0, [r7, #4]
  uint32_t tickstart = HAL_GetTick();
 800221c:	f7ff fff0 	bl	8002200 <HAL_GetTick>
 8002220:	60b8      	str	r0, [r7, #8]
  uint32_t wait = Delay;
 8002222:	687b      	ldr	r3, [r7, #4]
 8002224:	60fb      	str	r3, [r7, #12]

  /* Add a freq to guarantee minimum wait */
  if (wait < HAL_MAX_DELAY)
 8002226:	68fb      	ldr	r3, [r7, #12]
 8002228:	f1b3 3fff 	cmp.w	r3, #4294967295
 800222c:	d005      	beq.n	800223a <HAL_Delay+0x26>
  {
    wait += (uint32_t)(uwTickFreq);
 800222e:	4b0a      	ldr	r3, [pc, #40]	@ (8002258 <HAL_Delay+0x44>)
 8002230:	781b      	ldrb	r3, [r3, #0]
 8002232:	461a      	mov	r2, r3
 8002234:	68fb      	ldr	r3, [r7, #12]
 8002236:	4413      	add	r3, r2
 8002238:	60fb      	str	r3, [r7, #12]
  }

  while ((HAL_GetTick() - tickstart) < wait)
 800223a:	bf00      	nop
 800223c:	f7ff ffe0 	bl	8002200 <HAL_GetTick>
 8002240:	4602      	mov	r2, r0
 8002242:	68bb      	ldr	r3, [r7, #8]
 8002244:	1ad3      	subs	r3, r2, r3
 8002246:	68fa      	ldr	r2, [r7, #12]
 8002248:	429a      	cmp	r2, r3
 800224a:	d8f7      	bhi.n	800223c <HAL_Delay+0x28>
  {
  }
}
 800224c:	bf00      	nop
 800224e:	bf00      	nop
 8002250:	3710      	adds	r7, #16
 8002252:	46bd      	mov	sp, r7
 8002254:	bd80      	pop	{r7, pc}
 8002256:	bf00      	nop
 8002258:	20000058 	.word	0x20000058

0800225c <HAL_ADC_Init>:
  *         of structure "ADC_InitTypeDef".
  * @param  hadc: ADC handle
  * @retval HAL status
  */
HAL_StatusTypeDef HAL_ADC_Init(ADC_HandleTypeDef* hadc)
{
 800225c:	b580      	push	{r7, lr}
 800225e:	b086      	sub	sp, #24
 8002260:	af00      	add	r7, sp, #0
 8002262:	6078      	str	r0, [r7, #4]
  HAL_StatusTypeDef tmp_hal_status = HAL_OK;
 8002264:	2300      	movs	r3, #0
 8002266:	75fb      	strb	r3, [r7, #23]
  uint32_t tmp_cr1 = 0U;
 8002268:	2300      	movs	r3, #0
 800226a:	613b      	str	r3, [r7, #16]
  uint32_t tmp_cr2 = 0U;
 800226c:	2300      	movs	r3, #0
 800226e:	60bb      	str	r3, [r7, #8]
  uint32_t tmp_sqr1 = 0U;
 8002270:	2300      	movs	r3, #0
 8002272:	60fb      	str	r3, [r7, #12]
  
  /* Check ADC handle */
  if(hadc == NULL)
 8002274:	687b      	ldr	r3, [r7, #4]
 8002276:	2b00      	cmp	r3, #0
 8002278:	d101      	bne.n	800227e <HAL_ADC_Init+0x22>
  {
    return HAL_ERROR;
 800227a:	2301      	movs	r3, #1
 800227c:	e0be      	b.n	80023fc <HAL_ADC_Init+0x1a0>
  assert_param(IS_ADC_DATA_ALIGN(hadc->Init.DataAlign));
  assert_param(IS_ADC_SCAN_MODE(hadc->Init.ScanConvMode));
  assert_param(IS_FUNCTIONAL_STATE(hadc->Init.ContinuousConvMode));
  assert_param(IS_ADC_EXTTRIG(hadc->Init.ExternalTrigConv));
  
  if(hadc->Init.ScanConvMode != ADC_SCAN_DISABLE)
 800227e:	687b      	ldr	r3, [r7, #4]
 8002280:	689b      	ldr	r3, [r3, #8]
 8002282:	2b00      	cmp	r3, #0
  /* Refer to header of this file for more details on clock enabling          */
  /* procedure.                                                               */

  /* Actions performed only if ADC is coming from state reset:                */
  /* - Initialization of ADC MSP                                              */
  if (hadc->State == HAL_ADC_STATE_RESET)
 8002284:	687b      	ldr	r3, [r7, #4]
 8002286:	6a9b      	ldr	r3, [r3, #40]	@ 0x28
 8002288:	2b00      	cmp	r3, #0
 800228a:	d109      	bne.n	80022a0 <HAL_ADC_Init+0x44>
  {
    /* Initialize ADC error code */
    ADC_CLEAR_ERRORCODE(hadc);
 800228c:	687b      	ldr	r3, [r7, #4]
 800228e:	2200      	movs	r2, #0
 8002290:	62da      	str	r2, [r3, #44]	@ 0x2c
    
    /* Allocate lock resource and initialize it */
    hadc->Lock = HAL_UNLOCKED;
 8002292:	687b      	ldr	r3, [r7, #4]
 8002294:	2200      	movs	r2, #0
 8002296:	f883 2024 	strb.w	r2, [r3, #36]	@ 0x24
    
    /* Init the low level hardware */
    hadc->MspInitCallback(hadc);
#else
    /* Init the low level hardware */
    HAL_ADC_MspInit(hadc);
 800229a:	6878      	ldr	r0, [r7, #4]
 800229c:	f7fd ff94 	bl	80001c8 <HAL_ADC_MspInit>
  /* Stop potential conversion on going, on regular and injected groups */
  /* Disable ADC peripheral */
  /* Note: In case of ADC already enabled, precaution to not launch an        */
  /*       unwanted conversion while modifying register CR2 by writing 1 to   */
  /*       bit ADON.                                                          */
  tmp_hal_status = ADC_ConversionStop_Disable(hadc);
 80022a0:	6878      	ldr	r0, [r7, #4]
 80022a2:	f000 fb8f 	bl	80029c4 <ADC_ConversionStop_Disable>
 80022a6:	4603      	mov	r3, r0
 80022a8:	75fb      	strb	r3, [r7, #23]
  
  
  /* Configuration of ADC parameters if previous preliminary actions are      */ 
  /* correctly completed.                                                     */
  if (HAL_IS_BIT_CLR(hadc->State, HAL_ADC_STATE_ERROR_INTERNAL) &&
 80022aa:	687b      	ldr	r3, [r7, #4]
 80022ac:	6a9b      	ldr	r3, [r3, #40]	@ 0x28
 80022ae:	f003 0310 	and.w	r3, r3, #16
 80022b2:	2b00      	cmp	r3, #0
 80022b4:	f040 8099 	bne.w	80023ea <HAL_ADC_Init+0x18e>
 80022b8:	7dfb      	ldrb	r3, [r7, #23]
 80022ba:	2b00      	cmp	r3, #0
 80022bc:	f040 8095 	bne.w	80023ea <HAL_ADC_Init+0x18e>
      (tmp_hal_status == HAL_OK)                                  )
  {
    /* Set ADC state */
    ADC_STATE_CLR_SET(hadc->State,
 80022c0:	687b      	ldr	r3, [r7, #4]
 80022c2:	6a9b      	ldr	r3, [r3, #40]	@ 0x28
 80022c4:	f423 5388 	bic.w	r3, r3, #4352	@ 0x1100
 80022c8:	f023 0302 	bic.w	r3, r3, #2
 80022cc:	f043 0202 	orr.w	r2, r3, #2
 80022d0:	687b      	ldr	r3, [r7, #4]
 80022d2:	629a      	str	r2, [r3, #40]	@ 0x28
    /*  - continuous conversion mode                                          */
    /* Note: External trigger polarity (ADC_CR2_EXTTRIG) is set into          */
    /*       HAL_ADC_Start_xxx functions because if set in this function,     */
    /*       a conversion on injected group would start a conversion also on  */
    /*       regular group after ADC enabling.                                */
    tmp_cr2 |= (hadc->Init.DataAlign                                          |
 80022d4:	687b      	ldr	r3, [r7, #4]
 80022d6:	685a      	ldr	r2, [r3, #4]
                ADC_CFGR_EXTSEL(hadc, hadc->Init.ExternalTrigConv)            |
 80022d8:	687b      	ldr	r3, [r7, #4]
 80022da:	69db      	ldr	r3, [r3, #28]
    tmp_cr2 |= (hadc->Init.DataAlign                                          |
 80022dc:	431a      	orrs	r2, r3
                ADC_CR2_CONTINUOUS((uint32_t)hadc->Init.ContinuousConvMode)   );
 80022de:	687b      	ldr	r3, [r7, #4]
 80022e0:	7b1b      	ldrb	r3, [r3, #12]
 80022e2:	005b      	lsls	r3, r3, #1
                ADC_CFGR_EXTSEL(hadc, hadc->Init.ExternalTrigConv)            |
 80022e4:	4313      	orrs	r3, r2
    tmp_cr2 |= (hadc->Init.DataAlign                                          |
 80022e6:	68ba      	ldr	r2, [r7, #8]
 80022e8:	4313      	orrs	r3, r2
 80022ea:	60bb      	str	r3, [r7, #8]

    /* Configuration of ADC:                                                  */
    /*  - scan mode                                                           */
    /*  - discontinuous mode disable/enable                                   */
    /*  - discontinuous mode number of conversions                            */
    tmp_cr1 |= (ADC_CR1_SCAN_SET(hadc->Init.ScanConvMode));
 80022ec:	687b      	ldr	r3, [r7, #4]
 80022ee:	689b      	ldr	r3, [r3, #8]
 80022f0:	f5b3 7f80 	cmp.w	r3, #256	@ 0x100
 80022f4:	d003      	beq.n	80022fe <HAL_ADC_Init+0xa2>
 80022f6:	687b      	ldr	r3, [r7, #4]
 80022f8:	689b      	ldr	r3, [r3, #8]
 80022fa:	2b01      	cmp	r3, #1
 80022fc:	d102      	bne.n	8002304 <HAL_ADC_Init+0xa8>
 80022fe:	f44f 7380 	mov.w	r3, #256	@ 0x100
 8002302:	e000      	b.n	8002306 <HAL_ADC_Init+0xaa>
 8002304:	2300      	movs	r3, #0
 8002306:	693a      	ldr	r2, [r7, #16]
 8002308:	4313      	orrs	r3, r2
 800230a:	613b      	str	r3, [r7, #16]
    
    /* Enable discontinuous mode only if continuous mode is disabled */
    /* Note: If parameter "Init.ScanConvMode" is set to disable, parameter    */
    /*       discontinuous is set anyway, but will have no effect on ADC HW.  */
    if (hadc->Init.DiscontinuousConvMode == ENABLE)
 800230c:	687b      	ldr	r3, [r7, #4]
 800230e:	7d1b      	ldrb	r3, [r3, #20]
 8002310:	2b01      	cmp	r3, #1
 8002312:	d119      	bne.n	8002348 <HAL_ADC_Init+0xec>
    {
      if (hadc->Init.ContinuousConvMode == DISABLE)
 8002314:	687b      	ldr	r3, [r7, #4]
 8002316:	7b1b      	ldrb	r3, [r3, #12]
 8002318:	2b00      	cmp	r3, #0
 800231a:	d109      	bne.n	8002330 <HAL_ADC_Init+0xd4>
      {
        /* Enable the selected ADC regular discontinuous mode */
        /* Set the number of channels to be converted in discontinuous mode */
        SET_BIT(tmp_cr1, ADC_CR1_DISCEN                                            |
 800231c:	687b      	ldr	r3, [r7, #4]
 800231e:	699b      	ldr	r3, [r3, #24]
 8002320:	3b01      	subs	r3, #1
 8002322:	035a      	lsls	r2, r3, #13
 8002324:	693b      	ldr	r3, [r7, #16]
 8002326:	4313      	orrs	r3, r2
 8002328:	f443 6300 	orr.w	r3, r3, #2048	@ 0x800
 800232c:	613b      	str	r3, [r7, #16]
 800232e:	e00b      	b.n	8002348 <HAL_ADC_Init+0xec>
      {
        /* ADC regular group settings continuous and sequencer discontinuous*/
        /* cannot be enabled simultaneously.                                */
        
        /* Update ADC state machine to error */
        SET_BIT(hadc->State, HAL_ADC_STATE_ERROR_CONFIG);
 8002330:	687b      	ldr	r3, [r7, #4]
 8002332:	6a9b      	ldr	r3, [r3, #40]	@ 0x28
 8002334:	f043 0220 	orr.w	r2, r3, #32
 8002338:	687b      	ldr	r3, [r7, #4]
 800233a:	629a      	str	r2, [r3, #40]	@ 0x28
        
        /* Set ADC error code to ADC IP internal error */
        SET_BIT(hadc->ErrorCode, HAL_ADC_ERROR_INTERNAL);
 800233c:	687b      	ldr	r3, [r7, #4]
 800233e:	6adb      	ldr	r3, [r3, #44]	@ 0x2c
 8002340:	f043 0201 	orr.w	r2, r3, #1
 8002344:	687b      	ldr	r3, [r7, #4]
 8002346:	62da      	str	r2, [r3, #44]	@ 0x2c
      }
    }
    
    /* Update ADC configuration register CR1 with previous settings */
      MODIFY_REG(hadc->Instance->CR1,
 8002348:	687b      	ldr	r3, [r7, #4]
 800234a:	681b      	ldr	r3, [r3, #0]
 800234c:	685b      	ldr	r3, [r3, #4]
 800234e:	f423 4169 	bic.w	r1, r3, #59648	@ 0xe900
 8002352:	687b      	ldr	r3, [r7, #4]
 8002354:	681b      	ldr	r3, [r3, #0]
 8002356:	693a      	ldr	r2, [r7, #16]
 8002358:	430a      	orrs	r2, r1
 800235a:	605a      	str	r2, [r3, #4]
                 ADC_CR1_DISCEN  |
                 ADC_CR1_DISCNUM    ,
                 tmp_cr1             );
    
    /* Update ADC configuration register CR2 with previous settings */
      MODIFY_REG(hadc->Instance->CR2,
 800235c:	687b      	ldr	r3, [r7, #4]
 800235e:	681b      	ldr	r3, [r3, #0]
 8002360:	689a      	ldr	r2, [r3, #8]
 8002362:	4b28      	ldr	r3, [pc, #160]	@ (8002404 <HAL_ADC_Init+0x1a8>)
 8002364:	4013      	ands	r3, r2
 8002366:	687a      	ldr	r2, [r7, #4]
 8002368:	6812      	ldr	r2, [r2, #0]
 800236a:	68b9      	ldr	r1, [r7, #8]
 800236c:	430b      	orrs	r3, r1
 800236e:	6093      	str	r3, [r2, #8]
    /*   Note: Scan mode is present by hardware on this device and, if        */
    /*   disabled, discards automatically nb of conversions. Anyway, nb of    */
    /*   conversions is forced to 0x00 for alignment over all STM32 devices.  */
    /* - if scan mode is enabled, regular channels sequence length is set to  */
    /*   parameter "NbrOfConversion"                                          */
    if (ADC_CR1_SCAN_SET(hadc->Init.ScanConvMode) == ADC_SCAN_ENABLE)
 8002370:	687b      	ldr	r3, [r7, #4]
 8002372:	689b      	ldr	r3, [r3, #8]
 8002374:	f5b3 7f80 	cmp.w	r3, #256	@ 0x100
 8002378:	d003      	beq.n	8002382 <HAL_ADC_Init+0x126>
 800237a:	687b      	ldr	r3, [r7, #4]
 800237c:	689b      	ldr	r3, [r3, #8]
 800237e:	2b01      	cmp	r3, #1
 8002380:	d104      	bne.n	800238c <HAL_ADC_Init+0x130>
    {
      tmp_sqr1 = ADC_SQR1_L_SHIFT(hadc->Init.NbrOfConversion);
 8002382:	687b      	ldr	r3, [r7, #4]
 8002384:	691b      	ldr	r3, [r3, #16]
 8002386:	3b01      	subs	r3, #1
 8002388:	051b      	lsls	r3, r3, #20
 800238a:	60fb      	str	r3, [r7, #12]
    }
      
    MODIFY_REG(hadc->Instance->SQR1,
 800238c:	687b      	ldr	r3, [r7, #4]
 800238e:	681b      	ldr	r3, [r3, #0]
 8002390:	6adb      	ldr	r3, [r3, #44]	@ 0x2c
 8002392:	f423 0170 	bic.w	r1, r3, #15728640	@ 0xf00000
 8002396:	687b      	ldr	r3, [r7, #4]
 8002398:	681b      	ldr	r3, [r3, #0]
 800239a:	68fa      	ldr	r2, [r7, #12]
 800239c:	430a      	orrs	r2, r1
 800239e:	62da      	str	r2, [r3, #44]	@ 0x2c
    /* ensure of no potential problem of ADC core IP clocking.                */
    /* Check through register CR2 (excluding bits set in other functions:     */
    /* execution control bits (ADON, JSWSTART, SWSTART), regular group bits   */
    /* (DMA), injected group bits (JEXTTRIG and JEXTSEL), channel internal    */
    /* measurement path bit (TSVREFE).                                        */
    if (READ_BIT(hadc->Instance->CR2, ~(ADC_CR2_ADON | ADC_CR2_DMA |
 80023a0:	687b      	ldr	r3, [r7, #4]
 80023a2:	681b      	ldr	r3, [r3, #0]
 80023a4:	689a      	ldr	r2, [r3, #8]
 80023a6:	4b18      	ldr	r3, [pc, #96]	@ (8002408 <HAL_ADC_Init+0x1ac>)
 80023a8:	4013      	ands	r3, r2
 80023aa:	68ba      	ldr	r2, [r7, #8]
 80023ac:	429a      	cmp	r2, r3
 80023ae:	d10b      	bne.n	80023c8 <HAL_ADC_Init+0x16c>
                                        ADC_CR2_JEXTTRIG | ADC_CR2_JEXTSEL |
                                        ADC_CR2_TSVREFE                     ))
         == tmp_cr2)
    {
      /* Set ADC error code to none */
      ADC_CLEAR_ERRORCODE(hadc);
 80023b0:	687b      	ldr	r3, [r7, #4]
 80023b2:	2200      	movs	r2, #0
 80023b4:	62da      	str	r2, [r3, #44]	@ 0x2c
      
      /* Set the ADC state */
      ADC_STATE_CLR_SET(hadc->State,
 80023b6:	687b      	ldr	r3, [r7, #4]
 80023b8:	6a9b      	ldr	r3, [r3, #40]	@ 0x28
 80023ba:	f023 0303 	bic.w	r3, r3, #3
 80023be:	f043 0201 	orr.w	r2, r3, #1
 80023c2:	687b      	ldr	r3, [r7, #4]
 80023c4:	629a      	str	r2, [r3, #40]	@ 0x28
    if (READ_BIT(hadc->Instance->CR2, ~(ADC_CR2_ADON | ADC_CR2_DMA |
 80023c6:	e018      	b.n	80023fa <HAL_ADC_Init+0x19e>
                        HAL_ADC_STATE_READY);
    }
    else
    {
      /* Update ADC state machine to error */
      ADC_STATE_CLR_SET(hadc->State,
 80023c8:	687b      	ldr	r3, [r7, #4]
 80023ca:	6a9b      	ldr	r3, [r3, #40]	@ 0x28
 80023cc:	f023 0312 	bic.w	r3, r3, #18
 80023d0:	f043 0210 	orr.w	r2, r3, #16
 80023d4:	687b      	ldr	r3, [r7, #4]
 80023d6:	629a      	str	r2, [r3, #40]	@ 0x28
                        HAL_ADC_STATE_BUSY_INTERNAL,
                        HAL_ADC_STATE_ERROR_INTERNAL);
      
      /* Set ADC error code to ADC IP internal error */
      SET_BIT(hadc->ErrorCode, HAL_ADC_ERROR_INTERNAL);
 80023d8:	687b      	ldr	r3, [r7, #4]
 80023da:	6adb      	ldr	r3, [r3, #44]	@ 0x2c
 80023dc:	f043 0201 	orr.w	r2, r3, #1
 80023e0:	687b      	ldr	r3, [r7, #4]
 80023e2:	62da      	str	r2, [r3, #44]	@ 0x2c
      
      tmp_hal_status = HAL_ERROR;
 80023e4:	2301      	movs	r3, #1
 80023e6:	75fb      	strb	r3, [r7, #23]
    if (READ_BIT(hadc->Instance->CR2, ~(ADC_CR2_ADON | ADC_CR2_DMA |
 80023e8:	e007      	b.n	80023fa <HAL_ADC_Init+0x19e>
  
  }
  else
  {
    /* Update ADC state machine to error */
    SET_BIT(hadc->State, HAL_ADC_STATE_ERROR_INTERNAL);
 80023ea:	687b      	ldr	r3, [r7, #4]
 80023ec:	6a9b      	ldr	r3, [r3, #40]	@ 0x28
 80023ee:	f043 0210 	orr.w	r2, r3, #16
 80023f2:	687b      	ldr	r3, [r7, #4]
 80023f4:	629a      	str	r2, [r3, #40]	@ 0x28
        
    tmp_hal_status = HAL_ERROR;
 80023f6:	2301      	movs	r3, #1
 80023f8:	75fb      	strb	r3, [r7, #23]
  }
  
  /* Return function status */
  return tmp_hal_status;
 80023fa:	7dfb      	ldrb	r3, [r7, #23]
}
 80023fc:	4618      	mov	r0, r3
 80023fe:	3718      	adds	r7, #24
 8002400:	46bd      	mov	sp, r7
 8002402:	bd80      	pop	{r7, pc}
 8002404:	ffe1f7fd 	.word	0xffe1f7fd
 8002408:	ff1f0efe 	.word	0xff1f0efe

0800240c <HAL_ADC_Start_IT>:
  *         Each of these interruptions has its dedicated callback function.
  * @param  hadc: ADC handle
  * @retval HAL status
  */
HAL_StatusTypeDef HAL_ADC_Start_IT(ADC_HandleTypeDef* hadc)
{
 800240c:	b580      	push	{r7, lr}
 800240e:	b084      	sub	sp, #16
 8002410:	af00      	add	r7, sp, #0
 8002412:	6078      	str	r0, [r7, #4]
  HAL_StatusTypeDef tmp_hal_status = HAL_OK;
 8002414:	2300      	movs	r3, #0
 8002416:	73fb      	strb	r3, [r7, #15]
  
  /* Check the parameters */
  assert_param(IS_ADC_ALL_INSTANCE(hadc->Instance));
  
  /* Process locked */
  __HAL_LOCK(hadc);
 8002418:	687b      	ldr	r3, [r7, #4]
 800241a:	f893 3024 	ldrb.w	r3, [r3, #36]	@ 0x24
 800241e:	2b01      	cmp	r3, #1
 8002420:	d101      	bne.n	8002426 <HAL_ADC_Start_IT+0x1a>
 8002422:	2302      	movs	r3, #2
 8002424:	e0a0      	b.n	8002568 <HAL_ADC_Start_IT+0x15c>
 8002426:	687b      	ldr	r3, [r7, #4]
 8002428:	2201      	movs	r2, #1
 800242a:	f883 2024 	strb.w	r2, [r3, #36]	@ 0x24
    
  /* Enable the ADC peripheral */
  tmp_hal_status = ADC_Enable(hadc);
 800242e:	6878      	ldr	r0, [r7, #4]
 8002430:	f000 fa6e 	bl	8002910 <ADC_Enable>
 8002434:	4603      	mov	r3, r0
 8002436:	73fb      	strb	r3, [r7, #15]
  
  /* Start conversion if ADC is effectively enabled */
  if (tmp_hal_status == HAL_OK)
 8002438:	7bfb      	ldrb	r3, [r7, #15]
 800243a:	2b00      	cmp	r3, #0
 800243c:	f040 808f 	bne.w	800255e <HAL_ADC_Start_IT+0x152>
  {
    /* Set ADC state                                                          */
    /* - Clear state bitfield related to regular group conversion results     */
    /* - Set state bitfield related to regular operation                      */
    ADC_STATE_CLR_SET(hadc->State,
 8002440:	687b      	ldr	r3, [r7, #4]
 8002442:	6a9b      	ldr	r3, [r3, #40]	@ 0x28
 8002444:	f423 6370 	bic.w	r3, r3, #3840	@ 0xf00
 8002448:	f023 0301 	bic.w	r3, r3, #1
 800244c:	f443 7280 	orr.w	r2, r3, #256	@ 0x100
 8002450:	687b      	ldr	r3, [r7, #4]
 8002452:	629a      	str	r2, [r3, #40]	@ 0x28
                      HAL_ADC_STATE_REG_BUSY);
    
    /* Set group injected state (from auto-injection) and multimode state     */
    /* for all cases of multimode: independent mode, multimode ADC master     */
    /* or multimode ADC slave (for devices with several ADCs):                */
    if (ADC_NONMULTIMODE_OR_MULTIMODEMASTER(hadc))
 8002454:	687b      	ldr	r3, [r7, #4]
 8002456:	681b      	ldr	r3, [r3, #0]
 8002458:	4a45      	ldr	r2, [pc, #276]	@ (8002570 <HAL_ADC_Start_IT+0x164>)
 800245a:	4293      	cmp	r3, r2
 800245c:	d105      	bne.n	800246a <HAL_ADC_Start_IT+0x5e>
 800245e:	4b45      	ldr	r3, [pc, #276]	@ (8002574 <HAL_ADC_Start_IT+0x168>)
 8002460:	685b      	ldr	r3, [r3, #4]
 8002462:	f403 2370 	and.w	r3, r3, #983040	@ 0xf0000
 8002466:	2b00      	cmp	r3, #0
 8002468:	d115      	bne.n	8002496 <HAL_ADC_Start_IT+0x8a>
    {
      /* Set ADC state (ADC independent or master) */
      CLEAR_BIT(hadc->State, HAL_ADC_STATE_MULTIMODE_SLAVE);
 800246a:	687b      	ldr	r3, [r7, #4]
 800246c:	6a9b      	ldr	r3, [r3, #40]	@ 0x28
 800246e:	f423 1280 	bic.w	r2, r3, #1048576	@ 0x100000
 8002472:	687b      	ldr	r3, [r7, #4]
 8002474:	629a      	str	r2, [r3, #40]	@ 0x28
      
      /* If conversions on group regular are also triggering group injected,  */
      /* update ADC state.                                                    */
      if (READ_BIT(hadc->Instance->CR1, ADC_CR1_JAUTO) != RESET)
 8002476:	687b      	ldr	r3, [r7, #4]
 8002478:	681b      	ldr	r3, [r3, #0]
 800247a:	685b      	ldr	r3, [r3, #4]
 800247c:	f403 6380 	and.w	r3, r3, #1024	@ 0x400
 8002480:	2b00      	cmp	r3, #0
 8002482:	d026      	beq.n	80024d2 <HAL_ADC_Start_IT+0xc6>
      {
        ADC_STATE_CLR_SET(hadc->State, HAL_ADC_STATE_INJ_EOC, HAL_ADC_STATE_INJ_BUSY);  
 8002484:	687b      	ldr	r3, [r7, #4]
 8002486:	6a9b      	ldr	r3, [r3, #40]	@ 0x28
 8002488:	f423 5340 	bic.w	r3, r3, #12288	@ 0x3000
 800248c:	f443 5280 	orr.w	r2, r3, #4096	@ 0x1000
 8002490:	687b      	ldr	r3, [r7, #4]
 8002492:	629a      	str	r2, [r3, #40]	@ 0x28
      if (READ_BIT(hadc->Instance->CR1, ADC_CR1_JAUTO) != RESET)
 8002494:	e01d      	b.n	80024d2 <HAL_ADC_Start_IT+0xc6>
      }
    }
    else
    {
      /* Set ADC state (ADC slave) */
      SET_BIT(hadc->State, HAL_ADC_STATE_MULTIMODE_SLAVE);
 8002496:	687b      	ldr	r3, [r7, #4]
 8002498:	6a9b      	ldr	r3, [r3, #40]	@ 0x28
 800249a:	f443 1280 	orr.w	r2, r3, #1048576	@ 0x100000
 800249e:	687b      	ldr	r3, [r7, #4]
 80024a0:	629a      	str	r2, [r3, #40]	@ 0x28
      
      /* If conversions on group regular are also triggering group injected,  */
      /* update ADC state.                                                    */
      if (ADC_MULTIMODE_AUTO_INJECTED(hadc))
 80024a2:	687b      	ldr	r3, [r7, #4]
 80024a4:	681b      	ldr	r3, [r3, #0]
 80024a6:	4a33      	ldr	r2, [pc, #204]	@ (8002574 <HAL_ADC_Start_IT+0x168>)
 80024a8:	4293      	cmp	r3, r2
 80024aa:	d004      	beq.n	80024b6 <HAL_ADC_Start_IT+0xaa>
 80024ac:	687b      	ldr	r3, [r7, #4]
 80024ae:	681b      	ldr	r3, [r3, #0]
 80024b0:	4a2f      	ldr	r2, [pc, #188]	@ (8002570 <HAL_ADC_Start_IT+0x164>)
 80024b2:	4293      	cmp	r3, r2
 80024b4:	d10d      	bne.n	80024d2 <HAL_ADC_Start_IT+0xc6>
 80024b6:	4b2f      	ldr	r3, [pc, #188]	@ (8002574 <HAL_ADC_Start_IT+0x168>)
 80024b8:	685b      	ldr	r3, [r3, #4]
 80024ba:	f403 6380 	and.w	r3, r3, #1024	@ 0x400
 80024be:	2b00      	cmp	r3, #0
 80024c0:	d007      	beq.n	80024d2 <HAL_ADC_Start_IT+0xc6>
      {
        ADC_STATE_CLR_SET(hadc->State, HAL_ADC_STATE_INJ_EOC, HAL_ADC_STATE_INJ_BUSY);
 80024c2:	687b      	ldr	r3, [r7, #4]
 80024c4:	6a9b      	ldr	r3, [r3, #40]	@ 0x28
 80024c6:	f423 5340 	bic.w	r3, r3, #12288	@ 0x3000
 80024ca:	f443 5280 	orr.w	r2, r3, #4096	@ 0x1000
 80024ce:	687b      	ldr	r3, [r7, #4]
 80024d0:	629a      	str	r2, [r3, #40]	@ 0x28
      }
    }
    
    /* State machine update: Check if an injected conversion is ongoing */
    if (HAL_IS_BIT_SET(hadc->State, HAL_ADC_STATE_INJ_BUSY))
 80024d2:	687b      	ldr	r3, [r7, #4]
 80024d4:	6a9b      	ldr	r3, [r3, #40]	@ 0x28
 80024d6:	f403 5380 	and.w	r3, r3, #4096	@ 0x1000
 80024da:	2b00      	cmp	r3, #0
 80024dc:	d006      	beq.n	80024ec <HAL_ADC_Start_IT+0xe0>
    {
      /* Reset ADC error code fields related to conversions on group regular */
      CLEAR_BIT(hadc->ErrorCode, (HAL_ADC_ERROR_OVR | HAL_ADC_ERROR_DMA));         
 80024de:	687b      	ldr	r3, [r7, #4]
 80024e0:	6adb      	ldr	r3, [r3, #44]	@ 0x2c
 80024e2:	f023 0206 	bic.w	r2, r3, #6
 80024e6:	687b      	ldr	r3, [r7, #4]
 80024e8:	62da      	str	r2, [r3, #44]	@ 0x2c
 80024ea:	e002      	b.n	80024f2 <HAL_ADC_Start_IT+0xe6>
    }
    else
    {
      /* Reset ADC all error code fields */
      ADC_CLEAR_ERRORCODE(hadc);
 80024ec:	687b      	ldr	r3, [r7, #4]
 80024ee:	2200      	movs	r2, #0
 80024f0:	62da      	str	r2, [r3, #44]	@ 0x2c
    }
    
    /* Process unlocked */
    /* Unlock before starting ADC conversions: in case of potential           */
    /* interruption, to let the process to ADC IRQ Handler.                   */
    __HAL_UNLOCK(hadc);
 80024f2:	687b      	ldr	r3, [r7, #4]
 80024f4:	2200      	movs	r2, #0
 80024f6:	f883 2024 	strb.w	r2, [r3, #36]	@ 0x24
    
    /* Clear regular group conversion flag and overrun flag */
    /* (To ensure of no unknown state from potential previous ADC operations) */
    __HAL_ADC_CLEAR_FLAG(hadc, ADC_FLAG_EOC);
 80024fa:	687b      	ldr	r3, [r7, #4]
 80024fc:	681b      	ldr	r3, [r3, #0]
 80024fe:	f06f 0202 	mvn.w	r2, #2
 8002502:	601a      	str	r2, [r3, #0]
    
    /* Enable end of conversion interrupt for regular group */
    __HAL_ADC_ENABLE_IT(hadc, ADC_IT_EOC);
 8002504:	687b      	ldr	r3, [r7, #4]
 8002506:	681b      	ldr	r3, [r3, #0]
 8002508:	685a      	ldr	r2, [r3, #4]
 800250a:	687b      	ldr	r3, [r7, #4]
 800250c:	681b      	ldr	r3, [r3, #0]
 800250e:	f042 0220 	orr.w	r2, r2, #32
 8002512:	605a      	str	r2, [r3, #4]
    /* If external trigger has been selected, conversion will start at next   */
    /* trigger event.                                                         */
    /* Case of multimode enabled:                                             */ 
    /*  - if ADC is slave, ADC is enabled only (conversion is not started).   */
    /*  - if ADC is master, ADC is enabled and conversion is started.         */
    if (ADC_IS_SOFTWARE_START_REGULAR(hadc)      &&
 8002514:	687b      	ldr	r3, [r7, #4]
 8002516:	681b      	ldr	r3, [r3, #0]
 8002518:	689b      	ldr	r3, [r3, #8]
 800251a:	f403 2360 	and.w	r3, r3, #917504	@ 0xe0000
 800251e:	f5b3 2f60 	cmp.w	r3, #917504	@ 0xe0000
 8002522:	d113      	bne.n	800254c <HAL_ADC_Start_IT+0x140>
        ADC_NONMULTIMODE_OR_MULTIMODEMASTER(hadc)  )
 8002524:	687b      	ldr	r3, [r7, #4]
 8002526:	681b      	ldr	r3, [r3, #0]
    if (ADC_IS_SOFTWARE_START_REGULAR(hadc)      &&
 8002528:	4a11      	ldr	r2, [pc, #68]	@ (8002570 <HAL_ADC_Start_IT+0x164>)
 800252a:	4293      	cmp	r3, r2
 800252c:	d105      	bne.n	800253a <HAL_ADC_Start_IT+0x12e>
        ADC_NONMULTIMODE_OR_MULTIMODEMASTER(hadc)  )
 800252e:	4b11      	ldr	r3, [pc, #68]	@ (8002574 <HAL_ADC_Start_IT+0x168>)
 8002530:	685b      	ldr	r3, [r3, #4]
 8002532:	f403 2370 	and.w	r3, r3, #983040	@ 0xf0000
    if (ADC_IS_SOFTWARE_START_REGULAR(hadc)      &&
 8002536:	2b00      	cmp	r3, #0
 8002538:	d108      	bne.n	800254c <HAL_ADC_Start_IT+0x140>
    {
      /* Start ADC conversion on regular group with SW start */
      SET_BIT(hadc->Instance->CR2, (ADC_CR2_SWSTART | ADC_CR2_EXTTRIG));
 800253a:	687b      	ldr	r3, [r7, #4]
 800253c:	681b      	ldr	r3, [r3, #0]
 800253e:	689a      	ldr	r2, [r3, #8]
 8002540:	687b      	ldr	r3, [r7, #4]
 8002542:	681b      	ldr	r3, [r3, #0]
 8002544:	f442 02a0 	orr.w	r2, r2, #5242880	@ 0x500000
 8002548:	609a      	str	r2, [r3, #8]
 800254a:	e00c      	b.n	8002566 <HAL_ADC_Start_IT+0x15a>
    }
    else
    {
      /* Start ADC conversion on regular group with external trigger */
      SET_BIT(hadc->Instance->CR2, ADC_CR2_EXTTRIG);
 800254c:	687b      	ldr	r3, [r7, #4]
 800254e:	681b      	ldr	r3, [r3, #0]
 8002550:	689a      	ldr	r2, [r3, #8]
 8002552:	687b      	ldr	r3, [r7, #4]
 8002554:	681b      	ldr	r3, [r3, #0]
 8002556:	f442 1280 	orr.w	r2, r2, #1048576	@ 0x100000
 800255a:	609a      	str	r2, [r3, #8]
 800255c:	e003      	b.n	8002566 <HAL_ADC_Start_IT+0x15a>
    }
  }
  else
  {
    /* Process unlocked */
    __HAL_UNLOCK(hadc);
 800255e:	687b      	ldr	r3, [r7, #4]
 8002560:	2200      	movs	r2, #0
 8002562:	f883 2024 	strb.w	r2, [r3, #36]	@ 0x24
  }
  
  /* Return function status */
  return tmp_hal_status;
 8002566:	7bfb      	ldrb	r3, [r7, #15]
}
 8002568:	4618      	mov	r0, r3
 800256a:	3710      	adds	r7, #16
 800256c:	46bd      	mov	sp, r7
 800256e:	bd80      	pop	{r7, pc}
 8002570:	40012800 	.word	0x40012800
 8002574:	40012400 	.word	0x40012400

08002578 <HAL_ADC_GetValue>:
  *         or @ref __HAL_ADC_CLEAR_FLAG(&hadc, ADC_FLAG_EOS).
  * @param  hadc: ADC handle
  * @retval ADC group regular conversion data
  */
uint32_t HAL_ADC_GetValue(ADC_HandleTypeDef* hadc)
{
 8002578:	b480      	push	{r7}
 800257a:	b083      	sub	sp, #12
 800257c:	af00      	add	r7, sp, #0
 800257e:	6078      	str	r0, [r7, #4]

  /* Note: EOC flag is not cleared here by software because automatically     */
  /*       cleared by hardware when reading register DR.                      */
  
  /* Return ADC converted value */ 
  return hadc->Instance->DR;
 8002580:	687b      	ldr	r3, [r7, #4]
 8002582:	681b      	ldr	r3, [r3, #0]
 8002584:	6cdb      	ldr	r3, [r3, #76]	@ 0x4c
}
 8002586:	4618      	mov	r0, r3
 8002588:	370c      	adds	r7, #12
 800258a:	46bd      	mov	sp, r7
 800258c:	bc80      	pop	{r7}
 800258e:	4770      	bx	lr

08002590 <HAL_ADC_IRQHandler>:
  * @brief  Handles ADC interrupt request  
  * @param  hadc: ADC handle
  * @retval None
  */
void HAL_ADC_IRQHandler(ADC_HandleTypeDef* hadc)
{
 8002590:	b580      	push	{r7, lr}
 8002592:	b084      	sub	sp, #16
 8002594:	af00      	add	r7, sp, #0
 8002596:	6078      	str	r0, [r7, #4]
  uint32_t tmp_sr = hadc->Instance->SR;
 8002598:	687b      	ldr	r3, [r7, #4]
 800259a:	681b      	ldr	r3, [r3, #0]
 800259c:	681b      	ldr	r3, [r3, #0]
 800259e:	60fb      	str	r3, [r7, #12]
  uint32_t tmp_cr1 = hadc->Instance->CR1;
 80025a0:	687b      	ldr	r3, [r7, #4]
 80025a2:	681b      	ldr	r3, [r3, #0]
 80025a4:	685b      	ldr	r3, [r3, #4]
 80025a6:	60bb      	str	r3, [r7, #8]
  assert_param(IS_FUNCTIONAL_STATE(hadc->Init.ContinuousConvMode));
  assert_param(IS_ADC_REGULAR_NB_CONV(hadc->Init.NbrOfConversion));
  
  
  /* ========== Check End of Conversion flag for regular group ========== */
  if((tmp_cr1 & ADC_IT_EOC) == ADC_IT_EOC)
 80025a8:	68bb      	ldr	r3, [r7, #8]
 80025aa:	f003 0320 	and.w	r3, r3, #32
 80025ae:	2b00      	cmp	r3, #0
 80025b0:	d03e      	beq.n	8002630 <HAL_ADC_IRQHandler+0xa0>
  {
    if((tmp_sr & ADC_FLAG_EOC) == ADC_FLAG_EOC)
 80025b2:	68fb      	ldr	r3, [r7, #12]
 80025b4:	f003 0302 	and.w	r3, r3, #2
 80025b8:	2b00      	cmp	r3, #0
 80025ba:	d039      	beq.n	8002630 <HAL_ADC_IRQHandler+0xa0>
    {
      /* Update state machine on conversion status if not in error state */
      if (HAL_IS_BIT_CLR(hadc->State, HAL_ADC_STATE_ERROR_INTERNAL))
 80025bc:	687b      	ldr	r3, [r7, #4]
 80025be:	6a9b      	ldr	r3, [r3, #40]	@ 0x28
 80025c0:	f003 0310 	and.w	r3, r3, #16
 80025c4:	2b00      	cmp	r3, #0
 80025c6:	d105      	bne.n	80025d4 <HAL_ADC_IRQHandler+0x44>
      {
        /* Set ADC state */
        SET_BIT(hadc->State, HAL_ADC_STATE_REG_EOC); 
 80025c8:	687b      	ldr	r3, [r7, #4]
 80025ca:	6a9b      	ldr	r3, [r3, #40]	@ 0x28
 80025cc:	f443 7200 	orr.w	r2, r3, #512	@ 0x200
 80025d0:	687b      	ldr	r3, [r7, #4]
 80025d2:	629a      	str	r2, [r3, #40]	@ 0x28
      /* Determine whether any further conversion upcoming on group regular   */
      /* by external trigger, continuous mode or scan sequence on going.      */
      /* Note: On STM32F1 devices, in case of sequencer enabled               */
      /*       (several ranks selected), end of conversion flag is raised     */
      /*       at the end of the sequence.                                    */
      if(ADC_IS_SOFTWARE_START_REGULAR(hadc)        && 
 80025d4:	687b      	ldr	r3, [r7, #4]
 80025d6:	681b      	ldr	r3, [r3, #0]
 80025d8:	689b      	ldr	r3, [r3, #8]
 80025da:	f403 2360 	and.w	r3, r3, #917504	@ 0xe0000
 80025de:	f5b3 2f60 	cmp.w	r3, #917504	@ 0xe0000
 80025e2:	d11d      	bne.n	8002620 <HAL_ADC_IRQHandler+0x90>
         (hadc->Init.ContinuousConvMode == DISABLE)   )
 80025e4:	687b      	ldr	r3, [r7, #4]
 80025e6:	7b1b      	ldrb	r3, [r3, #12]
      if(ADC_IS_SOFTWARE_START_REGULAR(hadc)        && 
 80025e8:	2b00      	cmp	r3, #0
 80025ea:	d119      	bne.n	8002620 <HAL_ADC_IRQHandler+0x90>
      {
        /* Disable ADC end of conversion interrupt on group regular */
        __HAL_ADC_DISABLE_IT(hadc, ADC_IT_EOC);
 80025ec:	687b      	ldr	r3, [r7, #4]
 80025ee:	681b      	ldr	r3, [r3, #0]
 80025f0:	685a      	ldr	r2, [r3, #4]
 80025f2:	687b      	ldr	r3, [r7, #4]
 80025f4:	681b      	ldr	r3, [r3, #0]
 80025f6:	f022 0220 	bic.w	r2, r2, #32
 80025fa:	605a      	str	r2, [r3, #4]
        
        /* Set ADC state */
        CLEAR_BIT(hadc->State, HAL_ADC_STATE_REG_BUSY);   
 80025fc:	687b      	ldr	r3, [r7, #4]
 80025fe:	6a9b      	ldr	r3, [r3, #40]	@ 0x28
 8002600:	f423 7280 	bic.w	r2, r3, #256	@ 0x100
 8002604:	687b      	ldr	r3, [r7, #4]
 8002606:	629a      	str	r2, [r3, #40]	@ 0x28
        
        if (HAL_IS_BIT_CLR(hadc->State, HAL_ADC_STATE_INJ_BUSY))
 8002608:	687b      	ldr	r3, [r7, #4]
 800260a:	6a9b      	ldr	r3, [r3, #40]	@ 0x28
 800260c:	f403 5380 	and.w	r3, r3, #4096	@ 0x1000
 8002610:	2b00      	cmp	r3, #0
 8002612:	d105      	bne.n	8002620 <HAL_ADC_IRQHandler+0x90>
        {
          SET_BIT(hadc->State, HAL_ADC_STATE_READY);
 8002614:	687b      	ldr	r3, [r7, #4]
 8002616:	6a9b      	ldr	r3, [r3, #40]	@ 0x28
 8002618:	f043 0201 	orr.w	r2, r3, #1
 800261c:	687b      	ldr	r3, [r7, #4]
 800261e:	629a      	str	r2, [r3, #40]	@ 0x28

      /* Conversion complete callback */
#if (USE_HAL_ADC_REGISTER_CALLBACKS == 1)
      hadc->ConvCpltCallback(hadc);
#else
      HAL_ADC_ConvCpltCallback(hadc);
 8002620:	6878      	ldr	r0, [r7, #4]
 8002622:	f7ff fbaf 	bl	8001d84 <HAL_ADC_ConvCpltCallback>
#endif /* USE_HAL_ADC_REGISTER_CALLBACKS */
      
      /* Clear regular group conversion flag */
      __HAL_ADC_CLEAR_FLAG(hadc, ADC_FLAG_STRT | ADC_FLAG_EOC);
 8002626:	687b      	ldr	r3, [r7, #4]
 8002628:	681b      	ldr	r3, [r3, #0]
 800262a:	f06f 0212 	mvn.w	r2, #18
 800262e:	601a      	str	r2, [r3, #0]
    }
  }
  
  /* ========== Check End of Conversion flag for injected group ========== */
  if((tmp_cr1 & ADC_IT_JEOC) == ADC_IT_JEOC)
 8002630:	68bb      	ldr	r3, [r7, #8]
 8002632:	f003 0380 	and.w	r3, r3, #128	@ 0x80
 8002636:	2b00      	cmp	r3, #0
 8002638:	d04d      	beq.n	80026d6 <HAL_ADC_IRQHandler+0x146>
  {
    if((tmp_sr & ADC_FLAG_JEOC) == ADC_FLAG_JEOC)
 800263a:	68fb      	ldr	r3, [r7, #12]
 800263c:	f003 0304 	and.w	r3, r3, #4
 8002640:	2b00      	cmp	r3, #0
 8002642:	d048      	beq.n	80026d6 <HAL_ADC_IRQHandler+0x146>
    {
      /* Update state machine on conversion status if not in error state */
      if (HAL_IS_BIT_CLR(hadc->State, HAL_ADC_STATE_ERROR_INTERNAL))
 8002644:	687b      	ldr	r3, [r7, #4]
 8002646:	6a9b      	ldr	r3, [r3, #40]	@ 0x28
 8002648:	f003 0310 	and.w	r3, r3, #16
 800264c:	2b00      	cmp	r3, #0
 800264e:	d105      	bne.n	800265c <HAL_ADC_IRQHandler+0xcc>
      {
        /* Set ADC state */
        SET_BIT(hadc->State, HAL_ADC_STATE_INJ_EOC);
 8002650:	687b      	ldr	r3, [r7, #4]
 8002652:	6a9b      	ldr	r3, [r3, #40]	@ 0x28
 8002654:	f443 5200 	orr.w	r2, r3, #8192	@ 0x2000
 8002658:	687b      	ldr	r3, [r7, #4]
 800265a:	629a      	str	r2, [r3, #40]	@ 0x28
      /* conversion from group regular (same conditions as group regular      */
      /* interruption disabling above).                                       */
      /* Note: On STM32F1 devices, in case of sequencer enabled               */
      /*       (several ranks selected), end of conversion flag is raised     */
      /*       at the end of the sequence.                                    */
      if(ADC_IS_SOFTWARE_START_INJECTED(hadc)                     || 
 800265c:	687b      	ldr	r3, [r7, #4]
 800265e:	681b      	ldr	r3, [r3, #0]
 8002660:	689b      	ldr	r3, [r3, #8]
 8002662:	f403 43e0 	and.w	r3, r3, #28672	@ 0x7000
 8002666:	f5b3 4fe0 	cmp.w	r3, #28672	@ 0x7000
 800266a:	d012      	beq.n	8002692 <HAL_ADC_IRQHandler+0x102>
         (HAL_IS_BIT_CLR(hadc->Instance->CR1, ADC_CR1_JAUTO) &&     
 800266c:	687b      	ldr	r3, [r7, #4]
 800266e:	681b      	ldr	r3, [r3, #0]
 8002670:	685b      	ldr	r3, [r3, #4]
 8002672:	f403 6380 	and.w	r3, r3, #1024	@ 0x400
      if(ADC_IS_SOFTWARE_START_INJECTED(hadc)                     || 
 8002676:	2b00      	cmp	r3, #0
 8002678:	d125      	bne.n	80026c6 <HAL_ADC_IRQHandler+0x136>
         (ADC_IS_SOFTWARE_START_REGULAR(hadc)        &&
 800267a:	687b      	ldr	r3, [r7, #4]
 800267c:	681b      	ldr	r3, [r3, #0]
 800267e:	689b      	ldr	r3, [r3, #8]
 8002680:	f403 2360 	and.w	r3, r3, #917504	@ 0xe0000
         (HAL_IS_BIT_CLR(hadc->Instance->CR1, ADC_CR1_JAUTO) &&     
 8002684:	f5b3 2f60 	cmp.w	r3, #917504	@ 0xe0000
 8002688:	d11d      	bne.n	80026c6 <HAL_ADC_IRQHandler+0x136>
          (hadc->Init.ContinuousConvMode == DISABLE)   )        )   )
 800268a:	687b      	ldr	r3, [r7, #4]
 800268c:	7b1b      	ldrb	r3, [r3, #12]
         (ADC_IS_SOFTWARE_START_REGULAR(hadc)        &&
 800268e:	2b00      	cmp	r3, #0
 8002690:	d119      	bne.n	80026c6 <HAL_ADC_IRQHandler+0x136>
      {
        /* Disable ADC end of conversion interrupt on group injected */
        __HAL_ADC_DISABLE_IT(hadc, ADC_IT_JEOC);
 8002692:	687b      	ldr	r3, [r7, #4]
 8002694:	681b      	ldr	r3, [r3, #0]
 8002696:	685a      	ldr	r2, [r3, #4]
 8002698:	687b      	ldr	r3, [r7, #4]
 800269a:	681b      	ldr	r3, [r3, #0]
 800269c:	f022 0280 	bic.w	r2, r2, #128	@ 0x80
 80026a0:	605a      	str	r2, [r3, #4]
        
        /* Set ADC state */
        CLEAR_BIT(hadc->State, HAL_ADC_STATE_INJ_BUSY);   
 80026a2:	687b      	ldr	r3, [r7, #4]
 80026a4:	6a9b      	ldr	r3, [r3, #40]	@ 0x28
 80026a6:	f423 5280 	bic.w	r2, r3, #4096	@ 0x1000
 80026aa:	687b      	ldr	r3, [r7, #4]
 80026ac:	629a      	str	r2, [r3, #40]	@ 0x28

        if (HAL_IS_BIT_CLR(hadc->State, HAL_ADC_STATE_REG_BUSY))
 80026ae:	687b      	ldr	r3, [r7, #4]
 80026b0:	6a9b      	ldr	r3, [r3, #40]	@ 0x28
 80026b2:	f403 7380 	and.w	r3, r3, #256	@ 0x100
 80026b6:	2b00      	cmp	r3, #0
 80026b8:	d105      	bne.n	80026c6 <HAL_ADC_IRQHandler+0x136>
        { 
          SET_BIT(hadc->State, HAL_ADC_STATE_READY);
 80026ba:	687b      	ldr	r3, [r7, #4]
 80026bc:	6a9b      	ldr	r3, [r3, #40]	@ 0x28
 80026be:	f043 0201 	orr.w	r2, r3, #1
 80026c2:	687b      	ldr	r3, [r7, #4]
 80026c4:	629a      	str	r2, [r3, #40]	@ 0x28

      /* Conversion complete callback */ 
#if (USE_HAL_ADC_REGISTER_CALLBACKS == 1)
      hadc->InjectedConvCpltCallback(hadc);
#else
      HAL_ADCEx_InjectedConvCpltCallback(hadc);
 80026c6:	6878      	ldr	r0, [r7, #4]
 80026c8:	f000 f9bd 	bl	8002a46 <HAL_ADCEx_InjectedConvCpltCallback>
#endif /* USE_HAL_ADC_REGISTER_CALLBACKS */
      
      /* Clear injected group conversion flag */
      __HAL_ADC_CLEAR_FLAG(hadc, (ADC_FLAG_JSTRT | ADC_FLAG_JEOC));
 80026cc:	687b      	ldr	r3, [r7, #4]
 80026ce:	681b      	ldr	r3, [r3, #0]
 80026d0:	f06f 020c 	mvn.w	r2, #12
 80026d4:	601a      	str	r2, [r3, #0]
    }
  }
   
  /* ========== Check Analog watchdog flags ========== */
  if((tmp_cr1 & ADC_IT_AWD) == ADC_IT_AWD)
 80026d6:	68bb      	ldr	r3, [r7, #8]
 80026d8:	f003 0340 	and.w	r3, r3, #64	@ 0x40
 80026dc:	2b00      	cmp	r3, #0
 80026de:	d012      	beq.n	8002706 <HAL_ADC_IRQHandler+0x176>
  {
    if((tmp_sr & ADC_FLAG_AWD) == ADC_FLAG_AWD)
 80026e0:	68fb      	ldr	r3, [r7, #12]
 80026e2:	f003 0301 	and.w	r3, r3, #1
 80026e6:	2b00      	cmp	r3, #0
 80026e8:	d00d      	beq.n	8002706 <HAL_ADC_IRQHandler+0x176>
    {
      /* Set ADC state */
      SET_BIT(hadc->State, HAL_ADC_STATE_AWD1);
 80026ea:	687b      	ldr	r3, [r7, #4]
 80026ec:	6a9b      	ldr	r3, [r3, #40]	@ 0x28
 80026ee:	f443 3280 	orr.w	r2, r3, #65536	@ 0x10000
 80026f2:	687b      	ldr	r3, [r7, #4]
 80026f4:	629a      	str	r2, [r3, #40]	@ 0x28
      
      /* Level out of window callback */ 
#if (USE_HAL_ADC_REGISTER_CALLBACKS == 1)
      hadc->LevelOutOfWindowCallback(hadc);
#else
      HAL_ADC_LevelOutOfWindowCallback(hadc);
 80026f6:	6878      	ldr	r0, [r7, #4]
 80026f8:	f000 f809 	bl	800270e <HAL_ADC_LevelOutOfWindowCallback>
#endif /* USE_HAL_ADC_REGISTER_CALLBACKS */
      
      /* Clear the ADC analog watchdog flag */
      __HAL_ADC_CLEAR_FLAG(hadc, ADC_FLAG_AWD);
 80026fc:	687b      	ldr	r3, [r7, #4]
 80026fe:	681b      	ldr	r3, [r3, #0]
 8002700:	f06f 0201 	mvn.w	r2, #1
 8002704:	601a      	str	r2, [r3, #0]
    }
  }
  
}
 8002706:	bf00      	nop
 8002708:	3710      	adds	r7, #16
 800270a:	46bd      	mov	sp, r7
 800270c:	bd80      	pop	{r7, pc}

0800270e <HAL_ADC_LevelOutOfWindowCallback>:
  * @brief  Analog watchdog callback in non blocking mode. 
  * @param  hadc: ADC handle
  * @retval None
  */
__weak void HAL_ADC_LevelOutOfWindowCallback(ADC_HandleTypeDef* hadc)
{
 800270e:	b480      	push	{r7}
 8002710:	b083      	sub	sp, #12
 8002712:	af00      	add	r7, sp, #0
 8002714:	6078      	str	r0, [r7, #4]
  /* Prevent unused argument(s) compilation warning */
  UNUSED(hadc);
  /* NOTE : This function should not be modified. When the callback is needed,
            function HAL_ADC_LevelOutOfWindowCallback must be implemented in the user file.
  */
}
 8002716:	bf00      	nop
 8002718:	370c      	adds	r7, #12
 800271a:	46bd      	mov	sp, r7
 800271c:	bc80      	pop	{r7}
 800271e:	4770      	bx	lr

08002720 <HAL_ADC_ConfigChannel>:
  * @param  hadc: ADC handle
  * @param  sConfig: Structure of ADC channel for regular group.
  * @retval HAL status
  */
HAL_StatusTypeDef HAL_ADC_ConfigChannel(ADC_HandleTypeDef* hadc, ADC_ChannelConfTypeDef* sConfig)
{ 
 8002720:	b480      	push	{r7}
 8002722:	b085      	sub	sp, #20
 8002724:	af00      	add	r7, sp, #0
 8002726:	6078      	str	r0, [r7, #4]
 8002728:	6039      	str	r1, [r7, #0]
  HAL_StatusTypeDef tmp_hal_status = HAL_OK;
 800272a:	2300      	movs	r3, #0
 800272c:	73fb      	strb	r3, [r7, #15]
  __IO uint32_t wait_loop_index = 0U;
 800272e:	2300      	movs	r3, #0
 8002730:	60bb      	str	r3, [r7, #8]
  assert_param(IS_ADC_CHANNEL(sConfig->Channel));
  assert_param(IS_ADC_REGULAR_RANK(sConfig->Rank));
  assert_param(IS_ADC_SAMPLE_TIME(sConfig->SamplingTime));
  
  /* Process locked */
  __HAL_LOCK(hadc);
 8002732:	687b      	ldr	r3, [r7, #4]
 8002734:	f893 3024 	ldrb.w	r3, [r3, #36]	@ 0x24
 8002738:	2b01      	cmp	r3, #1
 800273a:	d101      	bne.n	8002740 <HAL_ADC_ConfigChannel+0x20>
 800273c:	2302      	movs	r3, #2
 800273e:	e0dc      	b.n	80028fa <HAL_ADC_ConfigChannel+0x1da>
 8002740:	687b      	ldr	r3, [r7, #4]
 8002742:	2201      	movs	r2, #1
 8002744:	f883 2024 	strb.w	r2, [r3, #36]	@ 0x24
  
  
  /* Regular sequence configuration */
  /* For Rank 1 to 6 */
  if (sConfig->Rank < 7U)
 8002748:	683b      	ldr	r3, [r7, #0]
 800274a:	685b      	ldr	r3, [r3, #4]
 800274c:	2b06      	cmp	r3, #6
 800274e:	d81c      	bhi.n	800278a <HAL_ADC_ConfigChannel+0x6a>
  {
    MODIFY_REG(hadc->Instance->SQR3                        ,
 8002750:	687b      	ldr	r3, [r7, #4]
 8002752:	681b      	ldr	r3, [r3, #0]
 8002754:	6b59      	ldr	r1, [r3, #52]	@ 0x34
 8002756:	683b      	ldr	r3, [r7, #0]
 8002758:	685a      	ldr	r2, [r3, #4]
 800275a:	4613      	mov	r3, r2
 800275c:	009b      	lsls	r3, r3, #2
 800275e:	4413      	add	r3, r2
 8002760:	3b05      	subs	r3, #5
 8002762:	221f      	movs	r2, #31
 8002764:	fa02 f303 	lsl.w	r3, r2, r3
 8002768:	43db      	mvns	r3, r3
 800276a:	4019      	ands	r1, r3
 800276c:	683b      	ldr	r3, [r7, #0]
 800276e:	6818      	ldr	r0, [r3, #0]
 8002770:	683b      	ldr	r3, [r7, #0]
 8002772:	685a      	ldr	r2, [r3, #4]
 8002774:	4613      	mov	r3, r2
 8002776:	009b      	lsls	r3, r3, #2
 8002778:	4413      	add	r3, r2
 800277a:	3b05      	subs	r3, #5
 800277c:	fa00 f203 	lsl.w	r2, r0, r3
 8002780:	687b      	ldr	r3, [r7, #4]
 8002782:	681b      	ldr	r3, [r3, #0]
 8002784:	430a      	orrs	r2, r1
 8002786:	635a      	str	r2, [r3, #52]	@ 0x34
 8002788:	e03c      	b.n	8002804 <HAL_ADC_ConfigChannel+0xe4>
               ADC_SQR3_RK(ADC_SQR3_SQ1, sConfig->Rank)    ,
               ADC_SQR3_RK(sConfig->Channel, sConfig->Rank) );
  }
  /* For Rank 7 to 12 */
  else if (sConfig->Rank < 13U)
 800278a:	683b      	ldr	r3, [r7, #0]
 800278c:	685b      	ldr	r3, [r3, #4]
 800278e:	2b0c      	cmp	r3, #12
 8002790:	d81c      	bhi.n	80027cc <HAL_ADC_ConfigChannel+0xac>
  {
    MODIFY_REG(hadc->Instance->SQR2                        ,
 8002792:	687b      	ldr	r3, [r7, #4]
 8002794:	681b      	ldr	r3, [r3, #0]
 8002796:	6b19      	ldr	r1, [r3, #48]	@ 0x30
 8002798:	683b      	ldr	r3, [r7, #0]
 800279a:	685a      	ldr	r2, [r3, #4]
 800279c:	4613      	mov	r3, r2
 800279e:	009b      	lsls	r3, r3, #2
 80027a0:	4413      	add	r3, r2
 80027a2:	3b23      	subs	r3, #35	@ 0x23
 80027a4:	221f      	movs	r2, #31
 80027a6:	fa02 f303 	lsl.w	r3, r2, r3
 80027aa:	43db      	mvns	r3, r3
 80027ac:	4019      	ands	r1, r3
 80027ae:	683b      	ldr	r3, [r7, #0]
 80027b0:	6818      	ldr	r0, [r3, #0]
 80027b2:	683b      	ldr	r3, [r7, #0]
 80027b4:	685a      	ldr	r2, [r3, #4]
 80027b6:	4613      	mov	r3, r2
 80027b8:	009b      	lsls	r3, r3, #2
 80027ba:	4413      	add	r3, r2
 80027bc:	3b23      	subs	r3, #35	@ 0x23
 80027be:	fa00 f203 	lsl.w	r2, r0, r3
 80027c2:	687b      	ldr	r3, [r7, #4]
 80027c4:	681b      	ldr	r3, [r3, #0]
 80027c6:	430a      	orrs	r2, r1
 80027c8:	631a      	str	r2, [r3, #48]	@ 0x30
 80027ca:	e01b      	b.n	8002804 <HAL_ADC_ConfigChannel+0xe4>
               ADC_SQR2_RK(sConfig->Channel, sConfig->Rank) );
  }
  /* For Rank 13 to 16 */
  else
  {
    MODIFY_REG(hadc->Instance->SQR1                        ,
 80027cc:	687b      	ldr	r3, [r7, #4]
 80027ce:	681b      	ldr	r3, [r3, #0]
 80027d0:	6ad9      	ldr	r1, [r3, #44]	@ 0x2c
 80027d2:	683b      	ldr	r3, [r7, #0]
 80027d4:	685a      	ldr	r2, [r3, #4]
 80027d6:	4613      	mov	r3, r2
 80027d8:	009b      	lsls	r3, r3, #2
 80027da:	4413      	add	r3, r2
 80027dc:	3b41      	subs	r3, #65	@ 0x41
 80027de:	221f      	movs	r2, #31
 80027e0:	fa02 f303 	lsl.w	r3, r2, r3
 80027e4:	43db      	mvns	r3, r3
 80027e6:	4019      	ands	r1, r3
 80027e8:	683b      	ldr	r3, [r7, #0]
 80027ea:	6818      	ldr	r0, [r3, #0]
 80027ec:	683b      	ldr	r3, [r7, #0]
 80027ee:	685a      	ldr	r2, [r3, #4]
 80027f0:	4613      	mov	r3, r2
 80027f2:	009b      	lsls	r3, r3, #2
 80027f4:	4413      	add	r3, r2
 80027f6:	3b41      	subs	r3, #65	@ 0x41
 80027f8:	fa00 f203 	lsl.w	r2, r0, r3
 80027fc:	687b      	ldr	r3, [r7, #4]
 80027fe:	681b      	ldr	r3, [r3, #0]
 8002800:	430a      	orrs	r2, r1
 8002802:	62da      	str	r2, [r3, #44]	@ 0x2c
  }
  
  
  /* Channel sampling time configuration */
  /* For channels 10 to 17 */
  if (sConfig->Channel >= ADC_CHANNEL_10)
 8002804:	683b      	ldr	r3, [r7, #0]
 8002806:	681b      	ldr	r3, [r3, #0]
 8002808:	2b09      	cmp	r3, #9
 800280a:	d91c      	bls.n	8002846 <HAL_ADC_ConfigChannel+0x126>
  {
    MODIFY_REG(hadc->Instance->SMPR1                             ,
 800280c:	687b      	ldr	r3, [r7, #4]
 800280e:	681b      	ldr	r3, [r3, #0]
 8002810:	68d9      	ldr	r1, [r3, #12]
 8002812:	683b      	ldr	r3, [r7, #0]
 8002814:	681a      	ldr	r2, [r3, #0]
 8002816:	4613      	mov	r3, r2
 8002818:	005b      	lsls	r3, r3, #1
 800281a:	4413      	add	r3, r2
 800281c:	3b1e      	subs	r3, #30
 800281e:	2207      	movs	r2, #7
 8002820:	fa02 f303 	lsl.w	r3, r2, r3
 8002824:	43db      	mvns	r3, r3
 8002826:	4019      	ands	r1, r3
 8002828:	683b      	ldr	r3, [r7, #0]
 800282a:	6898      	ldr	r0, [r3, #8]
 800282c:	683b      	ldr	r3, [r7, #0]
 800282e:	681a      	ldr	r2, [r3, #0]
 8002830:	4613      	mov	r3, r2
 8002832:	005b      	lsls	r3, r3, #1
 8002834:	4413      	add	r3, r2
 8002836:	3b1e      	subs	r3, #30
 8002838:	fa00 f203 	lsl.w	r2, r0, r3
 800283c:	687b      	ldr	r3, [r7, #4]
 800283e:	681b      	ldr	r3, [r3, #0]
 8002840:	430a      	orrs	r2, r1
 8002842:	60da      	str	r2, [r3, #12]
 8002844:	e019      	b.n	800287a <HAL_ADC_ConfigChannel+0x15a>
               ADC_SMPR1(ADC_SMPR1_SMP10, sConfig->Channel)      ,
               ADC_SMPR1(sConfig->SamplingTime, sConfig->Channel) );
  }
  else /* For channels 0 to 9 */
  {
    MODIFY_REG(hadc->Instance->SMPR2                             ,
 8002846:	687b      	ldr	r3, [r7, #4]
 8002848:	681b      	ldr	r3, [r3, #0]
 800284a:	6919      	ldr	r1, [r3, #16]
 800284c:	683b      	ldr	r3, [r7, #0]
 800284e:	681a      	ldr	r2, [r3, #0]
 8002850:	4613      	mov	r3, r2
 8002852:	005b      	lsls	r3, r3, #1
 8002854:	4413      	add	r3, r2
 8002856:	2207      	movs	r2, #7
 8002858:	fa02 f303 	lsl.w	r3, r2, r3
 800285c:	43db      	mvns	r3, r3
 800285e:	4019      	ands	r1, r3
 8002860:	683b      	ldr	r3, [r7, #0]
 8002862:	6898      	ldr	r0, [r3, #8]
 8002864:	683b      	ldr	r3, [r7, #0]
 8002866:	681a      	ldr	r2, [r3, #0]
 8002868:	4613      	mov	r3, r2
 800286a:	005b      	lsls	r3, r3, #1
 800286c:	4413      	add	r3, r2
 800286e:	fa00 f203 	lsl.w	r2, r0, r3
 8002872:	687b      	ldr	r3, [r7, #4]
 8002874:	681b      	ldr	r3, [r3, #0]
 8002876:	430a      	orrs	r2, r1
 8002878:	611a      	str	r2, [r3, #16]
               ADC_SMPR2(sConfig->SamplingTime, sConfig->Channel) );
  }
  
  /* If ADC1 Channel_16 or Channel_17 is selected, enable Temperature sensor  */
  /* and VREFINT measurement path.                                            */
  if ((sConfig->Channel == ADC_CHANNEL_TEMPSENSOR) ||
 800287a:	683b      	ldr	r3, [r7, #0]
 800287c:	681b      	ldr	r3, [r3, #0]
 800287e:	2b10      	cmp	r3, #16
 8002880:	d003      	beq.n	800288a <HAL_ADC_ConfigChannel+0x16a>
      (sConfig->Channel == ADC_CHANNEL_VREFINT)      )
 8002882:	683b      	ldr	r3, [r7, #0]
 8002884:	681b      	ldr	r3, [r3, #0]
  if ((sConfig->Channel == ADC_CHANNEL_TEMPSENSOR) ||
 8002886:	2b11      	cmp	r3, #17
 8002888:	d132      	bne.n	80028f0 <HAL_ADC_ConfigChannel+0x1d0>
  {
    /* For STM32F1 devices with several ADC: Only ADC1 can access internal    */
    /* measurement channels (VrefInt/TempSensor). If these channels are       */
    /* intended to be set on other ADC instances, an error is reported.       */
    if (hadc->Instance == ADC1)
 800288a:	687b      	ldr	r3, [r7, #4]
 800288c:	681b      	ldr	r3, [r3, #0]
 800288e:	4a1d      	ldr	r2, [pc, #116]	@ (8002904 <HAL_ADC_ConfigChannel+0x1e4>)
 8002890:	4293      	cmp	r3, r2
 8002892:	d125      	bne.n	80028e0 <HAL_ADC_ConfigChannel+0x1c0>
    {
      if (READ_BIT(hadc->Instance->CR2, ADC_CR2_TSVREFE) == RESET)
 8002894:	687b      	ldr	r3, [r7, #4]
 8002896:	681b      	ldr	r3, [r3, #0]
 8002898:	689b      	ldr	r3, [r3, #8]
 800289a:	f403 0300 	and.w	r3, r3, #8388608	@ 0x800000
 800289e:	2b00      	cmp	r3, #0
 80028a0:	d126      	bne.n	80028f0 <HAL_ADC_ConfigChannel+0x1d0>
      {
        SET_BIT(hadc->Instance->CR2, ADC_CR2_TSVREFE);
 80028a2:	687b      	ldr	r3, [r7, #4]
 80028a4:	681b      	ldr	r3, [r3, #0]
 80028a6:	689a      	ldr	r2, [r3, #8]
 80028a8:	687b      	ldr	r3, [r7, #4]
 80028aa:	681b      	ldr	r3, [r3, #0]
 80028ac:	f442 0200 	orr.w	r2, r2, #8388608	@ 0x800000
 80028b0:	609a      	str	r2, [r3, #8]
        
        if (sConfig->Channel == ADC_CHANNEL_TEMPSENSOR)
 80028b2:	683b      	ldr	r3, [r7, #0]
 80028b4:	681b      	ldr	r3, [r3, #0]
 80028b6:	2b10      	cmp	r3, #16
 80028b8:	d11a      	bne.n	80028f0 <HAL_ADC_ConfigChannel+0x1d0>
        {
          /* Delay for temperature sensor stabilization time */
          /* Compute number of CPU cycles to wait for */
          wait_loop_index = (ADC_TEMPSENSOR_DELAY_US * (SystemCoreClock / 1000000U));
 80028ba:	4b13      	ldr	r3, [pc, #76]	@ (8002908 <HAL_ADC_ConfigChannel+0x1e8>)
 80028bc:	681b      	ldr	r3, [r3, #0]
 80028be:	4a13      	ldr	r2, [pc, #76]	@ (800290c <HAL_ADC_ConfigChannel+0x1ec>)
 80028c0:	fba2 2303 	umull	r2, r3, r2, r3
 80028c4:	0c9a      	lsrs	r2, r3, #18
 80028c6:	4613      	mov	r3, r2
 80028c8:	009b      	lsls	r3, r3, #2
 80028ca:	4413      	add	r3, r2
 80028cc:	005b      	lsls	r3, r3, #1
 80028ce:	60bb      	str	r3, [r7, #8]
          while(wait_loop_index != 0U)
 80028d0:	e002      	b.n	80028d8 <HAL_ADC_ConfigChannel+0x1b8>
          {
            wait_loop_index--;
 80028d2:	68bb      	ldr	r3, [r7, #8]
 80028d4:	3b01      	subs	r3, #1
 80028d6:	60bb      	str	r3, [r7, #8]
          while(wait_loop_index != 0U)
 80028d8:	68bb      	ldr	r3, [r7, #8]
 80028da:	2b00      	cmp	r3, #0
 80028dc:	d1f9      	bne.n	80028d2 <HAL_ADC_ConfigChannel+0x1b2>
 80028de:	e007      	b.n	80028f0 <HAL_ADC_ConfigChannel+0x1d0>
      }
    }
    else
    {
      /* Update ADC state machine to error */
      SET_BIT(hadc->State, HAL_ADC_STATE_ERROR_CONFIG);
 80028e0:	687b      	ldr	r3, [r7, #4]
 80028e2:	6a9b      	ldr	r3, [r3, #40]	@ 0x28
 80028e4:	f043 0220 	orr.w	r2, r3, #32
 80028e8:	687b      	ldr	r3, [r7, #4]
 80028ea:	629a      	str	r2, [r3, #40]	@ 0x28
      
      tmp_hal_status = HAL_ERROR;
 80028ec:	2301      	movs	r3, #1
 80028ee:	73fb      	strb	r3, [r7, #15]
    }
  }
  
  /* Process unlocked */
  __HAL_UNLOCK(hadc);
 80028f0:	687b      	ldr	r3, [r7, #4]
 80028f2:	2200      	movs	r2, #0
 80028f4:	f883 2024 	strb.w	r2, [r3, #36]	@ 0x24
  
  /* Return function status */
  return tmp_hal_status;
 80028f8:	7bfb      	ldrb	r3, [r7, #15]
}
 80028fa:	4618      	mov	r0, r3
 80028fc:	3714      	adds	r7, #20
 80028fe:	46bd      	mov	sp, r7
 8002900:	bc80      	pop	{r7}
 8002902:	4770      	bx	lr
 8002904:	40012400 	.word	0x40012400
 8002908:	20000050 	.word	0x20000050
 800290c:	431bde83 	.word	0x431bde83

08002910 <ADC_Enable>:
  *         and voltage regulator must be enabled (done into HAL_ADC_Init()).
  * @param  hadc: ADC handle
  * @retval HAL status.
  */
HAL_StatusTypeDef ADC_Enable(ADC_HandleTypeDef* hadc)
{
 8002910:	b580      	push	{r7, lr}
 8002912:	b084      	sub	sp, #16
 8002914:	af00      	add	r7, sp, #0
 8002916:	6078      	str	r0, [r7, #4]
  uint32_t tickstart = 0U;
 8002918:	2300      	movs	r3, #0
 800291a:	60fb      	str	r3, [r7, #12]
  __IO uint32_t wait_loop_index = 0U;
 800291c:	2300      	movs	r3, #0
 800291e:	60bb      	str	r3, [r7, #8]
  
  /* ADC enable and wait for ADC ready (in case of ADC is disabled or         */
  /* enabling phase not yet completed: flag ADC ready not yet set).           */
  /* Timeout implemented to not be stuck if ADC cannot be enabled (possible   */
  /* causes: ADC clock not running, ...).                                     */
  if (ADC_IS_ENABLE(hadc) == RESET)
 8002920:	687b      	ldr	r3, [r7, #4]
 8002922:	681b      	ldr	r3, [r3, #0]
 8002924:	689b      	ldr	r3, [r3, #8]
 8002926:	f003 0301 	and.w	r3, r3, #1
 800292a:	2b01      	cmp	r3, #1
 800292c:	d040      	beq.n	80029b0 <ADC_Enable+0xa0>
  {
    /* Enable the Peripheral */
    __HAL_ADC_ENABLE(hadc);
 800292e:	687b      	ldr	r3, [r7, #4]
 8002930:	681b      	ldr	r3, [r3, #0]
 8002932:	689a      	ldr	r2, [r3, #8]
 8002934:	687b      	ldr	r3, [r7, #4]
 8002936:	681b      	ldr	r3, [r3, #0]
 8002938:	f042 0201 	orr.w	r2, r2, #1
 800293c:	609a      	str	r2, [r3, #8]
    
    /* Delay for ADC stabilization time */
    /* Compute number of CPU cycles to wait for */
    wait_loop_index = (ADC_STAB_DELAY_US * (SystemCoreClock / 1000000U));
 800293e:	4b1f      	ldr	r3, [pc, #124]	@ (80029bc <ADC_Enable+0xac>)
 8002940:	681b      	ldr	r3, [r3, #0]
 8002942:	4a1f      	ldr	r2, [pc, #124]	@ (80029c0 <ADC_Enable+0xb0>)
 8002944:	fba2 2303 	umull	r2, r3, r2, r3
 8002948:	0c9b      	lsrs	r3, r3, #18
 800294a:	60bb      	str	r3, [r7, #8]
    while(wait_loop_index != 0U)
 800294c:	e002      	b.n	8002954 <ADC_Enable+0x44>
    {
      wait_loop_index--;
 800294e:	68bb      	ldr	r3, [r7, #8]
 8002950:	3b01      	subs	r3, #1
 8002952:	60bb      	str	r3, [r7, #8]
    while(wait_loop_index != 0U)
 8002954:	68bb      	ldr	r3, [r7, #8]
 8002956:	2b00      	cmp	r3, #0
 8002958:	d1f9      	bne.n	800294e <ADC_Enable+0x3e>
    }
    
    /* Get tick count */
    tickstart = HAL_GetTick();
 800295a:	f7ff fc51 	bl	8002200 <HAL_GetTick>
 800295e:	60f8      	str	r0, [r7, #12]

    /* Wait for ADC effectively enabled */
    while(ADC_IS_ENABLE(hadc) == RESET)
 8002960:	e01f      	b.n	80029a2 <ADC_Enable+0x92>
    {
      if((HAL_GetTick() - tickstart) > ADC_ENABLE_TIMEOUT)
 8002962:	f7ff fc4d 	bl	8002200 <HAL_GetTick>
 8002966:	4602      	mov	r2, r0
 8002968:	68fb      	ldr	r3, [r7, #12]
 800296a:	1ad3      	subs	r3, r2, r3
 800296c:	2b02      	cmp	r3, #2
 800296e:	d918      	bls.n	80029a2 <ADC_Enable+0x92>
      {
        /* New check to avoid false timeout detection in case of preemption */
        if(ADC_IS_ENABLE(hadc) == RESET)
 8002970:	687b      	ldr	r3, [r7, #4]
 8002972:	681b      	ldr	r3, [r3, #0]
 8002974:	689b      	ldr	r3, [r3, #8]
 8002976:	f003 0301 	and.w	r3, r3, #1
 800297a:	2b01      	cmp	r3, #1
 800297c:	d011      	beq.n	80029a2 <ADC_Enable+0x92>
        {
          /* Update ADC state machine to error */
          SET_BIT(hadc->State, HAL_ADC_STATE_ERROR_INTERNAL);
 800297e:	687b      	ldr	r3, [r7, #4]
 8002980:	6a9b      	ldr	r3, [r3, #40]	@ 0x28
 8002982:	f043 0210 	orr.w	r2, r3, #16
 8002986:	687b      	ldr	r3, [r7, #4]
 8002988:	629a      	str	r2, [r3, #40]	@ 0x28

          /* Set ADC error code to ADC IP internal error */
          SET_BIT(hadc->ErrorCode, HAL_ADC_ERROR_INTERNAL);
 800298a:	687b      	ldr	r3, [r7, #4]
 800298c:	6adb      	ldr	r3, [r3, #44]	@ 0x2c
 800298e:	f043 0201 	orr.w	r2, r3, #1
 8002992:	687b      	ldr	r3, [r7, #4]
 8002994:	62da      	str	r2, [r3, #44]	@ 0x2c

          /* Process unlocked */
          __HAL_UNLOCK(hadc);
 8002996:	687b      	ldr	r3, [r7, #4]
 8002998:	2200      	movs	r2, #0
 800299a:	f883 2024 	strb.w	r2, [r3, #36]	@ 0x24

          return HAL_ERROR;
 800299e:	2301      	movs	r3, #1
 80029a0:	e007      	b.n	80029b2 <ADC_Enable+0xa2>
    while(ADC_IS_ENABLE(hadc) == RESET)
 80029a2:	687b      	ldr	r3, [r7, #4]
 80029a4:	681b      	ldr	r3, [r3, #0]
 80029a6:	689b      	ldr	r3, [r3, #8]
 80029a8:	f003 0301 	and.w	r3, r3, #1
 80029ac:	2b01      	cmp	r3, #1
 80029ae:	d1d8      	bne.n	8002962 <ADC_Enable+0x52>
      }
    }
  }
   
  /* Return HAL status */
  return HAL_OK;
 80029b0:	2300      	movs	r3, #0
}
 80029b2:	4618      	mov	r0, r3
 80029b4:	3710      	adds	r7, #16
 80029b6:	46bd      	mov	sp, r7
 80029b8:	bd80      	pop	{r7, pc}
 80029ba:	bf00      	nop
 80029bc:	20000050 	.word	0x20000050
 80029c0:	431bde83 	.word	0x431bde83

080029c4 <ADC_ConversionStop_Disable>:
  *         stopped to disable the ADC.
  * @param  hadc: ADC handle
  * @retval HAL status.
  */
HAL_StatusTypeDef ADC_ConversionStop_Disable(ADC_HandleTypeDef* hadc)
{
 80029c4:	b580      	push	{r7, lr}
 80029c6:	b084      	sub	sp, #16
 80029c8:	af00      	add	r7, sp, #0
 80029ca:	6078      	str	r0, [r7, #4]
  uint32_t tickstart = 0U;
 80029cc:	2300      	movs	r3, #0
 80029ce:	60fb      	str	r3, [r7, #12]
  
  /* Verification if ADC is not already disabled */
  if (ADC_IS_ENABLE(hadc) != RESET)
 80029d0:	687b      	ldr	r3, [r7, #4]
 80029d2:	681b      	ldr	r3, [r3, #0]
 80029d4:	689b      	ldr	r3, [r3, #8]
 80029d6:	f003 0301 	and.w	r3, r3, #1
 80029da:	2b01      	cmp	r3, #1
 80029dc:	d12e      	bne.n	8002a3c <ADC_ConversionStop_Disable+0x78>
  {
    /* Disable the ADC peripheral */
    __HAL_ADC_DISABLE(hadc);
 80029de:	687b      	ldr	r3, [r7, #4]
 80029e0:	681b      	ldr	r3, [r3, #0]
 80029e2:	689a      	ldr	r2, [r3, #8]
 80029e4:	687b      	ldr	r3, [r7, #4]
 80029e6:	681b      	ldr	r3, [r3, #0]
 80029e8:	f022 0201 	bic.w	r2, r2, #1
 80029ec:	609a      	str	r2, [r3, #8]
     
    /* Get tick count */
    tickstart = HAL_GetTick();
 80029ee:	f7ff fc07 	bl	8002200 <HAL_GetTick>
 80029f2:	60f8      	str	r0, [r7, #12]
    
    /* Wait for ADC effectively disabled */
    while(ADC_IS_ENABLE(hadc) != RESET)
 80029f4:	e01b      	b.n	8002a2e <ADC_ConversionStop_Disable+0x6a>
    {
      if((HAL_GetTick() - tickstart) > ADC_DISABLE_TIMEOUT)
 80029f6:	f7ff fc03 	bl	8002200 <HAL_GetTick>
 80029fa:	4602      	mov	r2, r0
 80029fc:	68fb      	ldr	r3, [r7, #12]
 80029fe:	1ad3      	subs	r3, r2, r3
 8002a00:	2b02      	cmp	r3, #2
 8002a02:	d914      	bls.n	8002a2e <ADC_ConversionStop_Disable+0x6a>
      {
        /* New check to avoid false timeout detection in case of preemption */
        if(ADC_IS_ENABLE(hadc) != RESET)
 8002a04:	687b      	ldr	r3, [r7, #4]
 8002a06:	681b      	ldr	r3, [r3, #0]
 8002a08:	689b      	ldr	r3, [r3, #8]
 8002a0a:	f003 0301 	and.w	r3, r3, #1
 8002a0e:	2b01      	cmp	r3, #1
 8002a10:	d10d      	bne.n	8002a2e <ADC_ConversionStop_Disable+0x6a>
        {
          /* Update ADC state machine to error */
          SET_BIT(hadc->State, HAL_ADC_STATE_ERROR_INTERNAL);
 8002a12:	687b      	ldr	r3, [r7, #4]
 8002a14:	6a9b      	ldr	r3, [r3, #40]	@ 0x28
 8002a16:	f043 0210 	orr.w	r2, r3, #16
 8002a1a:	687b      	ldr	r3, [r7, #4]
 8002a1c:	629a      	str	r2, [r3, #40]	@ 0x28

          /* Set ADC error code to ADC IP internal error */
          SET_BIT(hadc->ErrorCode, HAL_ADC_ERROR_INTERNAL);
 8002a1e:	687b      	ldr	r3, [r7, #4]
 8002a20:	6adb      	ldr	r3, [r3, #44]	@ 0x2c
 8002a22:	f043 0201 	orr.w	r2, r3, #1
 8002a26:	687b      	ldr	r3, [r7, #4]
 8002a28:	62da      	str	r2, [r3, #44]	@ 0x2c

          return HAL_ERROR;
 8002a2a:	2301      	movs	r3, #1
 8002a2c:	e007      	b.n	8002a3e <ADC_ConversionStop_Disable+0x7a>
    while(ADC_IS_ENABLE(hadc) != RESET)
 8002a2e:	687b      	ldr	r3, [r7, #4]
 8002a30:	681b      	ldr	r3, [r3, #0]
 8002a32:	689b      	ldr	r3, [r3, #8]
 8002a34:	f003 0301 	and.w	r3, r3, #1
 8002a38:	2b01      	cmp	r3, #1
 8002a3a:	d0dc      	beq.n	80029f6 <ADC_ConversionStop_Disable+0x32>
      }
    }
  }
  
  /* Return HAL status */
  return HAL_OK;
 8002a3c:	2300      	movs	r3, #0
}
 8002a3e:	4618      	mov	r0, r3
 8002a40:	3710      	adds	r7, #16
 8002a42:	46bd      	mov	sp, r7
 8002a44:	bd80      	pop	{r7, pc}

08002a46 <HAL_ADCEx_InjectedConvCpltCallback>:
  * @brief  Injected conversion complete callback in non blocking mode 
  * @param  hadc: ADC handle
  * @retval None
  */
__weak void HAL_ADCEx_InjectedConvCpltCallback(ADC_HandleTypeDef* hadc)
{
 8002a46:	b480      	push	{r7}
 8002a48:	b083      	sub	sp, #12
 8002a4a:	af00      	add	r7, sp, #0
 8002a4c:	6078      	str	r0, [r7, #4]
  /* Prevent unused argument(s) compilation warning */
  UNUSED(hadc);
  /* NOTE : This function Should not be modified, when the callback is needed,
            the HAL_ADCEx_InjectedConvCpltCallback could be implemented in the user file
  */
}
 8002a4e:	bf00      	nop
 8002a50:	370c      	adds	r7, #12
 8002a52:	46bd      	mov	sp, r7
 8002a54:	bc80      	pop	{r7}
 8002a56:	4770      	bx	lr

08002a58 <__NVIC_SetPriorityGrouping>:
           In case of a conflict between priority grouping and available
           priority bits (__NVIC_PRIO_BITS), the smallest possible priority group is set.
  \param [in]      PriorityGroup  Priority grouping field.
 */
__STATIC_INLINE void __NVIC_SetPriorityGrouping(uint32_t PriorityGroup)
{
 8002a58:	b480      	push	{r7}
 8002a5a:	b085      	sub	sp, #20
 8002a5c:	af00      	add	r7, sp, #0
 8002a5e:	6078      	str	r0, [r7, #4]
  uint32_t reg_value;
  uint32_t PriorityGroupTmp = (PriorityGroup & (uint32_t)0x07UL);             /* only values 0..7 are used          */
 8002a60:	687b      	ldr	r3, [r7, #4]
 8002a62:	f003 0307 	and.w	r3, r3, #7
 8002a66:	60fb      	str	r3, [r7, #12]

  reg_value  =  SCB->AIRCR;                                                   /* read old register configuration    */
 8002a68:	4b0c      	ldr	r3, [pc, #48]	@ (8002a9c <__NVIC_SetPriorityGrouping+0x44>)
 8002a6a:	68db      	ldr	r3, [r3, #12]
 8002a6c:	60bb      	str	r3, [r7, #8]
  reg_value &= ~((uint32_t)(SCB_AIRCR_VECTKEY_Msk | SCB_AIRCR_PRIGROUP_Msk)); /* clear bits to change               */
 8002a6e:	68ba      	ldr	r2, [r7, #8]
 8002a70:	f64f 03ff 	movw	r3, #63743	@ 0xf8ff
 8002a74:	4013      	ands	r3, r2
 8002a76:	60bb      	str	r3, [r7, #8]
  reg_value  =  (reg_value                                   |
                ((uint32_t)0x5FAUL << SCB_AIRCR_VECTKEY_Pos) |
                (PriorityGroupTmp << SCB_AIRCR_PRIGROUP_Pos) );               /* Insert write key and priority group */
 8002a78:	68fb      	ldr	r3, [r7, #12]
 8002a7a:	021a      	lsls	r2, r3, #8
                ((uint32_t)0x5FAUL << SCB_AIRCR_VECTKEY_Pos) |
 8002a7c:	68bb      	ldr	r3, [r7, #8]
 8002a7e:	4313      	orrs	r3, r2
  reg_value  =  (reg_value                                   |
 8002a80:	f043 63bf 	orr.w	r3, r3, #100139008	@ 0x5f80000
 8002a84:	f443 3300 	orr.w	r3, r3, #131072	@ 0x20000
 8002a88:	60bb      	str	r3, [r7, #8]
  SCB->AIRCR =  reg_value;
 8002a8a:	4a04      	ldr	r2, [pc, #16]	@ (8002a9c <__NVIC_SetPriorityGrouping+0x44>)
 8002a8c:	68bb      	ldr	r3, [r7, #8]
 8002a8e:	60d3      	str	r3, [r2, #12]
}
 8002a90:	bf00      	nop
 8002a92:	3714      	adds	r7, #20
 8002a94:	46bd      	mov	sp, r7
 8002a96:	bc80      	pop	{r7}
 8002a98:	4770      	bx	lr
 8002a9a:	bf00      	nop
 8002a9c:	e000ed00 	.word	0xe000ed00

08002aa0 <__NVIC_GetPriorityGrouping>:
  \brief   Get Priority Grouping
  \details Reads the priority grouping field from the NVIC Interrupt Controller.
  \return                Priority grouping field (SCB->AIRCR [10:8] PRIGROUP field).
 */
__STATIC_INLINE uint32_t __NVIC_GetPriorityGrouping(void)
{
 8002aa0:	b480      	push	{r7}
 8002aa2:	af00      	add	r7, sp, #0
  return ((uint32_t)((SCB->AIRCR & SCB_AIRCR_PRIGROUP_Msk) >> SCB_AIRCR_PRIGROUP_Pos));
 8002aa4:	4b04      	ldr	r3, [pc, #16]	@ (8002ab8 <__NVIC_GetPriorityGrouping+0x18>)
 8002aa6:	68db      	ldr	r3, [r3, #12]
 8002aa8:	0a1b      	lsrs	r3, r3, #8
 8002aaa:	f003 0307 	and.w	r3, r3, #7
}
 8002aae:	4618      	mov	r0, r3
 8002ab0:	46bd      	mov	sp, r7
 8002ab2:	bc80      	pop	{r7}
 8002ab4:	4770      	bx	lr
 8002ab6:	bf00      	nop
 8002ab8:	e000ed00 	.word	0xe000ed00

08002abc <__NVIC_EnableIRQ>:
  \details Enables a device specific interrupt in the NVIC interrupt controller.
  \param [in]      IRQn  Device specific interrupt number.
  \note    IRQn must not be negative.
 */
__STATIC_INLINE void __NVIC_EnableIRQ(IRQn_Type IRQn)
{
 8002abc:	b480      	push	{r7}
 8002abe:	b083      	sub	sp, #12
 8002ac0:	af00      	add	r7, sp, #0
 8002ac2:	4603      	mov	r3, r0
 8002ac4:	71fb      	strb	r3, [r7, #7]
  if ((int32_t)(IRQn) >= 0)
 8002ac6:	f997 3007 	ldrsb.w	r3, [r7, #7]
 8002aca:	2b00      	cmp	r3, #0
 8002acc:	db0b      	blt.n	8002ae6 <__NVIC_EnableIRQ+0x2a>
  {
    NVIC->ISER[(((uint32_t)IRQn) >> 5UL)] = (uint32_t)(1UL << (((uint32_t)IRQn) & 0x1FUL));
 8002ace:	79fb      	ldrb	r3, [r7, #7]
 8002ad0:	f003 021f 	and.w	r2, r3, #31
 8002ad4:	4906      	ldr	r1, [pc, #24]	@ (8002af0 <__NVIC_EnableIRQ+0x34>)
 8002ad6:	f997 3007 	ldrsb.w	r3, [r7, #7]
 8002ada:	095b      	lsrs	r3, r3, #5
 8002adc:	2001      	movs	r0, #1
 8002ade:	fa00 f202 	lsl.w	r2, r0, r2
 8002ae2:	f841 2023 	str.w	r2, [r1, r3, lsl #2]
  }
}
 8002ae6:	bf00      	nop
 8002ae8:	370c      	adds	r7, #12
 8002aea:	46bd      	mov	sp, r7
 8002aec:	bc80      	pop	{r7}
 8002aee:	4770      	bx	lr
 8002af0:	e000e100 	.word	0xe000e100

08002af4 <__NVIC_SetPriority>:
  \param [in]      IRQn  Interrupt number.
  \param [in]  priority  Priority to set.
  \note    The priority cannot be set for every processor exception.
 */
__STATIC_INLINE void __NVIC_SetPriority(IRQn_Type IRQn, uint32_t priority)
{
 8002af4:	b480      	push	{r7}
 8002af6:	b083      	sub	sp, #12
 8002af8:	af00      	add	r7, sp, #0
 8002afa:	4603      	mov	r3, r0
 8002afc:	6039      	str	r1, [r7, #0]
 8002afe:	71fb      	strb	r3, [r7, #7]
  if ((int32_t)(IRQn) >= 0)
 8002b00:	f997 3007 	ldrsb.w	r3, [r7, #7]
 8002b04:	2b00      	cmp	r3, #0
 8002b06:	db0a      	blt.n	8002b1e <__NVIC_SetPriority+0x2a>
  {
    NVIC->IP[((uint32_t)IRQn)]               = (uint8_t)((priority << (8U - __NVIC_PRIO_BITS)) & (uint32_t)0xFFUL);
 8002b08:	683b      	ldr	r3, [r7, #0]
 8002b0a:	b2da      	uxtb	r2, r3
 8002b0c:	490c      	ldr	r1, [pc, #48]	@ (8002b40 <__NVIC_SetPriority+0x4c>)
 8002b0e:	f997 3007 	ldrsb.w	r3, [r7, #7]
 8002b12:	0112      	lsls	r2, r2, #4
 8002b14:	b2d2      	uxtb	r2, r2
 8002b16:	440b      	add	r3, r1
 8002b18:	f883 2300 	strb.w	r2, [r3, #768]	@ 0x300
  }
  else
  {
    SCB->SHP[(((uint32_t)IRQn) & 0xFUL)-4UL] = (uint8_t)((priority << (8U - __NVIC_PRIO_BITS)) & (uint32_t)0xFFUL);
  }
}
 8002b1c:	e00a      	b.n	8002b34 <__NVIC_SetPriority+0x40>
    SCB->SHP[(((uint32_t)IRQn) & 0xFUL)-4UL] = (uint8_t)((priority << (8U - __NVIC_PRIO_BITS)) & (uint32_t)0xFFUL);
 8002b1e:	683b      	ldr	r3, [r7, #0]
 8002b20:	b2da      	uxtb	r2, r3
 8002b22:	4908      	ldr	r1, [pc, #32]	@ (8002b44 <__NVIC_SetPriority+0x50>)
 8002b24:	79fb      	ldrb	r3, [r7, #7]
 8002b26:	f003 030f 	and.w	r3, r3, #15
 8002b2a:	3b04      	subs	r3, #4
 8002b2c:	0112      	lsls	r2, r2, #4
 8002b2e:	b2d2      	uxtb	r2, r2
 8002b30:	440b      	add	r3, r1
 8002b32:	761a      	strb	r2, [r3, #24]
}
 8002b34:	bf00      	nop
 8002b36:	370c      	adds	r7, #12
 8002b38:	46bd      	mov	sp, r7
 8002b3a:	bc80      	pop	{r7}
 8002b3c:	4770      	bx	lr
 8002b3e:	bf00      	nop
 8002b40:	e000e100 	.word	0xe000e100
 8002b44:	e000ed00 	.word	0xe000ed00

08002b48 <NVIC_EncodePriority>:
  \param [in]   PreemptPriority  Preemptive priority value (starting from 0).
  \param [in]       SubPriority  Subpriority value (starting from 0).
  \return                        Encoded priority. Value can be used in the function \ref NVIC_SetPriority().
 */
__STATIC_INLINE uint32_t NVIC_EncodePriority (uint32_t PriorityGroup, uint32_t PreemptPriority, uint32_t SubPriority)
{
 8002b48:	b480      	push	{r7}
 8002b4a:	b089      	sub	sp, #36	@ 0x24
 8002b4c:	af00      	add	r7, sp, #0
 8002b4e:	60f8      	str	r0, [r7, #12]
 8002b50:	60b9      	str	r1, [r7, #8]
 8002b52:	607a      	str	r2, [r7, #4]
  uint32_t PriorityGroupTmp = (PriorityGroup & (uint32_t)0x07UL);   /* only values 0..7 are used          */
 8002b54:	68fb      	ldr	r3, [r7, #12]
 8002b56:	f003 0307 	and.w	r3, r3, #7
 8002b5a:	61fb      	str	r3, [r7, #28]
  uint32_t PreemptPriorityBits;
  uint32_t SubPriorityBits;

  PreemptPriorityBits = ((7UL - PriorityGroupTmp) > (uint32_t)(__NVIC_PRIO_BITS)) ? (uint32_t)(__NVIC_PRIO_BITS) : (uint32_t)(7UL - PriorityGroupTmp);
 8002b5c:	69fb      	ldr	r3, [r7, #28]
 8002b5e:	f1c3 0307 	rsb	r3, r3, #7
 8002b62:	2b04      	cmp	r3, #4
 8002b64:	bf28      	it	cs
 8002b66:	2304      	movcs	r3, #4
 8002b68:	61bb      	str	r3, [r7, #24]
  SubPriorityBits     = ((PriorityGroupTmp + (uint32_t)(__NVIC_PRIO_BITS)) < (uint32_t)7UL) ? (uint32_t)0UL : (uint32_t)((PriorityGroupTmp - 7UL) + (uint32_t)(__NVIC_PRIO_BITS));
 8002b6a:	69fb      	ldr	r3, [r7, #28]
 8002b6c:	3304      	adds	r3, #4
 8002b6e:	2b06      	cmp	r3, #6
 8002b70:	d902      	bls.n	8002b78 <NVIC_EncodePriority+0x30>
 8002b72:	69fb      	ldr	r3, [r7, #28]
 8002b74:	3b03      	subs	r3, #3
 8002b76:	e000      	b.n	8002b7a <NVIC_EncodePriority+0x32>
 8002b78:	2300      	movs	r3, #0
 8002b7a:	617b      	str	r3, [r7, #20]

  return (
           ((PreemptPriority & (uint32_t)((1UL << (PreemptPriorityBits)) - 1UL)) << SubPriorityBits) |
 8002b7c:	f04f 32ff 	mov.w	r2, #4294967295
 8002b80:	69bb      	ldr	r3, [r7, #24]
 8002b82:	fa02 f303 	lsl.w	r3, r2, r3
 8002b86:	43da      	mvns	r2, r3
 8002b88:	68bb      	ldr	r3, [r7, #8]
 8002b8a:	401a      	ands	r2, r3
 8002b8c:	697b      	ldr	r3, [r7, #20]
 8002b8e:	409a      	lsls	r2, r3
           ((SubPriority     & (uint32_t)((1UL << (SubPriorityBits    )) - 1UL)))
 8002b90:	f04f 31ff 	mov.w	r1, #4294967295
 8002b94:	697b      	ldr	r3, [r7, #20]
 8002b96:	fa01 f303 	lsl.w	r3, r1, r3
 8002b9a:	43d9      	mvns	r1, r3
 8002b9c:	687b      	ldr	r3, [r7, #4]
 8002b9e:	400b      	ands	r3, r1
           ((PreemptPriority & (uint32_t)((1UL << (PreemptPriorityBits)) - 1UL)) << SubPriorityBits) |
 8002ba0:	4313      	orrs	r3, r2
         );
}
 8002ba2:	4618      	mov	r0, r3
 8002ba4:	3724      	adds	r7, #36	@ 0x24
 8002ba6:	46bd      	mov	sp, r7
 8002ba8:	bc80      	pop	{r7}
 8002baa:	4770      	bx	lr

08002bac <SysTick_Config>:
  \note    When the variable <b>__Vendor_SysTickConfig</b> is set to 1, then the
           function <b>SysTick_Config</b> is not included. In this case, the file <b><i>device</i>.h</b>
           must contain a vendor-specific implementation of this function.
 */
__STATIC_INLINE uint32_t SysTick_Config(uint32_t ticks)
{
 8002bac:	b580      	push	{r7, lr}
 8002bae:	b082      	sub	sp, #8
 8002bb0:	af00      	add	r7, sp, #0
 8002bb2:	6078      	str	r0, [r7, #4]
  if ((ticks - 1UL) > SysTick_LOAD_RELOAD_Msk)
 8002bb4:	687b      	ldr	r3, [r7, #4]
 8002bb6:	3b01      	subs	r3, #1
 8002bb8:	f1b3 7f80 	cmp.w	r3, #16777216	@ 0x1000000
 8002bbc:	d301      	bcc.n	8002bc2 <SysTick_Config+0x16>
  {
    return (1UL);                                                   /* Reload value impossible */
 8002bbe:	2301      	movs	r3, #1
 8002bc0:	e00f      	b.n	8002be2 <SysTick_Config+0x36>
  }

  SysTick->LOAD  = (uint32_t)(ticks - 1UL);                         /* set reload register */
 8002bc2:	4a0a      	ldr	r2, [pc, #40]	@ (8002bec <SysTick_Config+0x40>)
 8002bc4:	687b      	ldr	r3, [r7, #4]
 8002bc6:	3b01      	subs	r3, #1
 8002bc8:	6053      	str	r3, [r2, #4]
  NVIC_SetPriority (SysTick_IRQn, (1UL << __NVIC_PRIO_BITS) - 1UL); /* set Priority for Systick Interrupt */
 8002bca:	210f      	movs	r1, #15
 8002bcc:	f04f 30ff 	mov.w	r0, #4294967295
 8002bd0:	f7ff ff90 	bl	8002af4 <__NVIC_SetPriority>
  SysTick->VAL   = 0UL;                                             /* Load the SysTick Counter Value */
 8002bd4:	4b05      	ldr	r3, [pc, #20]	@ (8002bec <SysTick_Config+0x40>)
 8002bd6:	2200      	movs	r2, #0
 8002bd8:	609a      	str	r2, [r3, #8]
  SysTick->CTRL  = SysTick_CTRL_CLKSOURCE_Msk |
 8002bda:	4b04      	ldr	r3, [pc, #16]	@ (8002bec <SysTick_Config+0x40>)
 8002bdc:	2207      	movs	r2, #7
 8002bde:	601a      	str	r2, [r3, #0]
                   SysTick_CTRL_TICKINT_Msk   |
                   SysTick_CTRL_ENABLE_Msk;                         /* Enable SysTick IRQ and SysTick Timer */
  return (0UL);                                                     /* Function successful */
 8002be0:	2300      	movs	r3, #0
}
 8002be2:	4618      	mov	r0, r3
 8002be4:	3708      	adds	r7, #8
 8002be6:	46bd      	mov	sp, r7
 8002be8:	bd80      	pop	{r7, pc}
 8002bea:	bf00      	nop
 8002bec:	e000e010 	.word	0xe000e010

08002bf0 <HAL_NVIC_SetPriorityGrouping>:
  * @note   When the NVIC_PriorityGroup_0 is selected, IRQ preemption is no more possible. 
  *         The pending IRQ priority will be managed only by the subpriority. 
  * @retval None
  */
void HAL_NVIC_SetPriorityGrouping(uint32_t PriorityGroup)
{
 8002bf0:	b580      	push	{r7, lr}
 8002bf2:	b082      	sub	sp, #8
 8002bf4:	af00      	add	r7, sp, #0
 8002bf6:	6078      	str	r0, [r7, #4]
  /* Check the parameters */
  assert_param(IS_NVIC_PRIORITY_GROUP(PriorityGroup));
  
  /* Set the PRIGROUP[10:8] bits according to the PriorityGroup parameter value */
  NVIC_SetPriorityGrouping(PriorityGroup);
 8002bf8:	6878      	ldr	r0, [r7, #4]
 8002bfa:	f7ff ff2d 	bl	8002a58 <__NVIC_SetPriorityGrouping>
}
 8002bfe:	bf00      	nop
 8002c00:	3708      	adds	r7, #8
 8002c02:	46bd      	mov	sp, r7
 8002c04:	bd80      	pop	{r7, pc}

08002c06 <HAL_NVIC_SetPriority>:
  *         This parameter can be a value between 0 and 15
  *         A lower priority value indicates a higher priority.          
  * @retval None
  */
void HAL_NVIC_SetPriority(IRQn_Type IRQn, uint32_t PreemptPriority, uint32_t SubPriority)
{ 
 8002c06:	b580      	push	{r7, lr}
 8002c08:	b086      	sub	sp, #24
 8002c0a:	af00      	add	r7, sp, #0
 8002c0c:	4603      	mov	r3, r0
 8002c0e:	60b9      	str	r1, [r7, #8]
 8002c10:	607a      	str	r2, [r7, #4]
 8002c12:	73fb      	strb	r3, [r7, #15]
  uint32_t prioritygroup = 0x00U;
 8002c14:	2300      	movs	r3, #0
 8002c16:	617b      	str	r3, [r7, #20]
  
  /* Check the parameters */
  assert_param(IS_NVIC_SUB_PRIORITY(SubPriority));
  assert_param(IS_NVIC_PREEMPTION_PRIORITY(PreemptPriority));
  
  prioritygroup = NVIC_GetPriorityGrouping();
 8002c18:	f7ff ff42 	bl	8002aa0 <__NVIC_GetPriorityGrouping>
 8002c1c:	6178      	str	r0, [r7, #20]
  
  NVIC_SetPriority(IRQn, NVIC_EncodePriority(prioritygroup, PreemptPriority, SubPriority));
 8002c1e:	687a      	ldr	r2, [r7, #4]
 8002c20:	68b9      	ldr	r1, [r7, #8]
 8002c22:	6978      	ldr	r0, [r7, #20]
 8002c24:	f7ff ff90 	bl	8002b48 <NVIC_EncodePriority>
 8002c28:	4602      	mov	r2, r0
 8002c2a:	f997 300f 	ldrsb.w	r3, [r7, #15]
 8002c2e:	4611      	mov	r1, r2
 8002c30:	4618      	mov	r0, r3
 8002c32:	f7ff ff5f 	bl	8002af4 <__NVIC_SetPriority>
}
 8002c36:	bf00      	nop
 8002c38:	3718      	adds	r7, #24
 8002c3a:	46bd      	mov	sp, r7
 8002c3c:	bd80      	pop	{r7, pc}

08002c3e <HAL_NVIC_EnableIRQ>:
  *         This parameter can be an enumerator of IRQn_Type enumeration
  *         (For the complete STM32 Devices IRQ Channels list, please refer to the appropriate CMSIS device file (stm32f10xxx.h))
  * @retval None
  */
void HAL_NVIC_EnableIRQ(IRQn_Type IRQn)
{
 8002c3e:	b580      	push	{r7, lr}
 8002c40:	b082      	sub	sp, #8
 8002c42:	af00      	add	r7, sp, #0
 8002c44:	4603      	mov	r3, r0
 8002c46:	71fb      	strb	r3, [r7, #7]
  /* Check the parameters */
  assert_param(IS_NVIC_DEVICE_IRQ(IRQn));

  /* Enable interrupt */
  NVIC_EnableIRQ(IRQn);
 8002c48:	f997 3007 	ldrsb.w	r3, [r7, #7]
 8002c4c:	4618      	mov	r0, r3
 8002c4e:	f7ff ff35 	bl	8002abc <__NVIC_EnableIRQ>
}
 8002c52:	bf00      	nop
 8002c54:	3708      	adds	r7, #8
 8002c56:	46bd      	mov	sp, r7
 8002c58:	bd80      	pop	{r7, pc}

08002c5a <HAL_SYSTICK_Config>:
  * @param  TicksNumb: Specifies the ticks Number of ticks between two interrupts.
  * @retval status:  - 0  Function succeeded.
  *                  - 1  Function failed.
  */
uint32_t HAL_SYSTICK_Config(uint32_t TicksNumb)
{
 8002c5a:	b580      	push	{r7, lr}
 8002c5c:	b082      	sub	sp, #8
 8002c5e:	af00      	add	r7, sp, #0
 8002c60:	6078      	str	r0, [r7, #4]
   return SysTick_Config(TicksNumb);
 8002c62:	6878      	ldr	r0, [r7, #4]
 8002c64:	f7ff ffa2 	bl	8002bac <SysTick_Config>
 8002c68:	4603      	mov	r3, r0
}
 8002c6a:	4618      	mov	r0, r3
 8002c6c:	3708      	adds	r7, #8
 8002c6e:	46bd      	mov	sp, r7
 8002c70:	bd80      	pop	{r7, pc}

08002c72 <HAL_DMA_Abort>:
  * @param  hdma: pointer to a DMA_HandleTypeDef structure that contains
  *               the configuration information for the specified DMA Channel.
  * @retval HAL status
  */
HAL_StatusTypeDef HAL_DMA_Abort(DMA_HandleTypeDef *hdma)
{
 8002c72:	b480      	push	{r7}
 8002c74:	b085      	sub	sp, #20
 8002c76:	af00      	add	r7, sp, #0
 8002c78:	6078      	str	r0, [r7, #4]
  HAL_StatusTypeDef status = HAL_OK;
 8002c7a:	2300      	movs	r3, #0
 8002c7c:	73fb      	strb	r3, [r7, #15]
  
  if(hdma->State != HAL_DMA_STATE_BUSY)
 8002c7e:	687b      	ldr	r3, [r7, #4]
 8002c80:	f893 3021 	ldrb.w	r3, [r3, #33]	@ 0x21
 8002c84:	b2db      	uxtb	r3, r3
 8002c86:	2b02      	cmp	r3, #2
 8002c88:	d008      	beq.n	8002c9c <HAL_DMA_Abort+0x2a>
  {
    /* no transfer ongoing */
    hdma->ErrorCode = HAL_DMA_ERROR_NO_XFER;
 8002c8a:	687b      	ldr	r3, [r7, #4]
 8002c8c:	2204      	movs	r2, #4
 8002c8e:	639a      	str	r2, [r3, #56]	@ 0x38
    
    /* Process Unlocked */
    __HAL_UNLOCK(hdma);
 8002c90:	687b      	ldr	r3, [r7, #4]
 8002c92:	2200      	movs	r2, #0
 8002c94:	f883 2020 	strb.w	r2, [r3, #32]
    
    return HAL_ERROR;
 8002c98:	2301      	movs	r3, #1
 8002c9a:	e020      	b.n	8002cde <HAL_DMA_Abort+0x6c>
  }
  else

  {
    /* Disable DMA IT */
    __HAL_DMA_DISABLE_IT(hdma, (DMA_IT_TC | DMA_IT_HT | DMA_IT_TE));
 8002c9c:	687b      	ldr	r3, [r7, #4]
 8002c9e:	681b      	ldr	r3, [r3, #0]
 8002ca0:	681a      	ldr	r2, [r3, #0]
 8002ca2:	687b      	ldr	r3, [r7, #4]
 8002ca4:	681b      	ldr	r3, [r3, #0]
 8002ca6:	f022 020e 	bic.w	r2, r2, #14
 8002caa:	601a      	str	r2, [r3, #0]
      
    /* Disable the channel */
    __HAL_DMA_DISABLE(hdma);
 8002cac:	687b      	ldr	r3, [r7, #4]
 8002cae:	681b      	ldr	r3, [r3, #0]
 8002cb0:	681a      	ldr	r2, [r3, #0]
 8002cb2:	687b      	ldr	r3, [r7, #4]
 8002cb4:	681b      	ldr	r3, [r3, #0]
 8002cb6:	f022 0201 	bic.w	r2, r2, #1
 8002cba:	601a      	str	r2, [r3, #0]
      
    /* Clear all flags */
    hdma->DmaBaseAddress->IFCR = (DMA_ISR_GIF1 << hdma->ChannelIndex);
 8002cbc:	687b      	ldr	r3, [r7, #4]
 8002cbe:	6c1a      	ldr	r2, [r3, #64]	@ 0x40
 8002cc0:	687b      	ldr	r3, [r7, #4]
 8002cc2:	6bdb      	ldr	r3, [r3, #60]	@ 0x3c
 8002cc4:	2101      	movs	r1, #1
 8002cc6:	fa01 f202 	lsl.w	r2, r1, r2
 8002cca:	605a      	str	r2, [r3, #4]
  }
  /* Change the DMA state */
  hdma->State = HAL_DMA_STATE_READY;
 8002ccc:	687b      	ldr	r3, [r7, #4]
 8002cce:	2201      	movs	r2, #1
 8002cd0:	f883 2021 	strb.w	r2, [r3, #33]	@ 0x21

  /* Process Unlocked */
  __HAL_UNLOCK(hdma);      
 8002cd4:	687b      	ldr	r3, [r7, #4]
 8002cd6:	2200      	movs	r2, #0
 8002cd8:	f883 2020 	strb.w	r2, [r3, #32]
  
  return status; 
 8002cdc:	7bfb      	ldrb	r3, [r7, #15]
}
 8002cde:	4618      	mov	r0, r3
 8002ce0:	3714      	adds	r7, #20
 8002ce2:	46bd      	mov	sp, r7
 8002ce4:	bc80      	pop	{r7}
 8002ce6:	4770      	bx	lr

08002ce8 <HAL_DMA_Abort_IT>:
  * @param  hdma  : pointer to a DMA_HandleTypeDef structure that contains
  *                 the configuration information for the specified DMA Channel.
  * @retval HAL status
  */
HAL_StatusTypeDef HAL_DMA_Abort_IT(DMA_HandleTypeDef *hdma)
{  
 8002ce8:	b580      	push	{r7, lr}
 8002cea:	b084      	sub	sp, #16
 8002cec:	af00      	add	r7, sp, #0
 8002cee:	6078      	str	r0, [r7, #4]
  HAL_StatusTypeDef status = HAL_OK;
 8002cf0:	2300      	movs	r3, #0
 8002cf2:	73fb      	strb	r3, [r7, #15]
  
  if(HAL_DMA_STATE_BUSY != hdma->State)
 8002cf4:	687b      	ldr	r3, [r7, #4]
 8002cf6:	f893 3021 	ldrb.w	r3, [r3, #33]	@ 0x21
 8002cfa:	b2db      	uxtb	r3, r3
 8002cfc:	2b02      	cmp	r3, #2
 8002cfe:	d005      	beq.n	8002d0c <HAL_DMA_Abort_IT+0x24>
  {
    /* no transfer ongoing */
    hdma->ErrorCode = HAL_DMA_ERROR_NO_XFER;
 8002d00:	687b      	ldr	r3, [r7, #4]
 8002d02:	2204      	movs	r2, #4
 8002d04:	639a      	str	r2, [r3, #56]	@ 0x38
        
    status = HAL_ERROR;
 8002d06:	2301      	movs	r3, #1
 8002d08:	73fb      	strb	r3, [r7, #15]
 8002d0a:	e051      	b.n	8002db0 <HAL_DMA_Abort_IT+0xc8>
  }
  else
  { 
    /* Disable DMA IT */
    __HAL_DMA_DISABLE_IT(hdma, (DMA_IT_TC | DMA_IT_HT | DMA_IT_TE));
 8002d0c:	687b      	ldr	r3, [r7, #4]
 8002d0e:	681b      	ldr	r3, [r3, #0]
 8002d10:	681a      	ldr	r2, [r3, #0]
 8002d12:	687b      	ldr	r3, [r7, #4]
 8002d14:	681b      	ldr	r3, [r3, #0]
 8002d16:	f022 020e 	bic.w	r2, r2, #14
 8002d1a:	601a      	str	r2, [r3, #0]

    /* Disable the channel */
    __HAL_DMA_DISABLE(hdma);
 8002d1c:	687b      	ldr	r3, [r7, #4]
 8002d1e:	681b      	ldr	r3, [r3, #0]
 8002d20:	681a      	ldr	r2, [r3, #0]
 8002d22:	687b      	ldr	r3, [r7, #4]
 8002d24:	681b      	ldr	r3, [r3, #0]
 8002d26:	f022 0201 	bic.w	r2, r2, #1
 8002d2a:	601a      	str	r2, [r3, #0]

    /* Clear all flags */
    __HAL_DMA_CLEAR_FLAG(hdma, __HAL_DMA_GET_GI_FLAG_INDEX(hdma));
 8002d2c:	687b      	ldr	r3, [r7, #4]
 8002d2e:	681b      	ldr	r3, [r3, #0]
 8002d30:	4a22      	ldr	r2, [pc, #136]	@ (8002dbc <HAL_DMA_Abort_IT+0xd4>)
 8002d32:	4293      	cmp	r3, r2
 8002d34:	d029      	beq.n	8002d8a <HAL_DMA_Abort_IT+0xa2>
 8002d36:	687b      	ldr	r3, [r7, #4]
 8002d38:	681b      	ldr	r3, [r3, #0]
 8002d3a:	4a21      	ldr	r2, [pc, #132]	@ (8002dc0 <HAL_DMA_Abort_IT+0xd8>)
 8002d3c:	4293      	cmp	r3, r2
 8002d3e:	d022      	beq.n	8002d86 <HAL_DMA_Abort_IT+0x9e>
 8002d40:	687b      	ldr	r3, [r7, #4]
 8002d42:	681b      	ldr	r3, [r3, #0]
 8002d44:	4a1f      	ldr	r2, [pc, #124]	@ (8002dc4 <HAL_DMA_Abort_IT+0xdc>)
 8002d46:	4293      	cmp	r3, r2
 8002d48:	d01a      	beq.n	8002d80 <HAL_DMA_Abort_IT+0x98>
 8002d4a:	687b      	ldr	r3, [r7, #4]
 8002d4c:	681b      	ldr	r3, [r3, #0]
 8002d4e:	4a1e      	ldr	r2, [pc, #120]	@ (8002dc8 <HAL_DMA_Abort_IT+0xe0>)
 8002d50:	4293      	cmp	r3, r2
 8002d52:	d012      	beq.n	8002d7a <HAL_DMA_Abort_IT+0x92>
 8002d54:	687b      	ldr	r3, [r7, #4]
 8002d56:	681b      	ldr	r3, [r3, #0]
 8002d58:	4a1c      	ldr	r2, [pc, #112]	@ (8002dcc <HAL_DMA_Abort_IT+0xe4>)
 8002d5a:	4293      	cmp	r3, r2
 8002d5c:	d00a      	beq.n	8002d74 <HAL_DMA_Abort_IT+0x8c>
 8002d5e:	687b      	ldr	r3, [r7, #4]
 8002d60:	681b      	ldr	r3, [r3, #0]
 8002d62:	4a1b      	ldr	r2, [pc, #108]	@ (8002dd0 <HAL_DMA_Abort_IT+0xe8>)
 8002d64:	4293      	cmp	r3, r2
 8002d66:	d102      	bne.n	8002d6e <HAL_DMA_Abort_IT+0x86>
 8002d68:	f44f 1380 	mov.w	r3, #1048576	@ 0x100000
 8002d6c:	e00e      	b.n	8002d8c <HAL_DMA_Abort_IT+0xa4>
 8002d6e:	f04f 7380 	mov.w	r3, #16777216	@ 0x1000000
 8002d72:	e00b      	b.n	8002d8c <HAL_DMA_Abort_IT+0xa4>
 8002d74:	f44f 3380 	mov.w	r3, #65536	@ 0x10000
 8002d78:	e008      	b.n	8002d8c <HAL_DMA_Abort_IT+0xa4>
 8002d7a:	f44f 5380 	mov.w	r3, #4096	@ 0x1000
 8002d7e:	e005      	b.n	8002d8c <HAL_DMA_Abort_IT+0xa4>
 8002d80:	f44f 7380 	mov.w	r3, #256	@ 0x100
 8002d84:	e002      	b.n	8002d8c <HAL_DMA_Abort_IT+0xa4>
 8002d86:	2310      	movs	r3, #16
 8002d88:	e000      	b.n	8002d8c <HAL_DMA_Abort_IT+0xa4>
 8002d8a:	2301      	movs	r3, #1
 8002d8c:	4a11      	ldr	r2, [pc, #68]	@ (8002dd4 <HAL_DMA_Abort_IT+0xec>)
 8002d8e:	6053      	str	r3, [r2, #4]

    /* Change the DMA state */
    hdma->State = HAL_DMA_STATE_READY;
 8002d90:	687b      	ldr	r3, [r7, #4]
 8002d92:	2201      	movs	r2, #1
 8002d94:	f883 2021 	strb.w	r2, [r3, #33]	@ 0x21

    /* Process Unlocked */
    __HAL_UNLOCK(hdma);
 8002d98:	687b      	ldr	r3, [r7, #4]
 8002d9a:	2200      	movs	r2, #0
 8002d9c:	f883 2020 	strb.w	r2, [r3, #32]

    /* Call User Abort callback */
    if(hdma->XferAbortCallback != NULL)
 8002da0:	687b      	ldr	r3, [r7, #4]
 8002da2:	6b5b      	ldr	r3, [r3, #52]	@ 0x34
 8002da4:	2b00      	cmp	r3, #0
 8002da6:	d003      	beq.n	8002db0 <HAL_DMA_Abort_IT+0xc8>
    {
      hdma->XferAbortCallback(hdma);
 8002da8:	687b      	ldr	r3, [r7, #4]
 8002daa:	6b5b      	ldr	r3, [r3, #52]	@ 0x34
 8002dac:	6878      	ldr	r0, [r7, #4]
 8002dae:	4798      	blx	r3
    } 
  }
  return status;
 8002db0:	7bfb      	ldrb	r3, [r7, #15]
}
 8002db2:	4618      	mov	r0, r3
 8002db4:	3710      	adds	r7, #16
 8002db6:	46bd      	mov	sp, r7
 8002db8:	bd80      	pop	{r7, pc}
 8002dba:	bf00      	nop
 8002dbc:	40020008 	.word	0x40020008
 8002dc0:	4002001c 	.word	0x4002001c
 8002dc4:	40020030 	.word	0x40020030
 8002dc8:	40020044 	.word	0x40020044
 8002dcc:	40020058 	.word	0x40020058
 8002dd0:	4002006c 	.word	0x4002006c
 8002dd4:	40020000 	.word	0x40020000

08002dd8 <HAL_GPIO_Init>:
  * @param  GPIO_Init: pointer to a GPIO_InitTypeDef structure that contains
  *         the configuration information for the specified GPIO peripheral.
  * @retval None
  */
void HAL_GPIO_Init(GPIO_TypeDef  *GPIOx, GPIO_InitTypeDef *GPIO_Init)
{
 8002dd8:	b480      	push	{r7}
 8002dda:	b08b      	sub	sp, #44	@ 0x2c
 8002ddc:	af00      	add	r7, sp, #0
 8002dde:	6078      	str	r0, [r7, #4]
 8002de0:	6039      	str	r1, [r7, #0]
  uint32_t position = 0x00u;
 8002de2:	2300      	movs	r3, #0
 8002de4:	627b      	str	r3, [r7, #36]	@ 0x24
  uint32_t ioposition;
  uint32_t iocurrent;
  uint32_t temp;
  uint32_t config = 0x00u;
 8002de6:	2300      	movs	r3, #0
 8002de8:	623b      	str	r3, [r7, #32]
  assert_param(IS_GPIO_ALL_INSTANCE(GPIOx));
  assert_param(IS_GPIO_PIN(GPIO_Init->Pin));
  assert_param(IS_GPIO_MODE(GPIO_Init->Mode));

  /* Configure the port pins */
  while (((GPIO_Init->Pin) >> position) != 0x00u)
 8002dea:	e169      	b.n	80030c0 <HAL_GPIO_Init+0x2e8>
  {
    /* Get the IO position */
    ioposition = (0x01uL << position);
 8002dec:	2201      	movs	r2, #1
 8002dee:	6a7b      	ldr	r3, [r7, #36]	@ 0x24
 8002df0:	fa02 f303 	lsl.w	r3, r2, r3
 8002df4:	61fb      	str	r3, [r7, #28]

    /* Get the current IO position */
    iocurrent = (uint32_t)(GPIO_Init->Pin) & ioposition;
 8002df6:	683b      	ldr	r3, [r7, #0]
 8002df8:	681b      	ldr	r3, [r3, #0]
 8002dfa:	69fa      	ldr	r2, [r7, #28]
 8002dfc:	4013      	ands	r3, r2
 8002dfe:	61bb      	str	r3, [r7, #24]

    if (iocurrent == ioposition)
 8002e00:	69ba      	ldr	r2, [r7, #24]
 8002e02:	69fb      	ldr	r3, [r7, #28]
 8002e04:	429a      	cmp	r2, r3
 8002e06:	f040 8158 	bne.w	80030ba <HAL_GPIO_Init+0x2e2>
    {
      /* Check the Alternate function parameters */
      assert_param(IS_GPIO_AF_INSTANCE(GPIOx));

      /* Based on the required mode, filling config variable with MODEy[1:0] and CNFy[3:2] corresponding bits */
      switch (GPIO_Init->Mode)
 8002e0a:	683b      	ldr	r3, [r7, #0]
 8002e0c:	685b      	ldr	r3, [r3, #4]
 8002e0e:	4a9a      	ldr	r2, [pc, #616]	@ (8003078 <HAL_GPIO_Init+0x2a0>)
 8002e10:	4293      	cmp	r3, r2
 8002e12:	d05e      	beq.n	8002ed2 <HAL_GPIO_Init+0xfa>
 8002e14:	4a98      	ldr	r2, [pc, #608]	@ (8003078 <HAL_GPIO_Init+0x2a0>)
 8002e16:	4293      	cmp	r3, r2
 8002e18:	d875      	bhi.n	8002f06 <HAL_GPIO_Init+0x12e>
 8002e1a:	4a98      	ldr	r2, [pc, #608]	@ (800307c <HAL_GPIO_Init+0x2a4>)
 8002e1c:	4293      	cmp	r3, r2
 8002e1e:	d058      	beq.n	8002ed2 <HAL_GPIO_Init+0xfa>
 8002e20:	4a96      	ldr	r2, [pc, #600]	@ (800307c <HAL_GPIO_Init+0x2a4>)
 8002e22:	4293      	cmp	r3, r2
 8002e24:	d86f      	bhi.n	8002f06 <HAL_GPIO_Init+0x12e>
 8002e26:	4a96      	ldr	r2, [pc, #600]	@ (8003080 <HAL_GPIO_Init+0x2a8>)
 8002e28:	4293      	cmp	r3, r2
 8002e2a:	d052      	beq.n	8002ed2 <HAL_GPIO_Init+0xfa>
 8002e2c:	4a94      	ldr	r2, [pc, #592]	@ (8003080 <HAL_GPIO_Init+0x2a8>)
 8002e2e:	4293      	cmp	r3, r2
 8002e30:	d869      	bhi.n	8002f06 <HAL_GPIO_Init+0x12e>
 8002e32:	4a94      	ldr	r2, [pc, #592]	@ (8003084 <HAL_GPIO_Init+0x2ac>)
 8002e34:	4293      	cmp	r3, r2
 8002e36:	d04c      	beq.n	8002ed2 <HAL_GPIO_Init+0xfa>
 8002e38:	4a92      	ldr	r2, [pc, #584]	@ (8003084 <HAL_GPIO_Init+0x2ac>)
 8002e3a:	4293      	cmp	r3, r2
 8002e3c:	d863      	bhi.n	8002f06 <HAL_GPIO_Init+0x12e>
 8002e3e:	4a92      	ldr	r2, [pc, #584]	@ (8003088 <HAL_GPIO_Init+0x2b0>)
 8002e40:	4293      	cmp	r3, r2
 8002e42:	d046      	beq.n	8002ed2 <HAL_GPIO_Init+0xfa>
 8002e44:	4a90      	ldr	r2, [pc, #576]	@ (8003088 <HAL_GPIO_Init+0x2b0>)
 8002e46:	4293      	cmp	r3, r2
 8002e48:	d85d      	bhi.n	8002f06 <HAL_GPIO_Init+0x12e>
 8002e4a:	2b12      	cmp	r3, #18
 8002e4c:	d82a      	bhi.n	8002ea4 <HAL_GPIO_Init+0xcc>
 8002e4e:	2b12      	cmp	r3, #18
 8002e50:	d859      	bhi.n	8002f06 <HAL_GPIO_Init+0x12e>
 8002e52:	a201      	add	r2, pc, #4	@ (adr r2, 8002e58 <HAL_GPIO_Init+0x80>)
 8002e54:	f852 f023 	ldr.w	pc, [r2, r3, lsl #2]
 8002e58:	08002ed3 	.word	0x08002ed3
 8002e5c:	08002ead 	.word	0x08002ead
 8002e60:	08002ebf 	.word	0x08002ebf
 8002e64:	08002f01 	.word	0x08002f01
 8002e68:	08002f07 	.word	0x08002f07
 8002e6c:	08002f07 	.word	0x08002f07
 8002e70:	08002f07 	.word	0x08002f07
 8002e74:	08002f07 	.word	0x08002f07
 8002e78:	08002f07 	.word	0x08002f07
 8002e7c:	08002f07 	.word	0x08002f07
 8002e80:	08002f07 	.word	0x08002f07
 8002e84:	08002f07 	.word	0x08002f07
 8002e88:	08002f07 	.word	0x08002f07
 8002e8c:	08002f07 	.word	0x08002f07
 8002e90:	08002f07 	.word	0x08002f07
 8002e94:	08002f07 	.word	0x08002f07
 8002e98:	08002f07 	.word	0x08002f07
 8002e9c:	08002eb5 	.word	0x08002eb5
 8002ea0:	08002ec9 	.word	0x08002ec9
 8002ea4:	4a79      	ldr	r2, [pc, #484]	@ (800308c <HAL_GPIO_Init+0x2b4>)
 8002ea6:	4293      	cmp	r3, r2
 8002ea8:	d013      	beq.n	8002ed2 <HAL_GPIO_Init+0xfa>
          config = GPIO_CR_MODE_INPUT + GPIO_CR_CNF_ANALOG;
          break;

        /* Parameters are checked with assert_param */
        default:
          break;
 8002eaa:	e02c      	b.n	8002f06 <HAL_GPIO_Init+0x12e>
          config = GPIO_Init->Speed + GPIO_CR_CNF_GP_OUTPUT_PP;
 8002eac:	683b      	ldr	r3, [r7, #0]
 8002eae:	68db      	ldr	r3, [r3, #12]
 8002eb0:	623b      	str	r3, [r7, #32]
          break;
 8002eb2:	e029      	b.n	8002f08 <HAL_GPIO_Init+0x130>
          config = GPIO_Init->Speed + GPIO_CR_CNF_GP_OUTPUT_OD;
 8002eb4:	683b      	ldr	r3, [r7, #0]
 8002eb6:	68db      	ldr	r3, [r3, #12]
 8002eb8:	3304      	adds	r3, #4
 8002eba:	623b      	str	r3, [r7, #32]
          break;
 8002ebc:	e024      	b.n	8002f08 <HAL_GPIO_Init+0x130>
          config = GPIO_Init->Speed + GPIO_CR_CNF_AF_OUTPUT_PP;
 8002ebe:	683b      	ldr	r3, [r7, #0]
 8002ec0:	68db      	ldr	r3, [r3, #12]
 8002ec2:	3308      	adds	r3, #8
 8002ec4:	623b      	str	r3, [r7, #32]
          break;
 8002ec6:	e01f      	b.n	8002f08 <HAL_GPIO_Init+0x130>
          config = GPIO_Init->Speed + GPIO_CR_CNF_AF_OUTPUT_OD;
 8002ec8:	683b      	ldr	r3, [r7, #0]
 8002eca:	68db      	ldr	r3, [r3, #12]
 8002ecc:	330c      	adds	r3, #12
 8002ece:	623b      	str	r3, [r7, #32]
          break;
 8002ed0:	e01a      	b.n	8002f08 <HAL_GPIO_Init+0x130>
          if (GPIO_Init->Pull == GPIO_NOPULL)
 8002ed2:	683b      	ldr	r3, [r7, #0]
 8002ed4:	689b      	ldr	r3, [r3, #8]
 8002ed6:	2b00      	cmp	r3, #0
 8002ed8:	d102      	bne.n	8002ee0 <HAL_GPIO_Init+0x108>
            config = GPIO_CR_MODE_INPUT + GPIO_CR_CNF_INPUT_FLOATING;
 8002eda:	2304      	movs	r3, #4
 8002edc:	623b      	str	r3, [r7, #32]
          break;
 8002ede:	e013      	b.n	8002f08 <HAL_GPIO_Init+0x130>
          else if (GPIO_Init->Pull == GPIO_PULLUP)
 8002ee0:	683b      	ldr	r3, [r7, #0]
 8002ee2:	689b      	ldr	r3, [r3, #8]
 8002ee4:	2b01      	cmp	r3, #1
 8002ee6:	d105      	bne.n	8002ef4 <HAL_GPIO_Init+0x11c>
            config = GPIO_CR_MODE_INPUT + GPIO_CR_CNF_INPUT_PU_PD;
 8002ee8:	2308      	movs	r3, #8
 8002eea:	623b      	str	r3, [r7, #32]
            GPIOx->BSRR = ioposition;
 8002eec:	687b      	ldr	r3, [r7, #4]
 8002eee:	69fa      	ldr	r2, [r7, #28]
 8002ef0:	611a      	str	r2, [r3, #16]
          break;
 8002ef2:	e009      	b.n	8002f08 <HAL_GPIO_Init+0x130>
            config = GPIO_CR_MODE_INPUT + GPIO_CR_CNF_INPUT_PU_PD;
 8002ef4:	2308      	movs	r3, #8
 8002ef6:	623b      	str	r3, [r7, #32]
            GPIOx->BRR = ioposition;
 8002ef8:	687b      	ldr	r3, [r7, #4]
 8002efa:	69fa      	ldr	r2, [r7, #28]
 8002efc:	615a      	str	r2, [r3, #20]
          break;
 8002efe:	e003      	b.n	8002f08 <HAL_GPIO_Init+0x130>
          config = GPIO_CR_MODE_INPUT + GPIO_CR_CNF_ANALOG;
 8002f00:	2300      	movs	r3, #0
 8002f02:	623b      	str	r3, [r7, #32]
          break;
 8002f04:	e000      	b.n	8002f08 <HAL_GPIO_Init+0x130>
          break;
 8002f06:	bf00      	nop
      }

      /* Check if the current bit belongs to first half or last half of the pin count number
       in order to address CRH or CRL register*/
      configregister = (iocurrent < GPIO_PIN_8) ? &GPIOx->CRL     : &GPIOx->CRH;
 8002f08:	69bb      	ldr	r3, [r7, #24]
 8002f0a:	2bff      	cmp	r3, #255	@ 0xff
 8002f0c:	d801      	bhi.n	8002f12 <HAL_GPIO_Init+0x13a>
 8002f0e:	687b      	ldr	r3, [r7, #4]
 8002f10:	e001      	b.n	8002f16 <HAL_GPIO_Init+0x13e>
 8002f12:	687b      	ldr	r3, [r7, #4]
 8002f14:	3304      	adds	r3, #4
 8002f16:	617b      	str	r3, [r7, #20]
      registeroffset = (iocurrent < GPIO_PIN_8) ? (position << 2u) : ((position - 8u) << 2u);
 8002f18:	69bb      	ldr	r3, [r7, #24]
 8002f1a:	2bff      	cmp	r3, #255	@ 0xff
 8002f1c:	d802      	bhi.n	8002f24 <HAL_GPIO_Init+0x14c>
 8002f1e:	6a7b      	ldr	r3, [r7, #36]	@ 0x24
 8002f20:	009b      	lsls	r3, r3, #2
 8002f22:	e002      	b.n	8002f2a <HAL_GPIO_Init+0x152>
 8002f24:	6a7b      	ldr	r3, [r7, #36]	@ 0x24
 8002f26:	3b08      	subs	r3, #8
 8002f28:	009b      	lsls	r3, r3, #2
 8002f2a:	613b      	str	r3, [r7, #16]

      /* Apply the new configuration of the pin to the register */
      MODIFY_REG((*configregister), ((GPIO_CRL_MODE0 | GPIO_CRL_CNF0) << registeroffset), (config << registeroffset));
 8002f2c:	697b      	ldr	r3, [r7, #20]
 8002f2e:	681a      	ldr	r2, [r3, #0]
 8002f30:	210f      	movs	r1, #15
 8002f32:	693b      	ldr	r3, [r7, #16]
 8002f34:	fa01 f303 	lsl.w	r3, r1, r3
 8002f38:	43db      	mvns	r3, r3
 8002f3a:	401a      	ands	r2, r3
 8002f3c:	6a39      	ldr	r1, [r7, #32]
 8002f3e:	693b      	ldr	r3, [r7, #16]
 8002f40:	fa01 f303 	lsl.w	r3, r1, r3
 8002f44:	431a      	orrs	r2, r3
 8002f46:	697b      	ldr	r3, [r7, #20]
 8002f48:	601a      	str	r2, [r3, #0]

      /*--------------------- EXTI Mode Configuration ------------------------*/
      /* Configure the External Interrupt or event for the current IO */
      if ((GPIO_Init->Mode & EXTI_MODE) == EXTI_MODE)
 8002f4a:	683b      	ldr	r3, [r7, #0]
 8002f4c:	685b      	ldr	r3, [r3, #4]
 8002f4e:	f003 5380 	and.w	r3, r3, #268435456	@ 0x10000000
 8002f52:	2b00      	cmp	r3, #0
 8002f54:	f000 80b1 	beq.w	80030ba <HAL_GPIO_Init+0x2e2>
      {
        /* Enable AFIO Clock */
        __HAL_RCC_AFIO_CLK_ENABLE();
 8002f58:	4b4d      	ldr	r3, [pc, #308]	@ (8003090 <HAL_GPIO_Init+0x2b8>)
 8002f5a:	699b      	ldr	r3, [r3, #24]
 8002f5c:	4a4c      	ldr	r2, [pc, #304]	@ (8003090 <HAL_GPIO_Init+0x2b8>)
 8002f5e:	f043 0301 	orr.w	r3, r3, #1
 8002f62:	6193      	str	r3, [r2, #24]
 8002f64:	4b4a      	ldr	r3, [pc, #296]	@ (8003090 <HAL_GPIO_Init+0x2b8>)
 8002f66:	699b      	ldr	r3, [r3, #24]
 8002f68:	f003 0301 	and.w	r3, r3, #1
 8002f6c:	60bb      	str	r3, [r7, #8]
 8002f6e:	68bb      	ldr	r3, [r7, #8]
        temp = AFIO->EXTICR[position >> 2u];
 8002f70:	4a48      	ldr	r2, [pc, #288]	@ (8003094 <HAL_GPIO_Init+0x2bc>)
 8002f72:	6a7b      	ldr	r3, [r7, #36]	@ 0x24
 8002f74:	089b      	lsrs	r3, r3, #2
 8002f76:	3302      	adds	r3, #2
 8002f78:	f852 3023 	ldr.w	r3, [r2, r3, lsl #2]
 8002f7c:	60fb      	str	r3, [r7, #12]
        CLEAR_BIT(temp, (0x0Fu) << (4u * (position & 0x03u)));
 8002f7e:	6a7b      	ldr	r3, [r7, #36]	@ 0x24
 8002f80:	f003 0303 	and.w	r3, r3, #3
 8002f84:	009b      	lsls	r3, r3, #2
 8002f86:	220f      	movs	r2, #15
 8002f88:	fa02 f303 	lsl.w	r3, r2, r3
 8002f8c:	43db      	mvns	r3, r3
 8002f8e:	68fa      	ldr	r2, [r7, #12]
 8002f90:	4013      	ands	r3, r2
 8002f92:	60fb      	str	r3, [r7, #12]
        SET_BIT(temp, (GPIO_GET_INDEX(GPIOx)) << (4u * (position & 0x03u)));
 8002f94:	687b      	ldr	r3, [r7, #4]
 8002f96:	4a40      	ldr	r2, [pc, #256]	@ (8003098 <HAL_GPIO_Init+0x2c0>)
 8002f98:	4293      	cmp	r3, r2
 8002f9a:	d013      	beq.n	8002fc4 <HAL_GPIO_Init+0x1ec>
 8002f9c:	687b      	ldr	r3, [r7, #4]
 8002f9e:	4a3f      	ldr	r2, [pc, #252]	@ (800309c <HAL_GPIO_Init+0x2c4>)
 8002fa0:	4293      	cmp	r3, r2
 8002fa2:	d00d      	beq.n	8002fc0 <HAL_GPIO_Init+0x1e8>
 8002fa4:	687b      	ldr	r3, [r7, #4]
 8002fa6:	4a3e      	ldr	r2, [pc, #248]	@ (80030a0 <HAL_GPIO_Init+0x2c8>)
 8002fa8:	4293      	cmp	r3, r2
 8002faa:	d007      	beq.n	8002fbc <HAL_GPIO_Init+0x1e4>
 8002fac:	687b      	ldr	r3, [r7, #4]
 8002fae:	4a3d      	ldr	r2, [pc, #244]	@ (80030a4 <HAL_GPIO_Init+0x2cc>)
 8002fb0:	4293      	cmp	r3, r2
 8002fb2:	d101      	bne.n	8002fb8 <HAL_GPIO_Init+0x1e0>
 8002fb4:	2303      	movs	r3, #3
 8002fb6:	e006      	b.n	8002fc6 <HAL_GPIO_Init+0x1ee>
 8002fb8:	2304      	movs	r3, #4
 8002fba:	e004      	b.n	8002fc6 <HAL_GPIO_Init+0x1ee>
 8002fbc:	2302      	movs	r3, #2
 8002fbe:	e002      	b.n	8002fc6 <HAL_GPIO_Init+0x1ee>
 8002fc0:	2301      	movs	r3, #1
 8002fc2:	e000      	b.n	8002fc6 <HAL_GPIO_Init+0x1ee>
 8002fc4:	2300      	movs	r3, #0
 8002fc6:	6a7a      	ldr	r2, [r7, #36]	@ 0x24
 8002fc8:	f002 0203 	and.w	r2, r2, #3
 8002fcc:	0092      	lsls	r2, r2, #2
 8002fce:	4093      	lsls	r3, r2
 8002fd0:	68fa      	ldr	r2, [r7, #12]
 8002fd2:	4313      	orrs	r3, r2
 8002fd4:	60fb      	str	r3, [r7, #12]
        AFIO->EXTICR[position >> 2u] = temp;
 8002fd6:	492f      	ldr	r1, [pc, #188]	@ (8003094 <HAL_GPIO_Init+0x2bc>)
 8002fd8:	6a7b      	ldr	r3, [r7, #36]	@ 0x24
 8002fda:	089b      	lsrs	r3, r3, #2
 8002fdc:	3302      	adds	r3, #2
 8002fde:	68fa      	ldr	r2, [r7, #12]
 8002fe0:	f841 2023 	str.w	r2, [r1, r3, lsl #2]


        /* Enable or disable the rising trigger */
        if ((GPIO_Init->Mode & RISING_EDGE) == RISING_EDGE)
 8002fe4:	683b      	ldr	r3, [r7, #0]
 8002fe6:	685b      	ldr	r3, [r3, #4]
 8002fe8:	f403 1380 	and.w	r3, r3, #1048576	@ 0x100000
 8002fec:	2b00      	cmp	r3, #0
 8002fee:	d006      	beq.n	8002ffe <HAL_GPIO_Init+0x226>
        {
          SET_BIT(EXTI->RTSR, iocurrent);
 8002ff0:	4b2d      	ldr	r3, [pc, #180]	@ (80030a8 <HAL_GPIO_Init+0x2d0>)
 8002ff2:	689a      	ldr	r2, [r3, #8]
 8002ff4:	492c      	ldr	r1, [pc, #176]	@ (80030a8 <HAL_GPIO_Init+0x2d0>)
 8002ff6:	69bb      	ldr	r3, [r7, #24]
 8002ff8:	4313      	orrs	r3, r2
 8002ffa:	608b      	str	r3, [r1, #8]
 8002ffc:	e006      	b.n	800300c <HAL_GPIO_Init+0x234>
        }
        else
        {
          CLEAR_BIT(EXTI->RTSR, iocurrent);
 8002ffe:	4b2a      	ldr	r3, [pc, #168]	@ (80030a8 <HAL_GPIO_Init+0x2d0>)
 8003000:	689a      	ldr	r2, [r3, #8]
 8003002:	69bb      	ldr	r3, [r7, #24]
 8003004:	43db      	mvns	r3, r3
 8003006:	4928      	ldr	r1, [pc, #160]	@ (80030a8 <HAL_GPIO_Init+0x2d0>)
 8003008:	4013      	ands	r3, r2
 800300a:	608b      	str	r3, [r1, #8]
        }

        /* Enable or disable the falling trigger */
        if ((GPIO_Init->Mode & FALLING_EDGE) == FALLING_EDGE)
 800300c:	683b      	ldr	r3, [r7, #0]
 800300e:	685b      	ldr	r3, [r3, #4]
 8003010:	f403 1300 	and.w	r3, r3, #2097152	@ 0x200000
 8003014:	2b00      	cmp	r3, #0
 8003016:	d006      	beq.n	8003026 <HAL_GPIO_Init+0x24e>
        {
          SET_BIT(EXTI->FTSR, iocurrent);
 8003018:	4b23      	ldr	r3, [pc, #140]	@ (80030a8 <HAL_GPIO_Init+0x2d0>)
 800301a:	68da      	ldr	r2, [r3, #12]
 800301c:	4922      	ldr	r1, [pc, #136]	@ (80030a8 <HAL_GPIO_Init+0x2d0>)
 800301e:	69bb      	ldr	r3, [r7, #24]
 8003020:	4313      	orrs	r3, r2
 8003022:	60cb      	str	r3, [r1, #12]
 8003024:	e006      	b.n	8003034 <HAL_GPIO_Init+0x25c>
        }
        else
        {
          CLEAR_BIT(EXTI->FTSR, iocurrent);
 8003026:	4b20      	ldr	r3, [pc, #128]	@ (80030a8 <HAL_GPIO_Init+0x2d0>)
 8003028:	68da      	ldr	r2, [r3, #12]
 800302a:	69bb      	ldr	r3, [r7, #24]
 800302c:	43db      	mvns	r3, r3
 800302e:	491e      	ldr	r1, [pc, #120]	@ (80030a8 <HAL_GPIO_Init+0x2d0>)
 8003030:	4013      	ands	r3, r2
 8003032:	60cb      	str	r3, [r1, #12]
        }

        /* Configure the event mask */
        if ((GPIO_Init->Mode & GPIO_MODE_EVT) == GPIO_MODE_EVT)
 8003034:	683b      	ldr	r3, [r7, #0]
 8003036:	685b      	ldr	r3, [r3, #4]
 8003038:	f403 3300 	and.w	r3, r3, #131072	@ 0x20000
 800303c:	2b00      	cmp	r3, #0
 800303e:	d006      	beq.n	800304e <HAL_GPIO_Init+0x276>
        {
          SET_BIT(EXTI->EMR, iocurrent);
 8003040:	4b19      	ldr	r3, [pc, #100]	@ (80030a8 <HAL_GPIO_Init+0x2d0>)
 8003042:	685a      	ldr	r2, [r3, #4]
 8003044:	4918      	ldr	r1, [pc, #96]	@ (80030a8 <HAL_GPIO_Init+0x2d0>)
 8003046:	69bb      	ldr	r3, [r7, #24]
 8003048:	4313      	orrs	r3, r2
 800304a:	604b      	str	r3, [r1, #4]
 800304c:	e006      	b.n	800305c <HAL_GPIO_Init+0x284>
        }
        else
        {
          CLEAR_BIT(EXTI->EMR, iocurrent);
 800304e:	4b16      	ldr	r3, [pc, #88]	@ (80030a8 <HAL_GPIO_Init+0x2d0>)
 8003050:	685a      	ldr	r2, [r3, #4]
 8003052:	69bb      	ldr	r3, [r7, #24]
 8003054:	43db      	mvns	r3, r3
 8003056:	4914      	ldr	r1, [pc, #80]	@ (80030a8 <HAL_GPIO_Init+0x2d0>)
 8003058:	4013      	ands	r3, r2
 800305a:	604b      	str	r3, [r1, #4]
        }

        /* Configure the interrupt mask */
        if ((GPIO_Init->Mode & GPIO_MODE_IT) == GPIO_MODE_IT)
 800305c:	683b      	ldr	r3, [r7, #0]
 800305e:	685b      	ldr	r3, [r3, #4]
 8003060:	f403 3380 	and.w	r3, r3, #65536	@ 0x10000
 8003064:	2b00      	cmp	r3, #0
 8003066:	d021      	beq.n	80030ac <HAL_GPIO_Init+0x2d4>
        {
          SET_BIT(EXTI->IMR, iocurrent);
 8003068:	4b0f      	ldr	r3, [pc, #60]	@ (80030a8 <HAL_GPIO_Init+0x2d0>)
 800306a:	681a      	ldr	r2, [r3, #0]
 800306c:	490e      	ldr	r1, [pc, #56]	@ (80030a8 <HAL_GPIO_Init+0x2d0>)
 800306e:	69bb      	ldr	r3, [r7, #24]
 8003070:	4313      	orrs	r3, r2
 8003072:	600b      	str	r3, [r1, #0]
 8003074:	e021      	b.n	80030ba <HAL_GPIO_Init+0x2e2>
 8003076:	bf00      	nop
 8003078:	10320000 	.word	0x10320000
 800307c:	10310000 	.word	0x10310000
 8003080:	10220000 	.word	0x10220000
 8003084:	10210000 	.word	0x10210000
 8003088:	10120000 	.word	0x10120000
 800308c:	10110000 	.word	0x10110000
 8003090:	40021000 	.word	0x40021000
 8003094:	40010000 	.word	0x40010000
 8003098:	40010800 	.word	0x40010800
 800309c:	40010c00 	.word	0x40010c00
 80030a0:	40011000 	.word	0x40011000
 80030a4:	40011400 	.word	0x40011400
 80030a8:	40010400 	.word	0x40010400
        }
        else
        {
          CLEAR_BIT(EXTI->IMR, iocurrent);
 80030ac:	4b0b      	ldr	r3, [pc, #44]	@ (80030dc <HAL_GPIO_Init+0x304>)
 80030ae:	681a      	ldr	r2, [r3, #0]
 80030b0:	69bb      	ldr	r3, [r7, #24]
 80030b2:	43db      	mvns	r3, r3
 80030b4:	4909      	ldr	r1, [pc, #36]	@ (80030dc <HAL_GPIO_Init+0x304>)
 80030b6:	4013      	ands	r3, r2
 80030b8:	600b      	str	r3, [r1, #0]
        }
      }
    }

	position++;
 80030ba:	6a7b      	ldr	r3, [r7, #36]	@ 0x24
 80030bc:	3301      	adds	r3, #1
 80030be:	627b      	str	r3, [r7, #36]	@ 0x24
  while (((GPIO_Init->Pin) >> position) != 0x00u)
 80030c0:	683b      	ldr	r3, [r7, #0]
 80030c2:	681a      	ldr	r2, [r3, #0]
 80030c4:	6a7b      	ldr	r3, [r7, #36]	@ 0x24
 80030c6:	fa22 f303 	lsr.w	r3, r2, r3
 80030ca:	2b00      	cmp	r3, #0
 80030cc:	f47f ae8e 	bne.w	8002dec <HAL_GPIO_Init+0x14>
  }
}
 80030d0:	bf00      	nop
 80030d2:	bf00      	nop
 80030d4:	372c      	adds	r7, #44	@ 0x2c
 80030d6:	46bd      	mov	sp, r7
 80030d8:	bc80      	pop	{r7}
 80030da:	4770      	bx	lr
 80030dc:	40010400 	.word	0x40010400

080030e0 <HAL_GPIO_ReadPin>:
  * @param  GPIO_Pin: specifies the port bit to read.
  *         This parameter can be GPIO_PIN_x where x can be (0..15).
  * @retval The input port pin value.
  */
GPIO_PinState HAL_GPIO_ReadPin(GPIO_TypeDef *GPIOx, uint16_t GPIO_Pin)
{
 80030e0:	b480      	push	{r7}
 80030e2:	b085      	sub	sp, #20
 80030e4:	af00      	add	r7, sp, #0
 80030e6:	6078      	str	r0, [r7, #4]
 80030e8:	460b      	mov	r3, r1
 80030ea:	807b      	strh	r3, [r7, #2]
  GPIO_PinState bitstatus;

  /* Check the parameters */
  assert_param(IS_GPIO_PIN(GPIO_Pin));

  if ((GPIOx->IDR & GPIO_Pin) != (uint32_t)GPIO_PIN_RESET)
 80030ec:	687b      	ldr	r3, [r7, #4]
 80030ee:	689a      	ldr	r2, [r3, #8]
 80030f0:	887b      	ldrh	r3, [r7, #2]
 80030f2:	4013      	ands	r3, r2
 80030f4:	2b00      	cmp	r3, #0
 80030f6:	d002      	beq.n	80030fe <HAL_GPIO_ReadPin+0x1e>
  {
    bitstatus = GPIO_PIN_SET;
 80030f8:	2301      	movs	r3, #1
 80030fa:	73fb      	strb	r3, [r7, #15]
 80030fc:	e001      	b.n	8003102 <HAL_GPIO_ReadPin+0x22>
  }
  else
  {
    bitstatus = GPIO_PIN_RESET;
 80030fe:	2300      	movs	r3, #0
 8003100:	73fb      	strb	r3, [r7, #15]
  }
  return bitstatus;
 8003102:	7bfb      	ldrb	r3, [r7, #15]
}
 8003104:	4618      	mov	r0, r3
 8003106:	3714      	adds	r7, #20
 8003108:	46bd      	mov	sp, r7
 800310a:	bc80      	pop	{r7}
 800310c:	4770      	bx	lr

0800310e <HAL_GPIO_WritePin>:
  *            @arg GPIO_PIN_RESET: to clear the port pin
  *            @arg GPIO_PIN_SET: to set the port pin
  * @retval None
  */
void HAL_GPIO_WritePin(GPIO_TypeDef *GPIOx, uint16_t GPIO_Pin, GPIO_PinState PinState)
{
 800310e:	b480      	push	{r7}
 8003110:	b083      	sub	sp, #12
 8003112:	af00      	add	r7, sp, #0
 8003114:	6078      	str	r0, [r7, #4]
 8003116:	460b      	mov	r3, r1
 8003118:	807b      	strh	r3, [r7, #2]
 800311a:	4613      	mov	r3, r2
 800311c:	707b      	strb	r3, [r7, #1]
  /* Check the parameters */
  assert_param(IS_GPIO_PIN(GPIO_Pin));
  assert_param(IS_GPIO_PIN_ACTION(PinState));

  if (PinState != GPIO_PIN_RESET)
 800311e:	787b      	ldrb	r3, [r7, #1]
 8003120:	2b00      	cmp	r3, #0
 8003122:	d003      	beq.n	800312c <HAL_GPIO_WritePin+0x1e>
  {
    GPIOx->BSRR = GPIO_Pin;
 8003124:	887a      	ldrh	r2, [r7, #2]
 8003126:	687b      	ldr	r3, [r7, #4]
 8003128:	611a      	str	r2, [r3, #16]
  }
  else
  {
    GPIOx->BSRR = (uint32_t)GPIO_Pin << 16u;
  }
}
 800312a:	e003      	b.n	8003134 <HAL_GPIO_WritePin+0x26>
    GPIOx->BSRR = (uint32_t)GPIO_Pin << 16u;
 800312c:	887b      	ldrh	r3, [r7, #2]
 800312e:	041a      	lsls	r2, r3, #16
 8003130:	687b      	ldr	r3, [r7, #4]
 8003132:	611a      	str	r2, [r3, #16]
}
 8003134:	bf00      	nop
 8003136:	370c      	adds	r7, #12
 8003138:	46bd      	mov	sp, r7
 800313a:	bc80      	pop	{r7}
 800313c:	4770      	bx	lr
	...

08003140 <HAL_GPIO_EXTI_IRQHandler>:
  * @brief  This function handles EXTI interrupt request.
  * @param  GPIO_Pin: Specifies the pins connected EXTI line
  * @retval None
  */
void HAL_GPIO_EXTI_IRQHandler(uint16_t GPIO_Pin)
{
 8003140:	b580      	push	{r7, lr}
 8003142:	b082      	sub	sp, #8
 8003144:	af00      	add	r7, sp, #0
 8003146:	4603      	mov	r3, r0
 8003148:	80fb      	strh	r3, [r7, #6]
  /* EXTI line interrupt detected */
  if (__HAL_GPIO_EXTI_GET_IT(GPIO_Pin) != 0x00u)
 800314a:	4b08      	ldr	r3, [pc, #32]	@ (800316c <HAL_GPIO_EXTI_IRQHandler+0x2c>)
 800314c:	695a      	ldr	r2, [r3, #20]
 800314e:	88fb      	ldrh	r3, [r7, #6]
 8003150:	4013      	ands	r3, r2
 8003152:	2b00      	cmp	r3, #0
 8003154:	d006      	beq.n	8003164 <HAL_GPIO_EXTI_IRQHandler+0x24>
  {
    __HAL_GPIO_EXTI_CLEAR_IT(GPIO_Pin);
 8003156:	4a05      	ldr	r2, [pc, #20]	@ (800316c <HAL_GPIO_EXTI_IRQHandler+0x2c>)
 8003158:	88fb      	ldrh	r3, [r7, #6]
 800315a:	6153      	str	r3, [r2, #20]
    HAL_GPIO_EXTI_Callback(GPIO_Pin);
 800315c:	88fb      	ldrh	r3, [r7, #6]
 800315e:	4618      	mov	r0, r3
 8003160:	f7fe fd9e 	bl	8001ca0 <HAL_GPIO_EXTI_Callback>
  }
}
 8003164:	bf00      	nop
 8003166:	3708      	adds	r7, #8
 8003168:	46bd      	mov	sp, r7
 800316a:	bd80      	pop	{r7, pc}
 800316c:	40010400 	.word	0x40010400

08003170 <HAL_I2C_Init>:
  * @param  hi2c Pointer to a I2C_HandleTypeDef structure that contains
  *                the configuration information for the specified I2C.
  * @retval HAL status
  */
HAL_StatusTypeDef HAL_I2C_Init(I2C_HandleTypeDef *hi2c)
{
 8003170:	b580      	push	{r7, lr}
 8003172:	b084      	sub	sp, #16
 8003174:	af00      	add	r7, sp, #0
 8003176:	6078      	str	r0, [r7, #4]
  uint32_t freqrange;
  uint32_t pclk1;

  /* Check the I2C handle allocation */
  if (hi2c == NULL)
 8003178:	687b      	ldr	r3, [r7, #4]
 800317a:	2b00      	cmp	r3, #0
 800317c:	d101      	bne.n	8003182 <HAL_I2C_Init+0x12>
  {
    return HAL_ERROR;
 800317e:	2301      	movs	r3, #1
 8003180:	e12b      	b.n	80033da <HAL_I2C_Init+0x26a>
  assert_param(IS_I2C_DUAL_ADDRESS(hi2c->Init.DualAddressMode));
  assert_param(IS_I2C_OWN_ADDRESS2(hi2c->Init.OwnAddress2));
  assert_param(IS_I2C_GENERAL_CALL(hi2c->Init.GeneralCallMode));
  assert_param(IS_I2C_NO_STRETCH(hi2c->Init.NoStretchMode));

  if (hi2c->State == HAL_I2C_STATE_RESET)
 8003182:	687b      	ldr	r3, [r7, #4]
 8003184:	f893 303d 	ldrb.w	r3, [r3, #61]	@ 0x3d
 8003188:	b2db      	uxtb	r3, r3
 800318a:	2b00      	cmp	r3, #0
 800318c:	d106      	bne.n	800319c <HAL_I2C_Init+0x2c>
  {
    /* Allocate lock resource and initialize it */
    hi2c->Lock = HAL_UNLOCKED;
 800318e:	687b      	ldr	r3, [r7, #4]
 8003190:	2200      	movs	r2, #0
 8003192:	f883 203c 	strb.w	r2, [r3, #60]	@ 0x3c

    /* Init the low level hardware : GPIO, CLOCK, NVIC */
    hi2c->MspInitCallback(hi2c);
#else
    /* Init the low level hardware : GPIO, CLOCK, NVIC */
    HAL_I2C_MspInit(hi2c);
 8003196:	6878      	ldr	r0, [r7, #4]
 8003198:	f7fd f92c 	bl	80003f4 <HAL_I2C_MspInit>
#endif /* USE_HAL_I2C_REGISTER_CALLBACKS */
  }

  hi2c->State = HAL_I2C_STATE_BUSY;
 800319c:	687b      	ldr	r3, [r7, #4]
 800319e:	2224      	movs	r2, #36	@ 0x24
 80031a0:	f883 203d 	strb.w	r2, [r3, #61]	@ 0x3d

  /* Disable the selected I2C peripheral */
  __HAL_I2C_DISABLE(hi2c);
 80031a4:	687b      	ldr	r3, [r7, #4]
 80031a6:	681b      	ldr	r3, [r3, #0]
 80031a8:	681a      	ldr	r2, [r3, #0]
 80031aa:	687b      	ldr	r3, [r7, #4]
 80031ac:	681b      	ldr	r3, [r3, #0]
 80031ae:	f022 0201 	bic.w	r2, r2, #1
 80031b2:	601a      	str	r2, [r3, #0]

  /*Reset I2C*/
  hi2c->Instance->CR1 |= I2C_CR1_SWRST;
 80031b4:	687b      	ldr	r3, [r7, #4]
 80031b6:	681b      	ldr	r3, [r3, #0]
 80031b8:	681a      	ldr	r2, [r3, #0]
 80031ba:	687b      	ldr	r3, [r7, #4]
 80031bc:	681b      	ldr	r3, [r3, #0]
 80031be:	f442 4200 	orr.w	r2, r2, #32768	@ 0x8000
 80031c2:	601a      	str	r2, [r3, #0]
  hi2c->Instance->CR1 &= ~I2C_CR1_SWRST;
 80031c4:	687b      	ldr	r3, [r7, #4]
 80031c6:	681b      	ldr	r3, [r3, #0]
 80031c8:	681a      	ldr	r2, [r3, #0]
 80031ca:	687b      	ldr	r3, [r7, #4]
 80031cc:	681b      	ldr	r3, [r3, #0]
 80031ce:	f422 4200 	bic.w	r2, r2, #32768	@ 0x8000
 80031d2:	601a      	str	r2, [r3, #0]

  /* Get PCLK1 frequency */
  pclk1 = HAL_RCC_GetPCLK1Freq();
 80031d4:	f001 fbfc 	bl	80049d0 <HAL_RCC_GetPCLK1Freq>
 80031d8:	60f8      	str	r0, [r7, #12]

  /* Check the minimum allowed PCLK1 frequency */
  if (I2C_MIN_PCLK_FREQ(pclk1, hi2c->Init.ClockSpeed) == 1U)
 80031da:	687b      	ldr	r3, [r7, #4]
 80031dc:	685b      	ldr	r3, [r3, #4]
 80031de:	4a81      	ldr	r2, [pc, #516]	@ (80033e4 <HAL_I2C_Init+0x274>)
 80031e0:	4293      	cmp	r3, r2
 80031e2:	d807      	bhi.n	80031f4 <HAL_I2C_Init+0x84>
 80031e4:	68fb      	ldr	r3, [r7, #12]
 80031e6:	4a80      	ldr	r2, [pc, #512]	@ (80033e8 <HAL_I2C_Init+0x278>)
 80031e8:	4293      	cmp	r3, r2
 80031ea:	bf94      	ite	ls
 80031ec:	2301      	movls	r3, #1
 80031ee:	2300      	movhi	r3, #0
 80031f0:	b2db      	uxtb	r3, r3
 80031f2:	e006      	b.n	8003202 <HAL_I2C_Init+0x92>
 80031f4:	68fb      	ldr	r3, [r7, #12]
 80031f6:	4a7d      	ldr	r2, [pc, #500]	@ (80033ec <HAL_I2C_Init+0x27c>)
 80031f8:	4293      	cmp	r3, r2
 80031fa:	bf94      	ite	ls
 80031fc:	2301      	movls	r3, #1
 80031fe:	2300      	movhi	r3, #0
 8003200:	b2db      	uxtb	r3, r3
 8003202:	2b00      	cmp	r3, #0
 8003204:	d001      	beq.n	800320a <HAL_I2C_Init+0x9a>
  {
    return HAL_ERROR;
 8003206:	2301      	movs	r3, #1
 8003208:	e0e7      	b.n	80033da <HAL_I2C_Init+0x26a>
  }

  /* Calculate frequency range */
  freqrange = I2C_FREQRANGE(pclk1);
 800320a:	68fb      	ldr	r3, [r7, #12]
 800320c:	4a78      	ldr	r2, [pc, #480]	@ (80033f0 <HAL_I2C_Init+0x280>)
 800320e:	fba2 2303 	umull	r2, r3, r2, r3
 8003212:	0c9b      	lsrs	r3, r3, #18
 8003214:	60bb      	str	r3, [r7, #8]

  /*---------------------------- I2Cx CR2 Configuration ----------------------*/
  /* Configure I2Cx: Frequency range */
  MODIFY_REG(hi2c->Instance->CR2, I2C_CR2_FREQ, freqrange);
 8003216:	687b      	ldr	r3, [r7, #4]
 8003218:	681b      	ldr	r3, [r3, #0]
 800321a:	685b      	ldr	r3, [r3, #4]
 800321c:	f023 013f 	bic.w	r1, r3, #63	@ 0x3f
 8003220:	687b      	ldr	r3, [r7, #4]
 8003222:	681b      	ldr	r3, [r3, #0]
 8003224:	68ba      	ldr	r2, [r7, #8]
 8003226:	430a      	orrs	r2, r1
 8003228:	605a      	str	r2, [r3, #4]

  /*---------------------------- I2Cx TRISE Configuration --------------------*/
  /* Configure I2Cx: Rise Time */
  MODIFY_REG(hi2c->Instance->TRISE, I2C_TRISE_TRISE, I2C_RISE_TIME(freqrange, hi2c->Init.ClockSpeed));
 800322a:	687b      	ldr	r3, [r7, #4]
 800322c:	681b      	ldr	r3, [r3, #0]
 800322e:	6a1b      	ldr	r3, [r3, #32]
 8003230:	f023 013f 	bic.w	r1, r3, #63	@ 0x3f
 8003234:	687b      	ldr	r3, [r7, #4]
 8003236:	685b      	ldr	r3, [r3, #4]
 8003238:	4a6a      	ldr	r2, [pc, #424]	@ (80033e4 <HAL_I2C_Init+0x274>)
 800323a:	4293      	cmp	r3, r2
 800323c:	d802      	bhi.n	8003244 <HAL_I2C_Init+0xd4>
 800323e:	68bb      	ldr	r3, [r7, #8]
 8003240:	3301      	adds	r3, #1
 8003242:	e009      	b.n	8003258 <HAL_I2C_Init+0xe8>
 8003244:	68bb      	ldr	r3, [r7, #8]
 8003246:	f44f 7296 	mov.w	r2, #300	@ 0x12c
 800324a:	fb02 f303 	mul.w	r3, r2, r3
 800324e:	4a69      	ldr	r2, [pc, #420]	@ (80033f4 <HAL_I2C_Init+0x284>)
 8003250:	fba2 2303 	umull	r2, r3, r2, r3
 8003254:	099b      	lsrs	r3, r3, #6
 8003256:	3301      	adds	r3, #1
 8003258:	687a      	ldr	r2, [r7, #4]
 800325a:	6812      	ldr	r2, [r2, #0]
 800325c:	430b      	orrs	r3, r1
 800325e:	6213      	str	r3, [r2, #32]

  /*---------------------------- I2Cx CCR Configuration ----------------------*/
  /* Configure I2Cx: Speed */
  MODIFY_REG(hi2c->Instance->CCR, (I2C_CCR_FS | I2C_CCR_DUTY | I2C_CCR_CCR), I2C_SPEED(pclk1, hi2c->Init.ClockSpeed, hi2c->Init.DutyCycle));
 8003260:	687b      	ldr	r3, [r7, #4]
 8003262:	681b      	ldr	r3, [r3, #0]
 8003264:	69db      	ldr	r3, [r3, #28]
 8003266:	f423 424f 	bic.w	r2, r3, #52992	@ 0xcf00
 800326a:	f022 02ff 	bic.w	r2, r2, #255	@ 0xff
 800326e:	687b      	ldr	r3, [r7, #4]
 8003270:	685b      	ldr	r3, [r3, #4]
 8003272:	495c      	ldr	r1, [pc, #368]	@ (80033e4 <HAL_I2C_Init+0x274>)
 8003274:	428b      	cmp	r3, r1
 8003276:	d819      	bhi.n	80032ac <HAL_I2C_Init+0x13c>
 8003278:	68fb      	ldr	r3, [r7, #12]
 800327a:	1e59      	subs	r1, r3, #1
 800327c:	687b      	ldr	r3, [r7, #4]
 800327e:	685b      	ldr	r3, [r3, #4]
 8003280:	005b      	lsls	r3, r3, #1
 8003282:	fbb1 f3f3 	udiv	r3, r1, r3
 8003286:	1c59      	adds	r1, r3, #1
 8003288:	f640 73fc 	movw	r3, #4092	@ 0xffc
 800328c:	400b      	ands	r3, r1
 800328e:	2b00      	cmp	r3, #0
 8003290:	d00a      	beq.n	80032a8 <HAL_I2C_Init+0x138>
 8003292:	68fb      	ldr	r3, [r7, #12]
 8003294:	1e59      	subs	r1, r3, #1
 8003296:	687b      	ldr	r3, [r7, #4]
 8003298:	685b      	ldr	r3, [r3, #4]
 800329a:	005b      	lsls	r3, r3, #1
 800329c:	fbb1 f3f3 	udiv	r3, r1, r3
 80032a0:	3301      	adds	r3, #1
 80032a2:	f3c3 030b 	ubfx	r3, r3, #0, #12
 80032a6:	e051      	b.n	800334c <HAL_I2C_Init+0x1dc>
 80032a8:	2304      	movs	r3, #4
 80032aa:	e04f      	b.n	800334c <HAL_I2C_Init+0x1dc>
 80032ac:	687b      	ldr	r3, [r7, #4]
 80032ae:	689b      	ldr	r3, [r3, #8]
 80032b0:	2b00      	cmp	r3, #0
 80032b2:	d111      	bne.n	80032d8 <HAL_I2C_Init+0x168>
 80032b4:	68fb      	ldr	r3, [r7, #12]
 80032b6:	1e58      	subs	r0, r3, #1
 80032b8:	687b      	ldr	r3, [r7, #4]
 80032ba:	6859      	ldr	r1, [r3, #4]
 80032bc:	460b      	mov	r3, r1
 80032be:	005b      	lsls	r3, r3, #1
 80032c0:	440b      	add	r3, r1
 80032c2:	fbb0 f3f3 	udiv	r3, r0, r3
 80032c6:	3301      	adds	r3, #1
 80032c8:	f3c3 030b 	ubfx	r3, r3, #0, #12
 80032cc:	2b00      	cmp	r3, #0
 80032ce:	bf0c      	ite	eq
 80032d0:	2301      	moveq	r3, #1
 80032d2:	2300      	movne	r3, #0
 80032d4:	b2db      	uxtb	r3, r3
 80032d6:	e012      	b.n	80032fe <HAL_I2C_Init+0x18e>
 80032d8:	68fb      	ldr	r3, [r7, #12]
 80032da:	1e58      	subs	r0, r3, #1
 80032dc:	687b      	ldr	r3, [r7, #4]
 80032de:	6859      	ldr	r1, [r3, #4]
 80032e0:	460b      	mov	r3, r1
 80032e2:	009b      	lsls	r3, r3, #2
 80032e4:	440b      	add	r3, r1
 80032e6:	0099      	lsls	r1, r3, #2
 80032e8:	440b      	add	r3, r1
 80032ea:	fbb0 f3f3 	udiv	r3, r0, r3
 80032ee:	3301      	adds	r3, #1
 80032f0:	f3c3 030b 	ubfx	r3, r3, #0, #12
 80032f4:	2b00      	cmp	r3, #0
 80032f6:	bf0c      	ite	eq
 80032f8:	2301      	moveq	r3, #1
 80032fa:	2300      	movne	r3, #0
 80032fc:	b2db      	uxtb	r3, r3
 80032fe:	2b00      	cmp	r3, #0
 8003300:	d001      	beq.n	8003306 <HAL_I2C_Init+0x196>
 8003302:	2301      	movs	r3, #1
 8003304:	e022      	b.n	800334c <HAL_I2C_Init+0x1dc>
 8003306:	687b      	ldr	r3, [r7, #4]
 8003308:	689b      	ldr	r3, [r3, #8]
 800330a:	2b00      	cmp	r3, #0
 800330c:	d10e      	bne.n	800332c <HAL_I2C_Init+0x1bc>
 800330e:	68fb      	ldr	r3, [r7, #12]
 8003310:	1e58      	subs	r0, r3, #1
 8003312:	687b      	ldr	r3, [r7, #4]
 8003314:	6859      	ldr	r1, [r3, #4]
 8003316:	460b      	mov	r3, r1
 8003318:	005b      	lsls	r3, r3, #1
 800331a:	440b      	add	r3, r1
 800331c:	fbb0 f3f3 	udiv	r3, r0, r3
 8003320:	3301      	adds	r3, #1
 8003322:	f3c3 030b 	ubfx	r3, r3, #0, #12
 8003326:	f443 4300 	orr.w	r3, r3, #32768	@ 0x8000
 800332a:	e00f      	b.n	800334c <HAL_I2C_Init+0x1dc>
 800332c:	68fb      	ldr	r3, [r7, #12]
 800332e:	1e58      	subs	r0, r3, #1
 8003330:	687b      	ldr	r3, [r7, #4]
 8003332:	6859      	ldr	r1, [r3, #4]
 8003334:	460b      	mov	r3, r1
 8003336:	009b      	lsls	r3, r3, #2
 8003338:	440b      	add	r3, r1
 800333a:	0099      	lsls	r1, r3, #2
 800333c:	440b      	add	r3, r1
 800333e:	fbb0 f3f3 	udiv	r3, r0, r3
 8003342:	3301      	adds	r3, #1
 8003344:	f3c3 030b 	ubfx	r3, r3, #0, #12
 8003348:	f443 4340 	orr.w	r3, r3, #49152	@ 0xc000
 800334c:	6879      	ldr	r1, [r7, #4]
 800334e:	6809      	ldr	r1, [r1, #0]
 8003350:	4313      	orrs	r3, r2
 8003352:	61cb      	str	r3, [r1, #28]

  /*---------------------------- I2Cx CR1 Configuration ----------------------*/
  /* Configure I2Cx: Generalcall and NoStretch mode */
  MODIFY_REG(hi2c->Instance->CR1, (I2C_CR1_ENGC | I2C_CR1_NOSTRETCH), (hi2c->Init.GeneralCallMode | hi2c->Init.NoStretchMode));
 8003354:	687b      	ldr	r3, [r7, #4]
 8003356:	681b      	ldr	r3, [r3, #0]
 8003358:	681b      	ldr	r3, [r3, #0]
 800335a:	f023 01c0 	bic.w	r1, r3, #192	@ 0xc0
 800335e:	687b      	ldr	r3, [r7, #4]
 8003360:	69da      	ldr	r2, [r3, #28]
 8003362:	687b      	ldr	r3, [r7, #4]
 8003364:	6a1b      	ldr	r3, [r3, #32]
 8003366:	431a      	orrs	r2, r3
 8003368:	687b      	ldr	r3, [r7, #4]
 800336a:	681b      	ldr	r3, [r3, #0]
 800336c:	430a      	orrs	r2, r1
 800336e:	601a      	str	r2, [r3, #0]

  /*---------------------------- I2Cx OAR1 Configuration ---------------------*/
  /* Configure I2Cx: Own Address1 and addressing mode */
  MODIFY_REG(hi2c->Instance->OAR1, (I2C_OAR1_ADDMODE | I2C_OAR1_ADD8_9 | I2C_OAR1_ADD1_7 | I2C_OAR1_ADD0), (hi2c->Init.AddressingMode | hi2c->Init.OwnAddress1));
 8003370:	687b      	ldr	r3, [r7, #4]
 8003372:	681b      	ldr	r3, [r3, #0]
 8003374:	689b      	ldr	r3, [r3, #8]
 8003376:	f423 4303 	bic.w	r3, r3, #33536	@ 0x8300
 800337a:	f023 03ff 	bic.w	r3, r3, #255	@ 0xff
 800337e:	687a      	ldr	r2, [r7, #4]
 8003380:	6911      	ldr	r1, [r2, #16]
 8003382:	687a      	ldr	r2, [r7, #4]
 8003384:	68d2      	ldr	r2, [r2, #12]
 8003386:	4311      	orrs	r1, r2
 8003388:	687a      	ldr	r2, [r7, #4]
 800338a:	6812      	ldr	r2, [r2, #0]
 800338c:	430b      	orrs	r3, r1
 800338e:	6093      	str	r3, [r2, #8]

  /*---------------------------- I2Cx OAR2 Configuration ---------------------*/
  /* Configure I2Cx: Dual mode and Own Address2 */
  MODIFY_REG(hi2c->Instance->OAR2, (I2C_OAR2_ENDUAL | I2C_OAR2_ADD2), (hi2c->Init.DualAddressMode | hi2c->Init.OwnAddress2));
 8003390:	687b      	ldr	r3, [r7, #4]
 8003392:	681b      	ldr	r3, [r3, #0]
 8003394:	68db      	ldr	r3, [r3, #12]
 8003396:	f023 01ff 	bic.w	r1, r3, #255	@ 0xff
 800339a:	687b      	ldr	r3, [r7, #4]
 800339c:	695a      	ldr	r2, [r3, #20]
 800339e:	687b      	ldr	r3, [r7, #4]
 80033a0:	699b      	ldr	r3, [r3, #24]
 80033a2:	431a      	orrs	r2, r3
 80033a4:	687b      	ldr	r3, [r7, #4]
 80033a6:	681b      	ldr	r3, [r3, #0]
 80033a8:	430a      	orrs	r2, r1
 80033aa:	60da      	str	r2, [r3, #12]

  /* Enable the selected I2C peripheral */
  __HAL_I2C_ENABLE(hi2c);
 80033ac:	687b      	ldr	r3, [r7, #4]
 80033ae:	681b      	ldr	r3, [r3, #0]
 80033b0:	681a      	ldr	r2, [r3, #0]
 80033b2:	687b      	ldr	r3, [r7, #4]
 80033b4:	681b      	ldr	r3, [r3, #0]
 80033b6:	f042 0201 	orr.w	r2, r2, #1
 80033ba:	601a      	str	r2, [r3, #0]

  hi2c->ErrorCode = HAL_I2C_ERROR_NONE;
 80033bc:	687b      	ldr	r3, [r7, #4]
 80033be:	2200      	movs	r2, #0
 80033c0:	641a      	str	r2, [r3, #64]	@ 0x40
  hi2c->State = HAL_I2C_STATE_READY;
 80033c2:	687b      	ldr	r3, [r7, #4]
 80033c4:	2220      	movs	r2, #32
 80033c6:	f883 203d 	strb.w	r2, [r3, #61]	@ 0x3d
  hi2c->PreviousState = I2C_STATE_NONE;
 80033ca:	687b      	ldr	r3, [r7, #4]
 80033cc:	2200      	movs	r2, #0
 80033ce:	631a      	str	r2, [r3, #48]	@ 0x30
  hi2c->Mode = HAL_I2C_MODE_NONE;
 80033d0:	687b      	ldr	r3, [r7, #4]
 80033d2:	2200      	movs	r2, #0
 80033d4:	f883 203e 	strb.w	r2, [r3, #62]	@ 0x3e

  return HAL_OK;
 80033d8:	2300      	movs	r3, #0
}
 80033da:	4618      	mov	r0, r3
 80033dc:	3710      	adds	r7, #16
 80033de:	46bd      	mov	sp, r7
 80033e0:	bd80      	pop	{r7, pc}
 80033e2:	bf00      	nop
 80033e4:	000186a0 	.word	0x000186a0
 80033e8:	001e847f 	.word	0x001e847f
 80033ec:	003d08ff 	.word	0x003d08ff
 80033f0:	431bde83 	.word	0x431bde83
 80033f4:	10624dd3 	.word	0x10624dd3

080033f8 <HAL_I2C_Mem_Write>:
  * @param  Size Amount of data to be sent
  * @param  Timeout Timeout duration
  * @retval HAL status
  */
HAL_StatusTypeDef HAL_I2C_Mem_Write(I2C_HandleTypeDef *hi2c, uint16_t DevAddress, uint16_t MemAddress, uint16_t MemAddSize, uint8_t *pData, uint16_t Size, uint32_t Timeout)
{
 80033f8:	b580      	push	{r7, lr}
 80033fa:	b088      	sub	sp, #32
 80033fc:	af02      	add	r7, sp, #8
 80033fe:	60f8      	str	r0, [r7, #12]
 8003400:	4608      	mov	r0, r1
 8003402:	4611      	mov	r1, r2
 8003404:	461a      	mov	r2, r3
 8003406:	4603      	mov	r3, r0
 8003408:	817b      	strh	r3, [r7, #10]
 800340a:	460b      	mov	r3, r1
 800340c:	813b      	strh	r3, [r7, #8]
 800340e:	4613      	mov	r3, r2
 8003410:	80fb      	strh	r3, [r7, #6]
  /* Init tickstart for timeout management*/
  uint32_t tickstart = HAL_GetTick();
 8003412:	f7fe fef5 	bl	8002200 <HAL_GetTick>
 8003416:	6178      	str	r0, [r7, #20]

  /* Check the parameters */
  assert_param(IS_I2C_MEMADD_SIZE(MemAddSize));

  if (hi2c->State == HAL_I2C_STATE_READY)
 8003418:	68fb      	ldr	r3, [r7, #12]
 800341a:	f893 303d 	ldrb.w	r3, [r3, #61]	@ 0x3d
 800341e:	b2db      	uxtb	r3, r3
 8003420:	2b20      	cmp	r3, #32
 8003422:	f040 80d9 	bne.w	80035d8 <HAL_I2C_Mem_Write+0x1e0>
  {
    /* Wait until BUSY flag is reset */
    if (I2C_WaitOnFlagUntilTimeout(hi2c, I2C_FLAG_BUSY, SET, I2C_TIMEOUT_BUSY_FLAG, tickstart) != HAL_OK)
 8003426:	697b      	ldr	r3, [r7, #20]
 8003428:	9300      	str	r3, [sp, #0]
 800342a:	2319      	movs	r3, #25
 800342c:	2201      	movs	r2, #1
 800342e:	496d      	ldr	r1, [pc, #436]	@ (80035e4 <HAL_I2C_Mem_Write+0x1ec>)
 8003430:	68f8      	ldr	r0, [r7, #12]
 8003432:	f000 fccd 	bl	8003dd0 <I2C_WaitOnFlagUntilTimeout>
 8003436:	4603      	mov	r3, r0
 8003438:	2b00      	cmp	r3, #0
 800343a:	d001      	beq.n	8003440 <HAL_I2C_Mem_Write+0x48>
    {
      return HAL_BUSY;
 800343c:	2302      	movs	r3, #2
 800343e:	e0cc      	b.n	80035da <HAL_I2C_Mem_Write+0x1e2>
    }

    /* Process Locked */
    __HAL_LOCK(hi2c);
 8003440:	68fb      	ldr	r3, [r7, #12]
 8003442:	f893 303c 	ldrb.w	r3, [r3, #60]	@ 0x3c
 8003446:	2b01      	cmp	r3, #1
 8003448:	d101      	bne.n	800344e <HAL_I2C_Mem_Write+0x56>
 800344a:	2302      	movs	r3, #2
 800344c:	e0c5      	b.n	80035da <HAL_I2C_Mem_Write+0x1e2>
 800344e:	68fb      	ldr	r3, [r7, #12]
 8003450:	2201      	movs	r2, #1
 8003452:	f883 203c 	strb.w	r2, [r3, #60]	@ 0x3c

    /* Check if the I2C is already enabled */
    if ((hi2c->Instance->CR1 & I2C_CR1_PE) != I2C_CR1_PE)
 8003456:	68fb      	ldr	r3, [r7, #12]
 8003458:	681b      	ldr	r3, [r3, #0]
 800345a:	681b      	ldr	r3, [r3, #0]
 800345c:	f003 0301 	and.w	r3, r3, #1
 8003460:	2b01      	cmp	r3, #1
 8003462:	d007      	beq.n	8003474 <HAL_I2C_Mem_Write+0x7c>
    {
      /* Enable I2C peripheral */
      __HAL_I2C_ENABLE(hi2c);
 8003464:	68fb      	ldr	r3, [r7, #12]
 8003466:	681b      	ldr	r3, [r3, #0]
 8003468:	681a      	ldr	r2, [r3, #0]
 800346a:	68fb      	ldr	r3, [r7, #12]
 800346c:	681b      	ldr	r3, [r3, #0]
 800346e:	f042 0201 	orr.w	r2, r2, #1
 8003472:	601a      	str	r2, [r3, #0]
    }

    /* Disable Pos */
    CLEAR_BIT(hi2c->Instance->CR1, I2C_CR1_POS);
 8003474:	68fb      	ldr	r3, [r7, #12]
 8003476:	681b      	ldr	r3, [r3, #0]
 8003478:	681a      	ldr	r2, [r3, #0]
 800347a:	68fb      	ldr	r3, [r7, #12]
 800347c:	681b      	ldr	r3, [r3, #0]
 800347e:	f422 6200 	bic.w	r2, r2, #2048	@ 0x800
 8003482:	601a      	str	r2, [r3, #0]

    hi2c->State     = HAL_I2C_STATE_BUSY_TX;
 8003484:	68fb      	ldr	r3, [r7, #12]
 8003486:	2221      	movs	r2, #33	@ 0x21
 8003488:	f883 203d 	strb.w	r2, [r3, #61]	@ 0x3d
    hi2c->Mode      = HAL_I2C_MODE_MEM;
 800348c:	68fb      	ldr	r3, [r7, #12]
 800348e:	2240      	movs	r2, #64	@ 0x40
 8003490:	f883 203e 	strb.w	r2, [r3, #62]	@ 0x3e
    hi2c->ErrorCode = HAL_I2C_ERROR_NONE;
 8003494:	68fb      	ldr	r3, [r7, #12]
 8003496:	2200      	movs	r2, #0
 8003498:	641a      	str	r2, [r3, #64]	@ 0x40

    /* Prepare transfer parameters */
    hi2c->pBuffPtr    = pData;
 800349a:	68fb      	ldr	r3, [r7, #12]
 800349c:	6a3a      	ldr	r2, [r7, #32]
 800349e:	625a      	str	r2, [r3, #36]	@ 0x24
    hi2c->XferCount   = Size;
 80034a0:	68fb      	ldr	r3, [r7, #12]
 80034a2:	8cba      	ldrh	r2, [r7, #36]	@ 0x24
 80034a4:	855a      	strh	r2, [r3, #42]	@ 0x2a
    hi2c->XferSize    = hi2c->XferCount;
 80034a6:	68fb      	ldr	r3, [r7, #12]
 80034a8:	8d5b      	ldrh	r3, [r3, #42]	@ 0x2a
 80034aa:	b29a      	uxth	r2, r3
 80034ac:	68fb      	ldr	r3, [r7, #12]
 80034ae:	851a      	strh	r2, [r3, #40]	@ 0x28
    hi2c->XferOptions = I2C_NO_OPTION_FRAME;
 80034b0:	68fb      	ldr	r3, [r7, #12]
 80034b2:	4a4d      	ldr	r2, [pc, #308]	@ (80035e8 <HAL_I2C_Mem_Write+0x1f0>)
 80034b4:	62da      	str	r2, [r3, #44]	@ 0x2c

    /* Send Slave Address and Memory Address */
    if (I2C_RequestMemoryWrite(hi2c, DevAddress, MemAddress, MemAddSize, Timeout, tickstart) != HAL_OK)
 80034b6:	88f8      	ldrh	r0, [r7, #6]
 80034b8:	893a      	ldrh	r2, [r7, #8]
 80034ba:	8979      	ldrh	r1, [r7, #10]
 80034bc:	697b      	ldr	r3, [r7, #20]
 80034be:	9301      	str	r3, [sp, #4]
 80034c0:	6abb      	ldr	r3, [r7, #40]	@ 0x28
 80034c2:	9300      	str	r3, [sp, #0]
 80034c4:	4603      	mov	r3, r0
 80034c6:	68f8      	ldr	r0, [r7, #12]
 80034c8:	f000 fb04 	bl	8003ad4 <I2C_RequestMemoryWrite>
 80034cc:	4603      	mov	r3, r0
 80034ce:	2b00      	cmp	r3, #0
 80034d0:	d052      	beq.n	8003578 <HAL_I2C_Mem_Write+0x180>
    {
      return HAL_ERROR;
 80034d2:	2301      	movs	r3, #1
 80034d4:	e081      	b.n	80035da <HAL_I2C_Mem_Write+0x1e2>
    }

    while (hi2c->XferSize > 0U)
    {
      /* Wait until TXE flag is set */
      if (I2C_WaitOnTXEFlagUntilTimeout(hi2c, Timeout, tickstart) != HAL_OK)
 80034d6:	697a      	ldr	r2, [r7, #20]
 80034d8:	6ab9      	ldr	r1, [r7, #40]	@ 0x28
 80034da:	68f8      	ldr	r0, [r7, #12]
 80034dc:	f000 fd92 	bl	8004004 <I2C_WaitOnTXEFlagUntilTimeout>
 80034e0:	4603      	mov	r3, r0
 80034e2:	2b00      	cmp	r3, #0
 80034e4:	d00d      	beq.n	8003502 <HAL_I2C_Mem_Write+0x10a>
      {
        if (hi2c->ErrorCode == HAL_I2C_ERROR_AF)
 80034e6:	68fb      	ldr	r3, [r7, #12]
 80034e8:	6c1b      	ldr	r3, [r3, #64]	@ 0x40
 80034ea:	2b04      	cmp	r3, #4
 80034ec:	d107      	bne.n	80034fe <HAL_I2C_Mem_Write+0x106>
        {
          /* Generate Stop */
          SET_BIT(hi2c->Instance->CR1, I2C_CR1_STOP);
 80034ee:	68fb      	ldr	r3, [r7, #12]
 80034f0:	681b      	ldr	r3, [r3, #0]
 80034f2:	681a      	ldr	r2, [r3, #0]
 80034f4:	68fb      	ldr	r3, [r7, #12]
 80034f6:	681b      	ldr	r3, [r3, #0]
 80034f8:	f442 7200 	orr.w	r2, r2, #512	@ 0x200
 80034fc:	601a      	str	r2, [r3, #0]
        }
        return HAL_ERROR;
 80034fe:	2301      	movs	r3, #1
 8003500:	e06b      	b.n	80035da <HAL_I2C_Mem_Write+0x1e2>
      }

      /* Write data to DR */
      hi2c->Instance->DR = *hi2c->pBuffPtr;
 8003502:	68fb      	ldr	r3, [r7, #12]
 8003504:	6a5b      	ldr	r3, [r3, #36]	@ 0x24
 8003506:	781a      	ldrb	r2, [r3, #0]
 8003508:	68fb      	ldr	r3, [r7, #12]
 800350a:	681b      	ldr	r3, [r3, #0]
 800350c:	611a      	str	r2, [r3, #16]

      /* Increment Buffer pointer */
      hi2c->pBuffPtr++;
 800350e:	68fb      	ldr	r3, [r7, #12]
 8003510:	6a5b      	ldr	r3, [r3, #36]	@ 0x24
 8003512:	1c5a      	adds	r2, r3, #1
 8003514:	68fb      	ldr	r3, [r7, #12]
 8003516:	625a      	str	r2, [r3, #36]	@ 0x24

      /* Update counter */
      hi2c->XferSize--;
 8003518:	68fb      	ldr	r3, [r7, #12]
 800351a:	8d1b      	ldrh	r3, [r3, #40]	@ 0x28
 800351c:	3b01      	subs	r3, #1
 800351e:	b29a      	uxth	r2, r3
 8003520:	68fb      	ldr	r3, [r7, #12]
 8003522:	851a      	strh	r2, [r3, #40]	@ 0x28
      hi2c->XferCount--;
 8003524:	68fb      	ldr	r3, [r7, #12]
 8003526:	8d5b      	ldrh	r3, [r3, #42]	@ 0x2a
 8003528:	b29b      	uxth	r3, r3
 800352a:	3b01      	subs	r3, #1
 800352c:	b29a      	uxth	r2, r3
 800352e:	68fb      	ldr	r3, [r7, #12]
 8003530:	855a      	strh	r2, [r3, #42]	@ 0x2a

      if ((__HAL_I2C_GET_FLAG(hi2c, I2C_FLAG_BTF) == SET) && (hi2c->XferSize != 0U))
 8003532:	68fb      	ldr	r3, [r7, #12]
 8003534:	681b      	ldr	r3, [r3, #0]
 8003536:	695b      	ldr	r3, [r3, #20]
 8003538:	f003 0304 	and.w	r3, r3, #4
 800353c:	2b04      	cmp	r3, #4
 800353e:	d11b      	bne.n	8003578 <HAL_I2C_Mem_Write+0x180>
 8003540:	68fb      	ldr	r3, [r7, #12]
 8003542:	8d1b      	ldrh	r3, [r3, #40]	@ 0x28
 8003544:	2b00      	cmp	r3, #0
 8003546:	d017      	beq.n	8003578 <HAL_I2C_Mem_Write+0x180>
      {
        /* Write data to DR */
        hi2c->Instance->DR = *hi2c->pBuffPtr;
 8003548:	68fb      	ldr	r3, [r7, #12]
 800354a:	6a5b      	ldr	r3, [r3, #36]	@ 0x24
 800354c:	781a      	ldrb	r2, [r3, #0]
 800354e:	68fb      	ldr	r3, [r7, #12]
 8003550:	681b      	ldr	r3, [r3, #0]
 8003552:	611a      	str	r2, [r3, #16]

        /* Increment Buffer pointer */
        hi2c->pBuffPtr++;
 8003554:	68fb      	ldr	r3, [r7, #12]
 8003556:	6a5b      	ldr	r3, [r3, #36]	@ 0x24
 8003558:	1c5a      	adds	r2, r3, #1
 800355a:	68fb      	ldr	r3, [r7, #12]
 800355c:	625a      	str	r2, [r3, #36]	@ 0x24

        /* Update counter */
        hi2c->XferSize--;
 800355e:	68fb      	ldr	r3, [r7, #12]
 8003560:	8d1b      	ldrh	r3, [r3, #40]	@ 0x28
 8003562:	3b01      	subs	r3, #1
 8003564:	b29a      	uxth	r2, r3
 8003566:	68fb      	ldr	r3, [r7, #12]
 8003568:	851a      	strh	r2, [r3, #40]	@ 0x28
        hi2c->XferCount--;
 800356a:	68fb      	ldr	r3, [r7, #12]
 800356c:	8d5b      	ldrh	r3, [r3, #42]	@ 0x2a
 800356e:	b29b      	uxth	r3, r3
 8003570:	3b01      	subs	r3, #1
 8003572:	b29a      	uxth	r2, r3
 8003574:	68fb      	ldr	r3, [r7, #12]
 8003576:	855a      	strh	r2, [r3, #42]	@ 0x2a
    while (hi2c->XferSize > 0U)
 8003578:	68fb      	ldr	r3, [r7, #12]
 800357a:	8d1b      	ldrh	r3, [r3, #40]	@ 0x28
 800357c:	2b00      	cmp	r3, #0
 800357e:	d1aa      	bne.n	80034d6 <HAL_I2C_Mem_Write+0xde>
      }
    }

    /* Wait until BTF flag is set */
    if (I2C_WaitOnBTFFlagUntilTimeout(hi2c, Timeout, tickstart) != HAL_OK)
 8003580:	697a      	ldr	r2, [r7, #20]
 8003582:	6ab9      	ldr	r1, [r7, #40]	@ 0x28
 8003584:	68f8      	ldr	r0, [r7, #12]
 8003586:	f000 fd85 	bl	8004094 <I2C_WaitOnBTFFlagUntilTimeout>
 800358a:	4603      	mov	r3, r0
 800358c:	2b00      	cmp	r3, #0
 800358e:	d00d      	beq.n	80035ac <HAL_I2C_Mem_Write+0x1b4>
    {
      if (hi2c->ErrorCode == HAL_I2C_ERROR_AF)
 8003590:	68fb      	ldr	r3, [r7, #12]
 8003592:	6c1b      	ldr	r3, [r3, #64]	@ 0x40
 8003594:	2b04      	cmp	r3, #4
 8003596:	d107      	bne.n	80035a8 <HAL_I2C_Mem_Write+0x1b0>
      {
        /* Generate Stop */
        SET_BIT(hi2c->Instance->CR1, I2C_CR1_STOP);
 8003598:	68fb      	ldr	r3, [r7, #12]
 800359a:	681b      	ldr	r3, [r3, #0]
 800359c:	681a      	ldr	r2, [r3, #0]
 800359e:	68fb      	ldr	r3, [r7, #12]
 80035a0:	681b      	ldr	r3, [r3, #0]
 80035a2:	f442 7200 	orr.w	r2, r2, #512	@ 0x200
 80035a6:	601a      	str	r2, [r3, #0]
      }
      return HAL_ERROR;
 80035a8:	2301      	movs	r3, #1
 80035aa:	e016      	b.n	80035da <HAL_I2C_Mem_Write+0x1e2>
    }

    /* Generate Stop */
    SET_BIT(hi2c->Instance->CR1, I2C_CR1_STOP);
 80035ac:	68fb      	ldr	r3, [r7, #12]
 80035ae:	681b      	ldr	r3, [r3, #0]
 80035b0:	681a      	ldr	r2, [r3, #0]
 80035b2:	68fb      	ldr	r3, [r7, #12]
 80035b4:	681b      	ldr	r3, [r3, #0]
 80035b6:	f442 7200 	orr.w	r2, r2, #512	@ 0x200
 80035ba:	601a      	str	r2, [r3, #0]

    hi2c->State = HAL_I2C_STATE_READY;
 80035bc:	68fb      	ldr	r3, [r7, #12]
 80035be:	2220      	movs	r2, #32
 80035c0:	f883 203d 	strb.w	r2, [r3, #61]	@ 0x3d
    hi2c->Mode = HAL_I2C_MODE_NONE;
 80035c4:	68fb      	ldr	r3, [r7, #12]
 80035c6:	2200      	movs	r2, #0
 80035c8:	f883 203e 	strb.w	r2, [r3, #62]	@ 0x3e

    /* Process Unlocked */
    __HAL_UNLOCK(hi2c);
 80035cc:	68fb      	ldr	r3, [r7, #12]
 80035ce:	2200      	movs	r2, #0
 80035d0:	f883 203c 	strb.w	r2, [r3, #60]	@ 0x3c

    return HAL_OK;
 80035d4:	2300      	movs	r3, #0
 80035d6:	e000      	b.n	80035da <HAL_I2C_Mem_Write+0x1e2>
  }
  else
  {
    return HAL_BUSY;
 80035d8:	2302      	movs	r3, #2
  }
}
 80035da:	4618      	mov	r0, r3
 80035dc:	3718      	adds	r7, #24
 80035de:	46bd      	mov	sp, r7
 80035e0:	bd80      	pop	{r7, pc}
 80035e2:	bf00      	nop
 80035e4:	00100002 	.word	0x00100002
 80035e8:	ffff0000 	.word	0xffff0000

080035ec <HAL_I2C_Mem_Read>:
  * @param  Size Amount of data to be sent
  * @param  Timeout Timeout duration
  * @retval HAL status
  */
HAL_StatusTypeDef HAL_I2C_Mem_Read(I2C_HandleTypeDef *hi2c, uint16_t DevAddress, uint16_t MemAddress, uint16_t MemAddSize, uint8_t *pData, uint16_t Size, uint32_t Timeout)
{
 80035ec:	b580      	push	{r7, lr}
 80035ee:	b08c      	sub	sp, #48	@ 0x30
 80035f0:	af02      	add	r7, sp, #8
 80035f2:	60f8      	str	r0, [r7, #12]
 80035f4:	4608      	mov	r0, r1
 80035f6:	4611      	mov	r1, r2
 80035f8:	461a      	mov	r2, r3
 80035fa:	4603      	mov	r3, r0
 80035fc:	817b      	strh	r3, [r7, #10]
 80035fe:	460b      	mov	r3, r1
 8003600:	813b      	strh	r3, [r7, #8]
 8003602:	4613      	mov	r3, r2
 8003604:	80fb      	strh	r3, [r7, #6]
  __IO uint32_t count = 0U;
 8003606:	2300      	movs	r3, #0
 8003608:	623b      	str	r3, [r7, #32]

  /* Init tickstart for timeout management*/
  uint32_t tickstart = HAL_GetTick();
 800360a:	f7fe fdf9 	bl	8002200 <HAL_GetTick>
 800360e:	6278      	str	r0, [r7, #36]	@ 0x24

  /* Check the parameters */
  assert_param(IS_I2C_MEMADD_SIZE(MemAddSize));

  if (hi2c->State == HAL_I2C_STATE_READY)
 8003610:	68fb      	ldr	r3, [r7, #12]
 8003612:	f893 303d 	ldrb.w	r3, [r3, #61]	@ 0x3d
 8003616:	b2db      	uxtb	r3, r3
 8003618:	2b20      	cmp	r3, #32
 800361a:	f040 8250 	bne.w	8003abe <HAL_I2C_Mem_Read+0x4d2>
  {
    /* Wait until BUSY flag is reset */
    if (I2C_WaitOnFlagUntilTimeout(hi2c, I2C_FLAG_BUSY, SET, I2C_TIMEOUT_BUSY_FLAG, tickstart) != HAL_OK)
 800361e:	6a7b      	ldr	r3, [r7, #36]	@ 0x24
 8003620:	9300      	str	r3, [sp, #0]
 8003622:	2319      	movs	r3, #25
 8003624:	2201      	movs	r2, #1
 8003626:	4982      	ldr	r1, [pc, #520]	@ (8003830 <HAL_I2C_Mem_Read+0x244>)
 8003628:	68f8      	ldr	r0, [r7, #12]
 800362a:	f000 fbd1 	bl	8003dd0 <I2C_WaitOnFlagUntilTimeout>
 800362e:	4603      	mov	r3, r0
 8003630:	2b00      	cmp	r3, #0
 8003632:	d001      	beq.n	8003638 <HAL_I2C_Mem_Read+0x4c>
    {
      return HAL_BUSY;
 8003634:	2302      	movs	r3, #2
 8003636:	e243      	b.n	8003ac0 <HAL_I2C_Mem_Read+0x4d4>
    }

    /* Process Locked */
    __HAL_LOCK(hi2c);
 8003638:	68fb      	ldr	r3, [r7, #12]
 800363a:	f893 303c 	ldrb.w	r3, [r3, #60]	@ 0x3c
 800363e:	2b01      	cmp	r3, #1
 8003640:	d101      	bne.n	8003646 <HAL_I2C_Mem_Read+0x5a>
 8003642:	2302      	movs	r3, #2
 8003644:	e23c      	b.n	8003ac0 <HAL_I2C_Mem_Read+0x4d4>
 8003646:	68fb      	ldr	r3, [r7, #12]
 8003648:	2201      	movs	r2, #1
 800364a:	f883 203c 	strb.w	r2, [r3, #60]	@ 0x3c

    /* Check if the I2C is already enabled */
    if ((hi2c->Instance->CR1 & I2C_CR1_PE) != I2C_CR1_PE)
 800364e:	68fb      	ldr	r3, [r7, #12]
 8003650:	681b      	ldr	r3, [r3, #0]
 8003652:	681b      	ldr	r3, [r3, #0]
 8003654:	f003 0301 	and.w	r3, r3, #1
 8003658:	2b01      	cmp	r3, #1
 800365a:	d007      	beq.n	800366c <HAL_I2C_Mem_Read+0x80>
    {
      /* Enable I2C peripheral */
      __HAL_I2C_ENABLE(hi2c);
 800365c:	68fb      	ldr	r3, [r7, #12]
 800365e:	681b      	ldr	r3, [r3, #0]
 8003660:	681a      	ldr	r2, [r3, #0]
 8003662:	68fb      	ldr	r3, [r7, #12]
 8003664:	681b      	ldr	r3, [r3, #0]
 8003666:	f042 0201 	orr.w	r2, r2, #1
 800366a:	601a      	str	r2, [r3, #0]
    }

    /* Disable Pos */
    CLEAR_BIT(hi2c->Instance->CR1, I2C_CR1_POS);
 800366c:	68fb      	ldr	r3, [r7, #12]
 800366e:	681b      	ldr	r3, [r3, #0]
 8003670:	681a      	ldr	r2, [r3, #0]
 8003672:	68fb      	ldr	r3, [r7, #12]
 8003674:	681b      	ldr	r3, [r3, #0]
 8003676:	f422 6200 	bic.w	r2, r2, #2048	@ 0x800
 800367a:	601a      	str	r2, [r3, #0]

    hi2c->State     = HAL_I2C_STATE_BUSY_RX;
 800367c:	68fb      	ldr	r3, [r7, #12]
 800367e:	2222      	movs	r2, #34	@ 0x22
 8003680:	f883 203d 	strb.w	r2, [r3, #61]	@ 0x3d
    hi2c->Mode      = HAL_I2C_MODE_MEM;
 8003684:	68fb      	ldr	r3, [r7, #12]
 8003686:	2240      	movs	r2, #64	@ 0x40
 8003688:	f883 203e 	strb.w	r2, [r3, #62]	@ 0x3e
    hi2c->ErrorCode = HAL_I2C_ERROR_NONE;
 800368c:	68fb      	ldr	r3, [r7, #12]
 800368e:	2200      	movs	r2, #0
 8003690:	641a      	str	r2, [r3, #64]	@ 0x40

    /* Prepare transfer parameters */
    hi2c->pBuffPtr    = pData;
 8003692:	68fb      	ldr	r3, [r7, #12]
 8003694:	6b3a      	ldr	r2, [r7, #48]	@ 0x30
 8003696:	625a      	str	r2, [r3, #36]	@ 0x24
    hi2c->XferCount   = Size;
 8003698:	68fb      	ldr	r3, [r7, #12]
 800369a:	8eba      	ldrh	r2, [r7, #52]	@ 0x34
 800369c:	855a      	strh	r2, [r3, #42]	@ 0x2a
    hi2c->XferSize    = hi2c->XferCount;
 800369e:	68fb      	ldr	r3, [r7, #12]
 80036a0:	8d5b      	ldrh	r3, [r3, #42]	@ 0x2a
 80036a2:	b29a      	uxth	r2, r3
 80036a4:	68fb      	ldr	r3, [r7, #12]
 80036a6:	851a      	strh	r2, [r3, #40]	@ 0x28
    hi2c->XferOptions = I2C_NO_OPTION_FRAME;
 80036a8:	68fb      	ldr	r3, [r7, #12]
 80036aa:	4a62      	ldr	r2, [pc, #392]	@ (8003834 <HAL_I2C_Mem_Read+0x248>)
 80036ac:	62da      	str	r2, [r3, #44]	@ 0x2c

    /* Send Slave Address and Memory Address */
    if (I2C_RequestMemoryRead(hi2c, DevAddress, MemAddress, MemAddSize, Timeout, tickstart) != HAL_OK)
 80036ae:	88f8      	ldrh	r0, [r7, #6]
 80036b0:	893a      	ldrh	r2, [r7, #8]
 80036b2:	8979      	ldrh	r1, [r7, #10]
 80036b4:	6a7b      	ldr	r3, [r7, #36]	@ 0x24
 80036b6:	9301      	str	r3, [sp, #4]
 80036b8:	6bbb      	ldr	r3, [r7, #56]	@ 0x38
 80036ba:	9300      	str	r3, [sp, #0]
 80036bc:	4603      	mov	r3, r0
 80036be:	68f8      	ldr	r0, [r7, #12]
 80036c0:	f000 fa9e 	bl	8003c00 <I2C_RequestMemoryRead>
 80036c4:	4603      	mov	r3, r0
 80036c6:	2b00      	cmp	r3, #0
 80036c8:	d001      	beq.n	80036ce <HAL_I2C_Mem_Read+0xe2>
    {
      return HAL_ERROR;
 80036ca:	2301      	movs	r3, #1
 80036cc:	e1f8      	b.n	8003ac0 <HAL_I2C_Mem_Read+0x4d4>
    }

    if (hi2c->XferSize == 0U)
 80036ce:	68fb      	ldr	r3, [r7, #12]
 80036d0:	8d1b      	ldrh	r3, [r3, #40]	@ 0x28
 80036d2:	2b00      	cmp	r3, #0
 80036d4:	d113      	bne.n	80036fe <HAL_I2C_Mem_Read+0x112>
    {
      /* Clear ADDR flag */
      __HAL_I2C_CLEAR_ADDRFLAG(hi2c);
 80036d6:	2300      	movs	r3, #0
 80036d8:	61fb      	str	r3, [r7, #28]
 80036da:	68fb      	ldr	r3, [r7, #12]
 80036dc:	681b      	ldr	r3, [r3, #0]
 80036de:	695b      	ldr	r3, [r3, #20]
 80036e0:	61fb      	str	r3, [r7, #28]
 80036e2:	68fb      	ldr	r3, [r7, #12]
 80036e4:	681b      	ldr	r3, [r3, #0]
 80036e6:	699b      	ldr	r3, [r3, #24]
 80036e8:	61fb      	str	r3, [r7, #28]
 80036ea:	69fb      	ldr	r3, [r7, #28]

      /* Generate Stop */
      SET_BIT(hi2c->Instance->CR1, I2C_CR1_STOP);
 80036ec:	68fb      	ldr	r3, [r7, #12]
 80036ee:	681b      	ldr	r3, [r3, #0]
 80036f0:	681a      	ldr	r2, [r3, #0]
 80036f2:	68fb      	ldr	r3, [r7, #12]
 80036f4:	681b      	ldr	r3, [r3, #0]
 80036f6:	f442 7200 	orr.w	r2, r2, #512	@ 0x200
 80036fa:	601a      	str	r2, [r3, #0]
 80036fc:	e1cc      	b.n	8003a98 <HAL_I2C_Mem_Read+0x4ac>
    }
    else if (hi2c->XferSize == 1U)
 80036fe:	68fb      	ldr	r3, [r7, #12]
 8003700:	8d1b      	ldrh	r3, [r3, #40]	@ 0x28
 8003702:	2b01      	cmp	r3, #1
 8003704:	d11e      	bne.n	8003744 <HAL_I2C_Mem_Read+0x158>
    {
      /* Disable Acknowledge */
      CLEAR_BIT(hi2c->Instance->CR1, I2C_CR1_ACK);
 8003706:	68fb      	ldr	r3, [r7, #12]
 8003708:	681b      	ldr	r3, [r3, #0]
 800370a:	681a      	ldr	r2, [r3, #0]
 800370c:	68fb      	ldr	r3, [r7, #12]
 800370e:	681b      	ldr	r3, [r3, #0]
 8003710:	f422 6280 	bic.w	r2, r2, #1024	@ 0x400
 8003714:	601a      	str	r2, [r3, #0]
  __ASM volatile ("cpsid i" : : : "memory");
 8003716:	b672      	cpsid	i
}
 8003718:	bf00      	nop
      /* Disable all active IRQs around ADDR clearing and STOP programming because the EV6_3
         software sequence must complete before the current byte end of transfer */
      __disable_irq();

      /* Clear ADDR flag */
      __HAL_I2C_CLEAR_ADDRFLAG(hi2c);
 800371a:	2300      	movs	r3, #0
 800371c:	61bb      	str	r3, [r7, #24]
 800371e:	68fb      	ldr	r3, [r7, #12]
 8003720:	681b      	ldr	r3, [r3, #0]
 8003722:	695b      	ldr	r3, [r3, #20]
 8003724:	61bb      	str	r3, [r7, #24]
 8003726:	68fb      	ldr	r3, [r7, #12]
 8003728:	681b      	ldr	r3, [r3, #0]
 800372a:	699b      	ldr	r3, [r3, #24]
 800372c:	61bb      	str	r3, [r7, #24]
 800372e:	69bb      	ldr	r3, [r7, #24]

      /* Generate Stop */
      SET_BIT(hi2c->Instance->CR1, I2C_CR1_STOP);
 8003730:	68fb      	ldr	r3, [r7, #12]
 8003732:	681b      	ldr	r3, [r3, #0]
 8003734:	681a      	ldr	r2, [r3, #0]
 8003736:	68fb      	ldr	r3, [r7, #12]
 8003738:	681b      	ldr	r3, [r3, #0]
 800373a:	f442 7200 	orr.w	r2, r2, #512	@ 0x200
 800373e:	601a      	str	r2, [r3, #0]
  __ASM volatile ("cpsie i" : : : "memory");
 8003740:	b662      	cpsie	i
}
 8003742:	e035      	b.n	80037b0 <HAL_I2C_Mem_Read+0x1c4>

      /* Re-enable IRQs */
      __enable_irq();
    }
    else if (hi2c->XferSize == 2U)
 8003744:	68fb      	ldr	r3, [r7, #12]
 8003746:	8d1b      	ldrh	r3, [r3, #40]	@ 0x28
 8003748:	2b02      	cmp	r3, #2
 800374a:	d11e      	bne.n	800378a <HAL_I2C_Mem_Read+0x19e>
    {
      /* Enable Pos */
      SET_BIT(hi2c->Instance->CR1, I2C_CR1_POS);
 800374c:	68fb      	ldr	r3, [r7, #12]
 800374e:	681b      	ldr	r3, [r3, #0]
 8003750:	681a      	ldr	r2, [r3, #0]
 8003752:	68fb      	ldr	r3, [r7, #12]
 8003754:	681b      	ldr	r3, [r3, #0]
 8003756:	f442 6200 	orr.w	r2, r2, #2048	@ 0x800
 800375a:	601a      	str	r2, [r3, #0]
  __ASM volatile ("cpsid i" : : : "memory");
 800375c:	b672      	cpsid	i
}
 800375e:	bf00      	nop
      /* Disable all active IRQs around ADDR clearing and STOP programming because the EV6_3
         software sequence must complete before the current byte end of transfer */
      __disable_irq();

      /* Clear ADDR flag */
      __HAL_I2C_CLEAR_ADDRFLAG(hi2c);
 8003760:	2300      	movs	r3, #0
 8003762:	617b      	str	r3, [r7, #20]
 8003764:	68fb      	ldr	r3, [r7, #12]
 8003766:	681b      	ldr	r3, [r3, #0]
 8003768:	695b      	ldr	r3, [r3, #20]
 800376a:	617b      	str	r3, [r7, #20]
 800376c:	68fb      	ldr	r3, [r7, #12]
 800376e:	681b      	ldr	r3, [r3, #0]
 8003770:	699b      	ldr	r3, [r3, #24]
 8003772:	617b      	str	r3, [r7, #20]
 8003774:	697b      	ldr	r3, [r7, #20]

      /* Disable Acknowledge */
      CLEAR_BIT(hi2c->Instance->CR1, I2C_CR1_ACK);
 8003776:	68fb      	ldr	r3, [r7, #12]
 8003778:	681b      	ldr	r3, [r3, #0]
 800377a:	681a      	ldr	r2, [r3, #0]
 800377c:	68fb      	ldr	r3, [r7, #12]
 800377e:	681b      	ldr	r3, [r3, #0]
 8003780:	f422 6280 	bic.w	r2, r2, #1024	@ 0x400
 8003784:	601a      	str	r2, [r3, #0]
  __ASM volatile ("cpsie i" : : : "memory");
 8003786:	b662      	cpsie	i
}
 8003788:	e012      	b.n	80037b0 <HAL_I2C_Mem_Read+0x1c4>
      __enable_irq();
    }
    else
    {
      /* Enable Acknowledge */
      SET_BIT(hi2c->Instance->CR1, I2C_CR1_ACK);
 800378a:	68fb      	ldr	r3, [r7, #12]
 800378c:	681b      	ldr	r3, [r3, #0]
 800378e:	681a      	ldr	r2, [r3, #0]
 8003790:	68fb      	ldr	r3, [r7, #12]
 8003792:	681b      	ldr	r3, [r3, #0]
 8003794:	f442 6280 	orr.w	r2, r2, #1024	@ 0x400
 8003798:	601a      	str	r2, [r3, #0]
      /* Clear ADDR flag */
      __HAL_I2C_CLEAR_ADDRFLAG(hi2c);
 800379a:	2300      	movs	r3, #0
 800379c:	613b      	str	r3, [r7, #16]
 800379e:	68fb      	ldr	r3, [r7, #12]
 80037a0:	681b      	ldr	r3, [r3, #0]
 80037a2:	695b      	ldr	r3, [r3, #20]
 80037a4:	613b      	str	r3, [r7, #16]
 80037a6:	68fb      	ldr	r3, [r7, #12]
 80037a8:	681b      	ldr	r3, [r3, #0]
 80037aa:	699b      	ldr	r3, [r3, #24]
 80037ac:	613b      	str	r3, [r7, #16]
 80037ae:	693b      	ldr	r3, [r7, #16]
    }

    while (hi2c->XferSize > 0U)
 80037b0:	e172      	b.n	8003a98 <HAL_I2C_Mem_Read+0x4ac>
    {
      if (hi2c->XferSize <= 3U)
 80037b2:	68fb      	ldr	r3, [r7, #12]
 80037b4:	8d1b      	ldrh	r3, [r3, #40]	@ 0x28
 80037b6:	2b03      	cmp	r3, #3
 80037b8:	f200 811f 	bhi.w	80039fa <HAL_I2C_Mem_Read+0x40e>
      {
        /* One byte */
        if (hi2c->XferSize == 1U)
 80037bc:	68fb      	ldr	r3, [r7, #12]
 80037be:	8d1b      	ldrh	r3, [r3, #40]	@ 0x28
 80037c0:	2b01      	cmp	r3, #1
 80037c2:	d123      	bne.n	800380c <HAL_I2C_Mem_Read+0x220>
        {
          /* Wait until RXNE flag is set */
          if (I2C_WaitOnRXNEFlagUntilTimeout(hi2c, Timeout, tickstart) != HAL_OK)
 80037c4:	6a7a      	ldr	r2, [r7, #36]	@ 0x24
 80037c6:	6bb9      	ldr	r1, [r7, #56]	@ 0x38
 80037c8:	68f8      	ldr	r0, [r7, #12]
 80037ca:	f000 fcab 	bl	8004124 <I2C_WaitOnRXNEFlagUntilTimeout>
 80037ce:	4603      	mov	r3, r0
 80037d0:	2b00      	cmp	r3, #0
 80037d2:	d001      	beq.n	80037d8 <HAL_I2C_Mem_Read+0x1ec>
          {
            return HAL_ERROR;
 80037d4:	2301      	movs	r3, #1
 80037d6:	e173      	b.n	8003ac0 <HAL_I2C_Mem_Read+0x4d4>
          }

          /* Read data from DR */
          *hi2c->pBuffPtr = (uint8_t)hi2c->Instance->DR;
 80037d8:	68fb      	ldr	r3, [r7, #12]
 80037da:	681b      	ldr	r3, [r3, #0]
 80037dc:	691a      	ldr	r2, [r3, #16]
 80037de:	68fb      	ldr	r3, [r7, #12]
 80037e0:	6a5b      	ldr	r3, [r3, #36]	@ 0x24
 80037e2:	b2d2      	uxtb	r2, r2
 80037e4:	701a      	strb	r2, [r3, #0]

          /* Increment Buffer pointer */
          hi2c->pBuffPtr++;
 80037e6:	68fb      	ldr	r3, [r7, #12]
 80037e8:	6a5b      	ldr	r3, [r3, #36]	@ 0x24
 80037ea:	1c5a      	adds	r2, r3, #1
 80037ec:	68fb      	ldr	r3, [r7, #12]
 80037ee:	625a      	str	r2, [r3, #36]	@ 0x24

          /* Update counter */
          hi2c->XferSize--;
 80037f0:	68fb      	ldr	r3, [r7, #12]
 80037f2:	8d1b      	ldrh	r3, [r3, #40]	@ 0x28
 80037f4:	3b01      	subs	r3, #1
 80037f6:	b29a      	uxth	r2, r3
 80037f8:	68fb      	ldr	r3, [r7, #12]
 80037fa:	851a      	strh	r2, [r3, #40]	@ 0x28
          hi2c->XferCount--;
 80037fc:	68fb      	ldr	r3, [r7, #12]
 80037fe:	8d5b      	ldrh	r3, [r3, #42]	@ 0x2a
 8003800:	b29b      	uxth	r3, r3
 8003802:	3b01      	subs	r3, #1
 8003804:	b29a      	uxth	r2, r3
 8003806:	68fb      	ldr	r3, [r7, #12]
 8003808:	855a      	strh	r2, [r3, #42]	@ 0x2a
 800380a:	e145      	b.n	8003a98 <HAL_I2C_Mem_Read+0x4ac>
        }
        /* Two bytes */
        else if (hi2c->XferSize == 2U)
 800380c:	68fb      	ldr	r3, [r7, #12]
 800380e:	8d1b      	ldrh	r3, [r3, #40]	@ 0x28
 8003810:	2b02      	cmp	r3, #2
 8003812:	d152      	bne.n	80038ba <HAL_I2C_Mem_Read+0x2ce>
        {
          /* Wait until BTF flag is set */
          if (I2C_WaitOnFlagUntilTimeout(hi2c, I2C_FLAG_BTF, RESET, Timeout, tickstart) != HAL_OK)
 8003814:	6a7b      	ldr	r3, [r7, #36]	@ 0x24
 8003816:	9300      	str	r3, [sp, #0]
 8003818:	6bbb      	ldr	r3, [r7, #56]	@ 0x38
 800381a:	2200      	movs	r2, #0
 800381c:	4906      	ldr	r1, [pc, #24]	@ (8003838 <HAL_I2C_Mem_Read+0x24c>)
 800381e:	68f8      	ldr	r0, [r7, #12]
 8003820:	f000 fad6 	bl	8003dd0 <I2C_WaitOnFlagUntilTimeout>
 8003824:	4603      	mov	r3, r0
 8003826:	2b00      	cmp	r3, #0
 8003828:	d008      	beq.n	800383c <HAL_I2C_Mem_Read+0x250>
          {
            return HAL_ERROR;
 800382a:	2301      	movs	r3, #1
 800382c:	e148      	b.n	8003ac0 <HAL_I2C_Mem_Read+0x4d4>
 800382e:	bf00      	nop
 8003830:	00100002 	.word	0x00100002
 8003834:	ffff0000 	.word	0xffff0000
 8003838:	00010004 	.word	0x00010004
  __ASM volatile ("cpsid i" : : : "memory");
 800383c:	b672      	cpsid	i
}
 800383e:	bf00      	nop
          /* Disable all active IRQs around ADDR clearing and STOP programming because the EV6_3
             software sequence must complete before the current byte end of transfer */
          __disable_irq();

          /* Generate Stop */
          SET_BIT(hi2c->Instance->CR1, I2C_CR1_STOP);
 8003840:	68fb      	ldr	r3, [r7, #12]
 8003842:	681b      	ldr	r3, [r3, #0]
 8003844:	681a      	ldr	r2, [r3, #0]
 8003846:	68fb      	ldr	r3, [r7, #12]
 8003848:	681b      	ldr	r3, [r3, #0]
 800384a:	f442 7200 	orr.w	r2, r2, #512	@ 0x200
 800384e:	601a      	str	r2, [r3, #0]

          /* Read data from DR */
          *hi2c->pBuffPtr = (uint8_t)hi2c->Instance->DR;
 8003850:	68fb      	ldr	r3, [r7, #12]
 8003852:	681b      	ldr	r3, [r3, #0]
 8003854:	691a      	ldr	r2, [r3, #16]
 8003856:	68fb      	ldr	r3, [r7, #12]
 8003858:	6a5b      	ldr	r3, [r3, #36]	@ 0x24
 800385a:	b2d2      	uxtb	r2, r2
 800385c:	701a      	strb	r2, [r3, #0]

          /* Increment Buffer pointer */
          hi2c->pBuffPtr++;
 800385e:	68fb      	ldr	r3, [r7, #12]
 8003860:	6a5b      	ldr	r3, [r3, #36]	@ 0x24
 8003862:	1c5a      	adds	r2, r3, #1
 8003864:	68fb      	ldr	r3, [r7, #12]
 8003866:	625a      	str	r2, [r3, #36]	@ 0x24

          /* Update counter */
          hi2c->XferSize--;
 8003868:	68fb      	ldr	r3, [r7, #12]
 800386a:	8d1b      	ldrh	r3, [r3, #40]	@ 0x28
 800386c:	3b01      	subs	r3, #1
 800386e:	b29a      	uxth	r2, r3
 8003870:	68fb      	ldr	r3, [r7, #12]
 8003872:	851a      	strh	r2, [r3, #40]	@ 0x28
          hi2c->XferCount--;
 8003874:	68fb      	ldr	r3, [r7, #12]
 8003876:	8d5b      	ldrh	r3, [r3, #42]	@ 0x2a
 8003878:	b29b      	uxth	r3, r3
 800387a:	3b01      	subs	r3, #1
 800387c:	b29a      	uxth	r2, r3
 800387e:	68fb      	ldr	r3, [r7, #12]
 8003880:	855a      	strh	r2, [r3, #42]	@ 0x2a
  __ASM volatile ("cpsie i" : : : "memory");
 8003882:	b662      	cpsie	i
}
 8003884:	bf00      	nop

          /* Re-enable IRQs */
          __enable_irq();

          /* Read data from DR */
          *hi2c->pBuffPtr = (uint8_t)hi2c->Instance->DR;
 8003886:	68fb      	ldr	r3, [r7, #12]
 8003888:	681b      	ldr	r3, [r3, #0]
 800388a:	691a      	ldr	r2, [r3, #16]
 800388c:	68fb      	ldr	r3, [r7, #12]
 800388e:	6a5b      	ldr	r3, [r3, #36]	@ 0x24
 8003890:	b2d2      	uxtb	r2, r2
 8003892:	701a      	strb	r2, [r3, #0]

          /* Increment Buffer pointer */
          hi2c->pBuffPtr++;
 8003894:	68fb      	ldr	r3, [r7, #12]
 8003896:	6a5b      	ldr	r3, [r3, #36]	@ 0x24
 8003898:	1c5a      	adds	r2, r3, #1
 800389a:	68fb      	ldr	r3, [r7, #12]
 800389c:	625a      	str	r2, [r3, #36]	@ 0x24

          /* Update counter */
          hi2c->XferSize--;
 800389e:	68fb      	ldr	r3, [r7, #12]
 80038a0:	8d1b      	ldrh	r3, [r3, #40]	@ 0x28
 80038a2:	3b01      	subs	r3, #1
 80038a4:	b29a      	uxth	r2, r3
 80038a6:	68fb      	ldr	r3, [r7, #12]
 80038a8:	851a      	strh	r2, [r3, #40]	@ 0x28
          hi2c->XferCount--;
 80038aa:	68fb      	ldr	r3, [r7, #12]
 80038ac:	8d5b      	ldrh	r3, [r3, #42]	@ 0x2a
 80038ae:	b29b      	uxth	r3, r3
 80038b0:	3b01      	subs	r3, #1
 80038b2:	b29a      	uxth	r2, r3
 80038b4:	68fb      	ldr	r3, [r7, #12]
 80038b6:	855a      	strh	r2, [r3, #42]	@ 0x2a
 80038b8:	e0ee      	b.n	8003a98 <HAL_I2C_Mem_Read+0x4ac>
        }
        /* 3 Last bytes */
        else
        {
          /* Wait until BTF flag is set */
          if (I2C_WaitOnFlagUntilTimeout(hi2c, I2C_FLAG_BTF, RESET, Timeout, tickstart) != HAL_OK)
 80038ba:	6a7b      	ldr	r3, [r7, #36]	@ 0x24
 80038bc:	9300      	str	r3, [sp, #0]
 80038be:	6bbb      	ldr	r3, [r7, #56]	@ 0x38
 80038c0:	2200      	movs	r2, #0
 80038c2:	4981      	ldr	r1, [pc, #516]	@ (8003ac8 <HAL_I2C_Mem_Read+0x4dc>)
 80038c4:	68f8      	ldr	r0, [r7, #12]
 80038c6:	f000 fa83 	bl	8003dd0 <I2C_WaitOnFlagUntilTimeout>
 80038ca:	4603      	mov	r3, r0
 80038cc:	2b00      	cmp	r3, #0
 80038ce:	d001      	beq.n	80038d4 <HAL_I2C_Mem_Read+0x2e8>
          {
            return HAL_ERROR;
 80038d0:	2301      	movs	r3, #1
 80038d2:	e0f5      	b.n	8003ac0 <HAL_I2C_Mem_Read+0x4d4>
          }

          /* Disable Acknowledge */
          CLEAR_BIT(hi2c->Instance->CR1, I2C_CR1_ACK);
 80038d4:	68fb      	ldr	r3, [r7, #12]
 80038d6:	681b      	ldr	r3, [r3, #0]
 80038d8:	681a      	ldr	r2, [r3, #0]
 80038da:	68fb      	ldr	r3, [r7, #12]
 80038dc:	681b      	ldr	r3, [r3, #0]
 80038de:	f422 6280 	bic.w	r2, r2, #1024	@ 0x400
 80038e2:	601a      	str	r2, [r3, #0]
  __ASM volatile ("cpsid i" : : : "memory");
 80038e4:	b672      	cpsid	i
}
 80038e6:	bf00      	nop
          /* Disable all active IRQs around ADDR clearing and STOP programming because the EV6_3
             software sequence must complete before the current byte end of transfer */
          __disable_irq();

          /* Read data from DR */
          *hi2c->pBuffPtr = (uint8_t)hi2c->Instance->DR;
 80038e8:	68fb      	ldr	r3, [r7, #12]
 80038ea:	681b      	ldr	r3, [r3, #0]
 80038ec:	691a      	ldr	r2, [r3, #16]
 80038ee:	68fb      	ldr	r3, [r7, #12]
 80038f0:	6a5b      	ldr	r3, [r3, #36]	@ 0x24
 80038f2:	b2d2      	uxtb	r2, r2
 80038f4:	701a      	strb	r2, [r3, #0]

          /* Increment Buffer pointer */
          hi2c->pBuffPtr++;
 80038f6:	68fb      	ldr	r3, [r7, #12]
 80038f8:	6a5b      	ldr	r3, [r3, #36]	@ 0x24
 80038fa:	1c5a      	adds	r2, r3, #1
 80038fc:	68fb      	ldr	r3, [r7, #12]
 80038fe:	625a      	str	r2, [r3, #36]	@ 0x24

          /* Update counter */
          hi2c->XferSize--;
 8003900:	68fb      	ldr	r3, [r7, #12]
 8003902:	8d1b      	ldrh	r3, [r3, #40]	@ 0x28
 8003904:	3b01      	subs	r3, #1
 8003906:	b29a      	uxth	r2, r3
 8003908:	68fb      	ldr	r3, [r7, #12]
 800390a:	851a      	strh	r2, [r3, #40]	@ 0x28
          hi2c->XferCount--;
 800390c:	68fb      	ldr	r3, [r7, #12]
 800390e:	8d5b      	ldrh	r3, [r3, #42]	@ 0x2a
 8003910:	b29b      	uxth	r3, r3
 8003912:	3b01      	subs	r3, #1
 8003914:	b29a      	uxth	r2, r3
 8003916:	68fb      	ldr	r3, [r7, #12]
 8003918:	855a      	strh	r2, [r3, #42]	@ 0x2a

          /* Wait until BTF flag is set */
          count = I2C_TIMEOUT_FLAG * (SystemCoreClock / 25U / 1000U);
 800391a:	4b6c      	ldr	r3, [pc, #432]	@ (8003acc <HAL_I2C_Mem_Read+0x4e0>)
 800391c:	681b      	ldr	r3, [r3, #0]
 800391e:	08db      	lsrs	r3, r3, #3
 8003920:	4a6b      	ldr	r2, [pc, #428]	@ (8003ad0 <HAL_I2C_Mem_Read+0x4e4>)
 8003922:	fba2 2303 	umull	r2, r3, r2, r3
 8003926:	0a1a      	lsrs	r2, r3, #8
 8003928:	4613      	mov	r3, r2
 800392a:	009b      	lsls	r3, r3, #2
 800392c:	4413      	add	r3, r2
 800392e:	00da      	lsls	r2, r3, #3
 8003930:	1ad3      	subs	r3, r2, r3
 8003932:	623b      	str	r3, [r7, #32]
          do
          {
            count--;
 8003934:	6a3b      	ldr	r3, [r7, #32]
 8003936:	3b01      	subs	r3, #1
 8003938:	623b      	str	r3, [r7, #32]
            if (count == 0U)
 800393a:	6a3b      	ldr	r3, [r7, #32]
 800393c:	2b00      	cmp	r3, #0
 800393e:	d118      	bne.n	8003972 <HAL_I2C_Mem_Read+0x386>
            {
              hi2c->PreviousState       = I2C_STATE_NONE;
 8003940:	68fb      	ldr	r3, [r7, #12]
 8003942:	2200      	movs	r2, #0
 8003944:	631a      	str	r2, [r3, #48]	@ 0x30
              hi2c->State               = HAL_I2C_STATE_READY;
 8003946:	68fb      	ldr	r3, [r7, #12]
 8003948:	2220      	movs	r2, #32
 800394a:	f883 203d 	strb.w	r2, [r3, #61]	@ 0x3d
              hi2c->Mode                = HAL_I2C_MODE_NONE;
 800394e:	68fb      	ldr	r3, [r7, #12]
 8003950:	2200      	movs	r2, #0
 8003952:	f883 203e 	strb.w	r2, [r3, #62]	@ 0x3e
              hi2c->ErrorCode           |= HAL_I2C_ERROR_TIMEOUT;
 8003956:	68fb      	ldr	r3, [r7, #12]
 8003958:	6c1b      	ldr	r3, [r3, #64]	@ 0x40
 800395a:	f043 0220 	orr.w	r2, r3, #32
 800395e:	68fb      	ldr	r3, [r7, #12]
 8003960:	641a      	str	r2, [r3, #64]	@ 0x40
  __ASM volatile ("cpsie i" : : : "memory");
 8003962:	b662      	cpsie	i
}
 8003964:	bf00      	nop

              /* Re-enable IRQs */
              __enable_irq();

              /* Process Unlocked */
              __HAL_UNLOCK(hi2c);
 8003966:	68fb      	ldr	r3, [r7, #12]
 8003968:	2200      	movs	r2, #0
 800396a:	f883 203c 	strb.w	r2, [r3, #60]	@ 0x3c

              return HAL_ERROR;
 800396e:	2301      	movs	r3, #1
 8003970:	e0a6      	b.n	8003ac0 <HAL_I2C_Mem_Read+0x4d4>
            }
          }
          while (__HAL_I2C_GET_FLAG(hi2c, I2C_FLAG_BTF) == RESET);
 8003972:	68fb      	ldr	r3, [r7, #12]
 8003974:	681b      	ldr	r3, [r3, #0]
 8003976:	695b      	ldr	r3, [r3, #20]
 8003978:	f003 0304 	and.w	r3, r3, #4
 800397c:	2b04      	cmp	r3, #4
 800397e:	d1d9      	bne.n	8003934 <HAL_I2C_Mem_Read+0x348>

          /* Generate Stop */
          SET_BIT(hi2c->Instance->CR1, I2C_CR1_STOP);
 8003980:	68fb      	ldr	r3, [r7, #12]
 8003982:	681b      	ldr	r3, [r3, #0]
 8003984:	681a      	ldr	r2, [r3, #0]
 8003986:	68fb      	ldr	r3, [r7, #12]
 8003988:	681b      	ldr	r3, [r3, #0]
 800398a:	f442 7200 	orr.w	r2, r2, #512	@ 0x200
 800398e:	601a      	str	r2, [r3, #0]

          /* Read data from DR */
          *hi2c->pBuffPtr = (uint8_t)hi2c->Instance->DR;
 8003990:	68fb      	ldr	r3, [r7, #12]
 8003992:	681b      	ldr	r3, [r3, #0]
 8003994:	691a      	ldr	r2, [r3, #16]
 8003996:	68fb      	ldr	r3, [r7, #12]
 8003998:	6a5b      	ldr	r3, [r3, #36]	@ 0x24
 800399a:	b2d2      	uxtb	r2, r2
 800399c:	701a      	strb	r2, [r3, #0]

          /* Increment Buffer pointer */
          hi2c->pBuffPtr++;
 800399e:	68fb      	ldr	r3, [r7, #12]
 80039a0:	6a5b      	ldr	r3, [r3, #36]	@ 0x24
 80039a2:	1c5a      	adds	r2, r3, #1
 80039a4:	68fb      	ldr	r3, [r7, #12]
 80039a6:	625a      	str	r2, [r3, #36]	@ 0x24

          /* Update counter */
          hi2c->XferSize--;
 80039a8:	68fb      	ldr	r3, [r7, #12]
 80039aa:	8d1b      	ldrh	r3, [r3, #40]	@ 0x28
 80039ac:	3b01      	subs	r3, #1
 80039ae:	b29a      	uxth	r2, r3
 80039b0:	68fb      	ldr	r3, [r7, #12]
 80039b2:	851a      	strh	r2, [r3, #40]	@ 0x28
          hi2c->XferCount--;
 80039b4:	68fb      	ldr	r3, [r7, #12]
 80039b6:	8d5b      	ldrh	r3, [r3, #42]	@ 0x2a
 80039b8:	b29b      	uxth	r3, r3
 80039ba:	3b01      	subs	r3, #1
 80039bc:	b29a      	uxth	r2, r3
 80039be:	68fb      	ldr	r3, [r7, #12]
 80039c0:	855a      	strh	r2, [r3, #42]	@ 0x2a
  __ASM volatile ("cpsie i" : : : "memory");
 80039c2:	b662      	cpsie	i
}
 80039c4:	bf00      	nop

          /* Re-enable IRQs */
          __enable_irq();

          /* Read data from DR */
          *hi2c->pBuffPtr = (uint8_t)hi2c->Instance->DR;
 80039c6:	68fb      	ldr	r3, [r7, #12]
 80039c8:	681b      	ldr	r3, [r3, #0]
 80039ca:	691a      	ldr	r2, [r3, #16]
 80039cc:	68fb      	ldr	r3, [r7, #12]
 80039ce:	6a5b      	ldr	r3, [r3, #36]	@ 0x24
 80039d0:	b2d2      	uxtb	r2, r2
 80039d2:	701a      	strb	r2, [r3, #0]

          /* Increment Buffer pointer */
          hi2c->pBuffPtr++;
 80039d4:	68fb      	ldr	r3, [r7, #12]
 80039d6:	6a5b      	ldr	r3, [r3, #36]	@ 0x24
 80039d8:	1c5a      	adds	r2, r3, #1
 80039da:	68fb      	ldr	r3, [r7, #12]
 80039dc:	625a      	str	r2, [r3, #36]	@ 0x24

          /* Update counter */
          hi2c->XferSize--;
 80039de:	68fb      	ldr	r3, [r7, #12]
 80039e0:	8d1b      	ldrh	r3, [r3, #40]	@ 0x28
 80039e2:	3b01      	subs	r3, #1
 80039e4:	b29a      	uxth	r2, r3
 80039e6:	68fb      	ldr	r3, [r7, #12]
 80039e8:	851a      	strh	r2, [r3, #40]	@ 0x28
          hi2c->XferCount--;
 80039ea:	68fb      	ldr	r3, [r7, #12]
 80039ec:	8d5b      	ldrh	r3, [r3, #42]	@ 0x2a
 80039ee:	b29b      	uxth	r3, r3
 80039f0:	3b01      	subs	r3, #1
 80039f2:	b29a      	uxth	r2, r3
 80039f4:	68fb      	ldr	r3, [r7, #12]
 80039f6:	855a      	strh	r2, [r3, #42]	@ 0x2a
 80039f8:	e04e      	b.n	8003a98 <HAL_I2C_Mem_Read+0x4ac>
        }
      }
      else
      {
        /* Wait until RXNE flag is set */
        if (I2C_WaitOnRXNEFlagUntilTimeout(hi2c, Timeout, tickstart) != HAL_OK)
 80039fa:	6a7a      	ldr	r2, [r7, #36]	@ 0x24
 80039fc:	6bb9      	ldr	r1, [r7, #56]	@ 0x38
 80039fe:	68f8      	ldr	r0, [r7, #12]
 8003a00:	f000 fb90 	bl	8004124 <I2C_WaitOnRXNEFlagUntilTimeout>
 8003a04:	4603      	mov	r3, r0
 8003a06:	2b00      	cmp	r3, #0
 8003a08:	d001      	beq.n	8003a0e <HAL_I2C_Mem_Read+0x422>
        {
          return HAL_ERROR;
 8003a0a:	2301      	movs	r3, #1
 8003a0c:	e058      	b.n	8003ac0 <HAL_I2C_Mem_Read+0x4d4>
        }

        /* Read data from DR */
        *hi2c->pBuffPtr = (uint8_t)hi2c->Instance->DR;
 8003a0e:	68fb      	ldr	r3, [r7, #12]
 8003a10:	681b      	ldr	r3, [r3, #0]
 8003a12:	691a      	ldr	r2, [r3, #16]
 8003a14:	68fb      	ldr	r3, [r7, #12]
 8003a16:	6a5b      	ldr	r3, [r3, #36]	@ 0x24
 8003a18:	b2d2      	uxtb	r2, r2
 8003a1a:	701a      	strb	r2, [r3, #0]

        /* Increment Buffer pointer */
        hi2c->pBuffPtr++;
 8003a1c:	68fb      	ldr	r3, [r7, #12]
 8003a1e:	6a5b      	ldr	r3, [r3, #36]	@ 0x24
 8003a20:	1c5a      	adds	r2, r3, #1
 8003a22:	68fb      	ldr	r3, [r7, #12]
 8003a24:	625a      	str	r2, [r3, #36]	@ 0x24

        /* Update counter */
        hi2c->XferSize--;
 8003a26:	68fb      	ldr	r3, [r7, #12]
 8003a28:	8d1b      	ldrh	r3, [r3, #40]	@ 0x28
 8003a2a:	3b01      	subs	r3, #1
 8003a2c:	b29a      	uxth	r2, r3
 8003a2e:	68fb      	ldr	r3, [r7, #12]
 8003a30:	851a      	strh	r2, [r3, #40]	@ 0x28
        hi2c->XferCount--;
 8003a32:	68fb      	ldr	r3, [r7, #12]
 8003a34:	8d5b      	ldrh	r3, [r3, #42]	@ 0x2a
 8003a36:	b29b      	uxth	r3, r3
 8003a38:	3b01      	subs	r3, #1
 8003a3a:	b29a      	uxth	r2, r3
 8003a3c:	68fb      	ldr	r3, [r7, #12]
 8003a3e:	855a      	strh	r2, [r3, #42]	@ 0x2a

        if (__HAL_I2C_GET_FLAG(hi2c, I2C_FLAG_BTF) == SET)
 8003a40:	68fb      	ldr	r3, [r7, #12]
 8003a42:	681b      	ldr	r3, [r3, #0]
 8003a44:	695b      	ldr	r3, [r3, #20]
 8003a46:	f003 0304 	and.w	r3, r3, #4
 8003a4a:	2b04      	cmp	r3, #4
 8003a4c:	d124      	bne.n	8003a98 <HAL_I2C_Mem_Read+0x4ac>
        {
          if (hi2c->XferSize == 3U)
 8003a4e:	68fb      	ldr	r3, [r7, #12]
 8003a50:	8d1b      	ldrh	r3, [r3, #40]	@ 0x28
 8003a52:	2b03      	cmp	r3, #3
 8003a54:	d107      	bne.n	8003a66 <HAL_I2C_Mem_Read+0x47a>
          {
            /* Disable Acknowledge */
            CLEAR_BIT(hi2c->Instance->CR1, I2C_CR1_ACK);
 8003a56:	68fb      	ldr	r3, [r7, #12]
 8003a58:	681b      	ldr	r3, [r3, #0]
 8003a5a:	681a      	ldr	r2, [r3, #0]
 8003a5c:	68fb      	ldr	r3, [r7, #12]
 8003a5e:	681b      	ldr	r3, [r3, #0]
 8003a60:	f422 6280 	bic.w	r2, r2, #1024	@ 0x400
 8003a64:	601a      	str	r2, [r3, #0]
          }
          /* Read data from DR */
          *hi2c->pBuffPtr = (uint8_t)hi2c->Instance->DR;
 8003a66:	68fb      	ldr	r3, [r7, #12]
 8003a68:	681b      	ldr	r3, [r3, #0]
 8003a6a:	691a      	ldr	r2, [r3, #16]
 8003a6c:	68fb      	ldr	r3, [r7, #12]
 8003a6e:	6a5b      	ldr	r3, [r3, #36]	@ 0x24
 8003a70:	b2d2      	uxtb	r2, r2
 8003a72:	701a      	strb	r2, [r3, #0]

          /* Increment Buffer pointer */
          hi2c->pBuffPtr++;
 8003a74:	68fb      	ldr	r3, [r7, #12]
 8003a76:	6a5b      	ldr	r3, [r3, #36]	@ 0x24
 8003a78:	1c5a      	adds	r2, r3, #1
 8003a7a:	68fb      	ldr	r3, [r7, #12]
 8003a7c:	625a      	str	r2, [r3, #36]	@ 0x24

          /* Update counter */
          hi2c->XferSize--;
 8003a7e:	68fb      	ldr	r3, [r7, #12]
 8003a80:	8d1b      	ldrh	r3, [r3, #40]	@ 0x28
 8003a82:	3b01      	subs	r3, #1
 8003a84:	b29a      	uxth	r2, r3
 8003a86:	68fb      	ldr	r3, [r7, #12]
 8003a88:	851a      	strh	r2, [r3, #40]	@ 0x28
          hi2c->XferCount--;
 8003a8a:	68fb      	ldr	r3, [r7, #12]
 8003a8c:	8d5b      	ldrh	r3, [r3, #42]	@ 0x2a
 8003a8e:	b29b      	uxth	r3, r3
 8003a90:	3b01      	subs	r3, #1
 8003a92:	b29a      	uxth	r2, r3
 8003a94:	68fb      	ldr	r3, [r7, #12]
 8003a96:	855a      	strh	r2, [r3, #42]	@ 0x2a
    while (hi2c->XferSize > 0U)
 8003a98:	68fb      	ldr	r3, [r7, #12]
 8003a9a:	8d1b      	ldrh	r3, [r3, #40]	@ 0x28
 8003a9c:	2b00      	cmp	r3, #0
 8003a9e:	f47f ae88 	bne.w	80037b2 <HAL_I2C_Mem_Read+0x1c6>
        }
      }
    }

    hi2c->State = HAL_I2C_STATE_READY;
 8003aa2:	68fb      	ldr	r3, [r7, #12]
 8003aa4:	2220      	movs	r2, #32
 8003aa6:	f883 203d 	strb.w	r2, [r3, #61]	@ 0x3d
    hi2c->Mode = HAL_I2C_MODE_NONE;
 8003aaa:	68fb      	ldr	r3, [r7, #12]
 8003aac:	2200      	movs	r2, #0
 8003aae:	f883 203e 	strb.w	r2, [r3, #62]	@ 0x3e

    /* Process Unlocked */
    __HAL_UNLOCK(hi2c);
 8003ab2:	68fb      	ldr	r3, [r7, #12]
 8003ab4:	2200      	movs	r2, #0
 8003ab6:	f883 203c 	strb.w	r2, [r3, #60]	@ 0x3c

    return HAL_OK;
 8003aba:	2300      	movs	r3, #0
 8003abc:	e000      	b.n	8003ac0 <HAL_I2C_Mem_Read+0x4d4>
  }
  else
  {
    return HAL_BUSY;
 8003abe:	2302      	movs	r3, #2
  }
}
 8003ac0:	4618      	mov	r0, r3
 8003ac2:	3728      	adds	r7, #40	@ 0x28
 8003ac4:	46bd      	mov	sp, r7
 8003ac6:	bd80      	pop	{r7, pc}
 8003ac8:	00010004 	.word	0x00010004
 8003acc:	20000050 	.word	0x20000050
 8003ad0:	14f8b589 	.word	0x14f8b589

08003ad4 <I2C_RequestMemoryWrite>:
  * @param  Timeout Timeout duration
  * @param  Tickstart Tick start value
  * @retval HAL status
  */
static HAL_StatusTypeDef I2C_RequestMemoryWrite(I2C_HandleTypeDef *hi2c, uint16_t DevAddress, uint16_t MemAddress, uint16_t MemAddSize, uint32_t Timeout, uint32_t Tickstart)
{
 8003ad4:	b580      	push	{r7, lr}
 8003ad6:	b088      	sub	sp, #32
 8003ad8:	af02      	add	r7, sp, #8
 8003ada:	60f8      	str	r0, [r7, #12]
 8003adc:	4608      	mov	r0, r1
 8003ade:	4611      	mov	r1, r2
 8003ae0:	461a      	mov	r2, r3
 8003ae2:	4603      	mov	r3, r0
 8003ae4:	817b      	strh	r3, [r7, #10]
 8003ae6:	460b      	mov	r3, r1
 8003ae8:	813b      	strh	r3, [r7, #8]
 8003aea:	4613      	mov	r3, r2
 8003aec:	80fb      	strh	r3, [r7, #6]
  /* Generate Start */
  SET_BIT(hi2c->Instance->CR1, I2C_CR1_START);
 8003aee:	68fb      	ldr	r3, [r7, #12]
 8003af0:	681b      	ldr	r3, [r3, #0]
 8003af2:	681a      	ldr	r2, [r3, #0]
 8003af4:	68fb      	ldr	r3, [r7, #12]
 8003af6:	681b      	ldr	r3, [r3, #0]
 8003af8:	f442 7280 	orr.w	r2, r2, #256	@ 0x100
 8003afc:	601a      	str	r2, [r3, #0]

  /* Wait until SB flag is set */
  if (I2C_WaitOnFlagUntilTimeout(hi2c, I2C_FLAG_SB, RESET, Timeout, Tickstart) != HAL_OK)
 8003afe:	6a7b      	ldr	r3, [r7, #36]	@ 0x24
 8003b00:	9300      	str	r3, [sp, #0]
 8003b02:	6a3b      	ldr	r3, [r7, #32]
 8003b04:	2200      	movs	r2, #0
 8003b06:	f04f 1101 	mov.w	r1, #65537	@ 0x10001
 8003b0a:	68f8      	ldr	r0, [r7, #12]
 8003b0c:	f000 f960 	bl	8003dd0 <I2C_WaitOnFlagUntilTimeout>
 8003b10:	4603      	mov	r3, r0
 8003b12:	2b00      	cmp	r3, #0
 8003b14:	d00d      	beq.n	8003b32 <I2C_RequestMemoryWrite+0x5e>
  {
    if (READ_BIT(hi2c->Instance->CR1, I2C_CR1_START) == I2C_CR1_START)
 8003b16:	68fb      	ldr	r3, [r7, #12]
 8003b18:	681b      	ldr	r3, [r3, #0]
 8003b1a:	681b      	ldr	r3, [r3, #0]
 8003b1c:	f403 7380 	and.w	r3, r3, #256	@ 0x100
 8003b20:	f5b3 7f80 	cmp.w	r3, #256	@ 0x100
 8003b24:	d103      	bne.n	8003b2e <I2C_RequestMemoryWrite+0x5a>
    {
      hi2c->ErrorCode = HAL_I2C_WRONG_START;
 8003b26:	68fb      	ldr	r3, [r7, #12]
 8003b28:	f44f 7200 	mov.w	r2, #512	@ 0x200
 8003b2c:	641a      	str	r2, [r3, #64]	@ 0x40
    }
    return HAL_TIMEOUT;
 8003b2e:	2303      	movs	r3, #3
 8003b30:	e05f      	b.n	8003bf2 <I2C_RequestMemoryWrite+0x11e>
  }

  /* Send slave address */
  hi2c->Instance->DR = I2C_7BIT_ADD_WRITE(DevAddress);
 8003b32:	897b      	ldrh	r3, [r7, #10]
 8003b34:	b2db      	uxtb	r3, r3
 8003b36:	461a      	mov	r2, r3
 8003b38:	68fb      	ldr	r3, [r7, #12]
 8003b3a:	681b      	ldr	r3, [r3, #0]
 8003b3c:	f002 02fe 	and.w	r2, r2, #254	@ 0xfe
 8003b40:	611a      	str	r2, [r3, #16]

  /* Wait until ADDR flag is set */
  if (I2C_WaitOnMasterAddressFlagUntilTimeout(hi2c, I2C_FLAG_ADDR, Timeout, Tickstart) != HAL_OK)
 8003b42:	6a7b      	ldr	r3, [r7, #36]	@ 0x24
 8003b44:	6a3a      	ldr	r2, [r7, #32]
 8003b46:	492d      	ldr	r1, [pc, #180]	@ (8003bfc <I2C_RequestMemoryWrite+0x128>)
 8003b48:	68f8      	ldr	r0, [r7, #12]
 8003b4a:	f000 f9bb 	bl	8003ec4 <I2C_WaitOnMasterAddressFlagUntilTimeout>
 8003b4e:	4603      	mov	r3, r0
 8003b50:	2b00      	cmp	r3, #0
 8003b52:	d001      	beq.n	8003b58 <I2C_RequestMemoryWrite+0x84>
  {
    return HAL_ERROR;
 8003b54:	2301      	movs	r3, #1
 8003b56:	e04c      	b.n	8003bf2 <I2C_RequestMemoryWrite+0x11e>
  }

  /* Clear ADDR flag */
  __HAL_I2C_CLEAR_ADDRFLAG(hi2c);
 8003b58:	2300      	movs	r3, #0
 8003b5a:	617b      	str	r3, [r7, #20]
 8003b5c:	68fb      	ldr	r3, [r7, #12]
 8003b5e:	681b      	ldr	r3, [r3, #0]
 8003b60:	695b      	ldr	r3, [r3, #20]
 8003b62:	617b      	str	r3, [r7, #20]
 8003b64:	68fb      	ldr	r3, [r7, #12]
 8003b66:	681b      	ldr	r3, [r3, #0]
 8003b68:	699b      	ldr	r3, [r3, #24]
 8003b6a:	617b      	str	r3, [r7, #20]
 8003b6c:	697b      	ldr	r3, [r7, #20]

  /* Wait until TXE flag is set */
  if (I2C_WaitOnTXEFlagUntilTimeout(hi2c, Timeout, Tickstart) != HAL_OK)
 8003b6e:	6a7a      	ldr	r2, [r7, #36]	@ 0x24
 8003b70:	6a39      	ldr	r1, [r7, #32]
 8003b72:	68f8      	ldr	r0, [r7, #12]
 8003b74:	f000 fa46 	bl	8004004 <I2C_WaitOnTXEFlagUntilTimeout>
 8003b78:	4603      	mov	r3, r0
 8003b7a:	2b00      	cmp	r3, #0
 8003b7c:	d00d      	beq.n	8003b9a <I2C_RequestMemoryWrite+0xc6>
  {
    if (hi2c->ErrorCode == HAL_I2C_ERROR_AF)
 8003b7e:	68fb      	ldr	r3, [r7, #12]
 8003b80:	6c1b      	ldr	r3, [r3, #64]	@ 0x40
 8003b82:	2b04      	cmp	r3, #4
 8003b84:	d107      	bne.n	8003b96 <I2C_RequestMemoryWrite+0xc2>
    {
      /* Generate Stop */
      SET_BIT(hi2c->Instance->CR1, I2C_CR1_STOP);
 8003b86:	68fb      	ldr	r3, [r7, #12]
 8003b88:	681b      	ldr	r3, [r3, #0]
 8003b8a:	681a      	ldr	r2, [r3, #0]
 8003b8c:	68fb      	ldr	r3, [r7, #12]
 8003b8e:	681b      	ldr	r3, [r3, #0]
 8003b90:	f442 7200 	orr.w	r2, r2, #512	@ 0x200
 8003b94:	601a      	str	r2, [r3, #0]
    }
    return HAL_ERROR;
 8003b96:	2301      	movs	r3, #1
 8003b98:	e02b      	b.n	8003bf2 <I2C_RequestMemoryWrite+0x11e>
  }

  /* If Memory address size is 8Bit */
  if (MemAddSize == I2C_MEMADD_SIZE_8BIT)
 8003b9a:	88fb      	ldrh	r3, [r7, #6]
 8003b9c:	2b01      	cmp	r3, #1
 8003b9e:	d105      	bne.n	8003bac <I2C_RequestMemoryWrite+0xd8>
  {
    /* Send Memory Address */
    hi2c->Instance->DR = I2C_MEM_ADD_LSB(MemAddress);
 8003ba0:	893b      	ldrh	r3, [r7, #8]
 8003ba2:	b2da      	uxtb	r2, r3
 8003ba4:	68fb      	ldr	r3, [r7, #12]
 8003ba6:	681b      	ldr	r3, [r3, #0]
 8003ba8:	611a      	str	r2, [r3, #16]
 8003baa:	e021      	b.n	8003bf0 <I2C_RequestMemoryWrite+0x11c>
  }
  /* If Memory address size is 16Bit */
  else
  {
    /* Send MSB of Memory Address */
    hi2c->Instance->DR = I2C_MEM_ADD_MSB(MemAddress);
 8003bac:	893b      	ldrh	r3, [r7, #8]
 8003bae:	0a1b      	lsrs	r3, r3, #8
 8003bb0:	b29b      	uxth	r3, r3
 8003bb2:	b2da      	uxtb	r2, r3
 8003bb4:	68fb      	ldr	r3, [r7, #12]
 8003bb6:	681b      	ldr	r3, [r3, #0]
 8003bb8:	611a      	str	r2, [r3, #16]

    /* Wait until TXE flag is set */
    if (I2C_WaitOnTXEFlagUntilTimeout(hi2c, Timeout, Tickstart) != HAL_OK)
 8003bba:	6a7a      	ldr	r2, [r7, #36]	@ 0x24
 8003bbc:	6a39      	ldr	r1, [r7, #32]
 8003bbe:	68f8      	ldr	r0, [r7, #12]
 8003bc0:	f000 fa20 	bl	8004004 <I2C_WaitOnTXEFlagUntilTimeout>
 8003bc4:	4603      	mov	r3, r0
 8003bc6:	2b00      	cmp	r3, #0
 8003bc8:	d00d      	beq.n	8003be6 <I2C_RequestMemoryWrite+0x112>
    {
      if (hi2c->ErrorCode == HAL_I2C_ERROR_AF)
 8003bca:	68fb      	ldr	r3, [r7, #12]
 8003bcc:	6c1b      	ldr	r3, [r3, #64]	@ 0x40
 8003bce:	2b04      	cmp	r3, #4
 8003bd0:	d107      	bne.n	8003be2 <I2C_RequestMemoryWrite+0x10e>
      {
        /* Generate Stop */
        SET_BIT(hi2c->Instance->CR1, I2C_CR1_STOP);
 8003bd2:	68fb      	ldr	r3, [r7, #12]
 8003bd4:	681b      	ldr	r3, [r3, #0]
 8003bd6:	681a      	ldr	r2, [r3, #0]
 8003bd8:	68fb      	ldr	r3, [r7, #12]
 8003bda:	681b      	ldr	r3, [r3, #0]
 8003bdc:	f442 7200 	orr.w	r2, r2, #512	@ 0x200
 8003be0:	601a      	str	r2, [r3, #0]
      }
      return HAL_ERROR;
 8003be2:	2301      	movs	r3, #1
 8003be4:	e005      	b.n	8003bf2 <I2C_RequestMemoryWrite+0x11e>
    }

    /* Send LSB of Memory Address */
    hi2c->Instance->DR = I2C_MEM_ADD_LSB(MemAddress);
 8003be6:	893b      	ldrh	r3, [r7, #8]
 8003be8:	b2da      	uxtb	r2, r3
 8003bea:	68fb      	ldr	r3, [r7, #12]
 8003bec:	681b      	ldr	r3, [r3, #0]
 8003bee:	611a      	str	r2, [r3, #16]
  }

  return HAL_OK;
 8003bf0:	2300      	movs	r3, #0
}
 8003bf2:	4618      	mov	r0, r3
 8003bf4:	3718      	adds	r7, #24
 8003bf6:	46bd      	mov	sp, r7
 8003bf8:	bd80      	pop	{r7, pc}
 8003bfa:	bf00      	nop
 8003bfc:	00010002 	.word	0x00010002

08003c00 <I2C_RequestMemoryRead>:
  * @param  Timeout Timeout duration
  * @param  Tickstart Tick start value
  * @retval HAL status
  */
static HAL_StatusTypeDef I2C_RequestMemoryRead(I2C_HandleTypeDef *hi2c, uint16_t DevAddress, uint16_t MemAddress, uint16_t MemAddSize, uint32_t Timeout, uint32_t Tickstart)
{
 8003c00:	b580      	push	{r7, lr}
 8003c02:	b088      	sub	sp, #32
 8003c04:	af02      	add	r7, sp, #8
 8003c06:	60f8      	str	r0, [r7, #12]
 8003c08:	4608      	mov	r0, r1
 8003c0a:	4611      	mov	r1, r2
 8003c0c:	461a      	mov	r2, r3
 8003c0e:	4603      	mov	r3, r0
 8003c10:	817b      	strh	r3, [r7, #10]
 8003c12:	460b      	mov	r3, r1
 8003c14:	813b      	strh	r3, [r7, #8]
 8003c16:	4613      	mov	r3, r2
 8003c18:	80fb      	strh	r3, [r7, #6]
  /* Enable Acknowledge */
  SET_BIT(hi2c->Instance->CR1, I2C_CR1_ACK);
 8003c1a:	68fb      	ldr	r3, [r7, #12]
 8003c1c:	681b      	ldr	r3, [r3, #0]
 8003c1e:	681a      	ldr	r2, [r3, #0]
 8003c20:	68fb      	ldr	r3, [r7, #12]
 8003c22:	681b      	ldr	r3, [r3, #0]
 8003c24:	f442 6280 	orr.w	r2, r2, #1024	@ 0x400
 8003c28:	601a      	str	r2, [r3, #0]

  /* Generate Start */
  SET_BIT(hi2c->Instance->CR1, I2C_CR1_START);
 8003c2a:	68fb      	ldr	r3, [r7, #12]
 8003c2c:	681b      	ldr	r3, [r3, #0]
 8003c2e:	681a      	ldr	r2, [r3, #0]
 8003c30:	68fb      	ldr	r3, [r7, #12]
 8003c32:	681b      	ldr	r3, [r3, #0]
 8003c34:	f442 7280 	orr.w	r2, r2, #256	@ 0x100
 8003c38:	601a      	str	r2, [r3, #0]

  /* Wait until SB flag is set */
  if (I2C_WaitOnFlagUntilTimeout(hi2c, I2C_FLAG_SB, RESET, Timeout, Tickstart) != HAL_OK)
 8003c3a:	6a7b      	ldr	r3, [r7, #36]	@ 0x24
 8003c3c:	9300      	str	r3, [sp, #0]
 8003c3e:	6a3b      	ldr	r3, [r7, #32]
 8003c40:	2200      	movs	r2, #0
 8003c42:	f04f 1101 	mov.w	r1, #65537	@ 0x10001
 8003c46:	68f8      	ldr	r0, [r7, #12]
 8003c48:	f000 f8c2 	bl	8003dd0 <I2C_WaitOnFlagUntilTimeout>
 8003c4c:	4603      	mov	r3, r0
 8003c4e:	2b00      	cmp	r3, #0
 8003c50:	d00d      	beq.n	8003c6e <I2C_RequestMemoryRead+0x6e>
  {
    if (READ_BIT(hi2c->Instance->CR1, I2C_CR1_START) == I2C_CR1_START)
 8003c52:	68fb      	ldr	r3, [r7, #12]
 8003c54:	681b      	ldr	r3, [r3, #0]
 8003c56:	681b      	ldr	r3, [r3, #0]
 8003c58:	f403 7380 	and.w	r3, r3, #256	@ 0x100
 8003c5c:	f5b3 7f80 	cmp.w	r3, #256	@ 0x100
 8003c60:	d103      	bne.n	8003c6a <I2C_RequestMemoryRead+0x6a>
    {
      hi2c->ErrorCode = HAL_I2C_WRONG_START;
 8003c62:	68fb      	ldr	r3, [r7, #12]
 8003c64:	f44f 7200 	mov.w	r2, #512	@ 0x200
 8003c68:	641a      	str	r2, [r3, #64]	@ 0x40
    }
    return HAL_TIMEOUT;
 8003c6a:	2303      	movs	r3, #3
 8003c6c:	e0aa      	b.n	8003dc4 <I2C_RequestMemoryRead+0x1c4>
  }

  /* Send slave address */
  hi2c->Instance->DR = I2C_7BIT_ADD_WRITE(DevAddress);
 8003c6e:	897b      	ldrh	r3, [r7, #10]
 8003c70:	b2db      	uxtb	r3, r3
 8003c72:	461a      	mov	r2, r3
 8003c74:	68fb      	ldr	r3, [r7, #12]
 8003c76:	681b      	ldr	r3, [r3, #0]
 8003c78:	f002 02fe 	and.w	r2, r2, #254	@ 0xfe
 8003c7c:	611a      	str	r2, [r3, #16]

  /* Wait until ADDR flag is set */
  if (I2C_WaitOnMasterAddressFlagUntilTimeout(hi2c, I2C_FLAG_ADDR, Timeout, Tickstart) != HAL_OK)
 8003c7e:	6a7b      	ldr	r3, [r7, #36]	@ 0x24
 8003c80:	6a3a      	ldr	r2, [r7, #32]
 8003c82:	4952      	ldr	r1, [pc, #328]	@ (8003dcc <I2C_RequestMemoryRead+0x1cc>)
 8003c84:	68f8      	ldr	r0, [r7, #12]
 8003c86:	f000 f91d 	bl	8003ec4 <I2C_WaitOnMasterAddressFlagUntilTimeout>
 8003c8a:	4603      	mov	r3, r0
 8003c8c:	2b00      	cmp	r3, #0
 8003c8e:	d001      	beq.n	8003c94 <I2C_RequestMemoryRead+0x94>
  {
    return HAL_ERROR;
 8003c90:	2301      	movs	r3, #1
 8003c92:	e097      	b.n	8003dc4 <I2C_RequestMemoryRead+0x1c4>
  }

  /* Clear ADDR flag */
  __HAL_I2C_CLEAR_ADDRFLAG(hi2c);
 8003c94:	2300      	movs	r3, #0
 8003c96:	617b      	str	r3, [r7, #20]
 8003c98:	68fb      	ldr	r3, [r7, #12]
 8003c9a:	681b      	ldr	r3, [r3, #0]
 8003c9c:	695b      	ldr	r3, [r3, #20]
 8003c9e:	617b      	str	r3, [r7, #20]
 8003ca0:	68fb      	ldr	r3, [r7, #12]
 8003ca2:	681b      	ldr	r3, [r3, #0]
 8003ca4:	699b      	ldr	r3, [r3, #24]
 8003ca6:	617b      	str	r3, [r7, #20]
 8003ca8:	697b      	ldr	r3, [r7, #20]

  /* Wait until TXE flag is set */
  if (I2C_WaitOnTXEFlagUntilTimeout(hi2c, Timeout, Tickstart) != HAL_OK)
 8003caa:	6a7a      	ldr	r2, [r7, #36]	@ 0x24
 8003cac:	6a39      	ldr	r1, [r7, #32]
 8003cae:	68f8      	ldr	r0, [r7, #12]
 8003cb0:	f000 f9a8 	bl	8004004 <I2C_WaitOnTXEFlagUntilTimeout>
 8003cb4:	4603      	mov	r3, r0
 8003cb6:	2b00      	cmp	r3, #0
 8003cb8:	d00d      	beq.n	8003cd6 <I2C_RequestMemoryRead+0xd6>
  {
    if (hi2c->ErrorCode == HAL_I2C_ERROR_AF)
 8003cba:	68fb      	ldr	r3, [r7, #12]
 8003cbc:	6c1b      	ldr	r3, [r3, #64]	@ 0x40
 8003cbe:	2b04      	cmp	r3, #4
 8003cc0:	d107      	bne.n	8003cd2 <I2C_RequestMemoryRead+0xd2>
    {
      /* Generate Stop */
      SET_BIT(hi2c->Instance->CR1, I2C_CR1_STOP);
 8003cc2:	68fb      	ldr	r3, [r7, #12]
 8003cc4:	681b      	ldr	r3, [r3, #0]
 8003cc6:	681a      	ldr	r2, [r3, #0]
 8003cc8:	68fb      	ldr	r3, [r7, #12]
 8003cca:	681b      	ldr	r3, [r3, #0]
 8003ccc:	f442 7200 	orr.w	r2, r2, #512	@ 0x200
 8003cd0:	601a      	str	r2, [r3, #0]
    }
    return HAL_ERROR;
 8003cd2:	2301      	movs	r3, #1
 8003cd4:	e076      	b.n	8003dc4 <I2C_RequestMemoryRead+0x1c4>
  }

  /* If Memory address size is 8Bit */
  if (MemAddSize == I2C_MEMADD_SIZE_8BIT)
 8003cd6:	88fb      	ldrh	r3, [r7, #6]
 8003cd8:	2b01      	cmp	r3, #1
 8003cda:	d105      	bne.n	8003ce8 <I2C_RequestMemoryRead+0xe8>
  {
    /* Send Memory Address */
    hi2c->Instance->DR = I2C_MEM_ADD_LSB(MemAddress);
 8003cdc:	893b      	ldrh	r3, [r7, #8]
 8003cde:	b2da      	uxtb	r2, r3
 8003ce0:	68fb      	ldr	r3, [r7, #12]
 8003ce2:	681b      	ldr	r3, [r3, #0]
 8003ce4:	611a      	str	r2, [r3, #16]
 8003ce6:	e021      	b.n	8003d2c <I2C_RequestMemoryRead+0x12c>
  }
  /* If Memory address size is 16Bit */
  else
  {
    /* Send MSB of Memory Address */
    hi2c->Instance->DR = I2C_MEM_ADD_MSB(MemAddress);
 8003ce8:	893b      	ldrh	r3, [r7, #8]
 8003cea:	0a1b      	lsrs	r3, r3, #8
 8003cec:	b29b      	uxth	r3, r3
 8003cee:	b2da      	uxtb	r2, r3
 8003cf0:	68fb      	ldr	r3, [r7, #12]
 8003cf2:	681b      	ldr	r3, [r3, #0]
 8003cf4:	611a      	str	r2, [r3, #16]

    /* Wait until TXE flag is set */
    if (I2C_WaitOnTXEFlagUntilTimeout(hi2c, Timeout, Tickstart) != HAL_OK)
 8003cf6:	6a7a      	ldr	r2, [r7, #36]	@ 0x24
 8003cf8:	6a39      	ldr	r1, [r7, #32]
 8003cfa:	68f8      	ldr	r0, [r7, #12]
 8003cfc:	f000 f982 	bl	8004004 <I2C_WaitOnTXEFlagUntilTimeout>
 8003d00:	4603      	mov	r3, r0
 8003d02:	2b00      	cmp	r3, #0
 8003d04:	d00d      	beq.n	8003d22 <I2C_RequestMemoryRead+0x122>
    {
      if (hi2c->ErrorCode == HAL_I2C_ERROR_AF)
 8003d06:	68fb      	ldr	r3, [r7, #12]
 8003d08:	6c1b      	ldr	r3, [r3, #64]	@ 0x40
 8003d0a:	2b04      	cmp	r3, #4
 8003d0c:	d107      	bne.n	8003d1e <I2C_RequestMemoryRead+0x11e>
      {
        /* Generate Stop */
        SET_BIT(hi2c->Instance->CR1, I2C_CR1_STOP);
 8003d0e:	68fb      	ldr	r3, [r7, #12]
 8003d10:	681b      	ldr	r3, [r3, #0]
 8003d12:	681a      	ldr	r2, [r3, #0]
 8003d14:	68fb      	ldr	r3, [r7, #12]
 8003d16:	681b      	ldr	r3, [r3, #0]
 8003d18:	f442 7200 	orr.w	r2, r2, #512	@ 0x200
 8003d1c:	601a      	str	r2, [r3, #0]
      }
      return HAL_ERROR;
 8003d1e:	2301      	movs	r3, #1
 8003d20:	e050      	b.n	8003dc4 <I2C_RequestMemoryRead+0x1c4>
    }

    /* Send LSB of Memory Address */
    hi2c->Instance->DR = I2C_MEM_ADD_LSB(MemAddress);
 8003d22:	893b      	ldrh	r3, [r7, #8]
 8003d24:	b2da      	uxtb	r2, r3
 8003d26:	68fb      	ldr	r3, [r7, #12]
 8003d28:	681b      	ldr	r3, [r3, #0]
 8003d2a:	611a      	str	r2, [r3, #16]
  }

  /* Wait until TXE flag is set */
  if (I2C_WaitOnTXEFlagUntilTimeout(hi2c, Timeout, Tickstart) != HAL_OK)
 8003d2c:	6a7a      	ldr	r2, [r7, #36]	@ 0x24
 8003d2e:	6a39      	ldr	r1, [r7, #32]
 8003d30:	68f8      	ldr	r0, [r7, #12]
 8003d32:	f000 f967 	bl	8004004 <I2C_WaitOnTXEFlagUntilTimeout>
 8003d36:	4603      	mov	r3, r0
 8003d38:	2b00      	cmp	r3, #0
 8003d3a:	d00d      	beq.n	8003d58 <I2C_RequestMemoryRead+0x158>
  {
    if (hi2c->ErrorCode == HAL_I2C_ERROR_AF)
 8003d3c:	68fb      	ldr	r3, [r7, #12]
 8003d3e:	6c1b      	ldr	r3, [r3, #64]	@ 0x40
 8003d40:	2b04      	cmp	r3, #4
 8003d42:	d107      	bne.n	8003d54 <I2C_RequestMemoryRead+0x154>
    {
      /* Generate Stop */
      SET_BIT(hi2c->Instance->CR1, I2C_CR1_STOP);
 8003d44:	68fb      	ldr	r3, [r7, #12]
 8003d46:	681b      	ldr	r3, [r3, #0]
 8003d48:	681a      	ldr	r2, [r3, #0]
 8003d4a:	68fb      	ldr	r3, [r7, #12]
 8003d4c:	681b      	ldr	r3, [r3, #0]
 8003d4e:	f442 7200 	orr.w	r2, r2, #512	@ 0x200
 8003d52:	601a      	str	r2, [r3, #0]
    }
    return HAL_ERROR;
 8003d54:	2301      	movs	r3, #1
 8003d56:	e035      	b.n	8003dc4 <I2C_RequestMemoryRead+0x1c4>
  }

  /* Generate Restart */
  SET_BIT(hi2c->Instance->CR1, I2C_CR1_START);
 8003d58:	68fb      	ldr	r3, [r7, #12]
 8003d5a:	681b      	ldr	r3, [r3, #0]
 8003d5c:	681a      	ldr	r2, [r3, #0]
 8003d5e:	68fb      	ldr	r3, [r7, #12]
 8003d60:	681b      	ldr	r3, [r3, #0]
 8003d62:	f442 7280 	orr.w	r2, r2, #256	@ 0x100
 8003d66:	601a      	str	r2, [r3, #0]

  /* Wait until SB flag is set */
  if (I2C_WaitOnFlagUntilTimeout(hi2c, I2C_FLAG_SB, RESET, Timeout, Tickstart) != HAL_OK)
 8003d68:	6a7b      	ldr	r3, [r7, #36]	@ 0x24
 8003d6a:	9300      	str	r3, [sp, #0]
 8003d6c:	6a3b      	ldr	r3, [r7, #32]
 8003d6e:	2200      	movs	r2, #0
 8003d70:	f04f 1101 	mov.w	r1, #65537	@ 0x10001
 8003d74:	68f8      	ldr	r0, [r7, #12]
 8003d76:	f000 f82b 	bl	8003dd0 <I2C_WaitOnFlagUntilTimeout>
 8003d7a:	4603      	mov	r3, r0
 8003d7c:	2b00      	cmp	r3, #0
 8003d7e:	d00d      	beq.n	8003d9c <I2C_RequestMemoryRead+0x19c>
  {
    if (READ_BIT(hi2c->Instance->CR1, I2C_CR1_START) == I2C_CR1_START)
 8003d80:	68fb      	ldr	r3, [r7, #12]
 8003d82:	681b      	ldr	r3, [r3, #0]
 8003d84:	681b      	ldr	r3, [r3, #0]
 8003d86:	f403 7380 	and.w	r3, r3, #256	@ 0x100
 8003d8a:	f5b3 7f80 	cmp.w	r3, #256	@ 0x100
 8003d8e:	d103      	bne.n	8003d98 <I2C_RequestMemoryRead+0x198>
    {
      hi2c->ErrorCode = HAL_I2C_WRONG_START;
 8003d90:	68fb      	ldr	r3, [r7, #12]
 8003d92:	f44f 7200 	mov.w	r2, #512	@ 0x200
 8003d96:	641a      	str	r2, [r3, #64]	@ 0x40
    }
    return HAL_TIMEOUT;
 8003d98:	2303      	movs	r3, #3
 8003d9a:	e013      	b.n	8003dc4 <I2C_RequestMemoryRead+0x1c4>
  }

  /* Send slave address */
  hi2c->Instance->DR = I2C_7BIT_ADD_READ(DevAddress);
 8003d9c:	897b      	ldrh	r3, [r7, #10]
 8003d9e:	b2db      	uxtb	r3, r3
 8003da0:	f043 0301 	orr.w	r3, r3, #1
 8003da4:	b2da      	uxtb	r2, r3
 8003da6:	68fb      	ldr	r3, [r7, #12]
 8003da8:	681b      	ldr	r3, [r3, #0]
 8003daa:	611a      	str	r2, [r3, #16]

  /* Wait until ADDR flag is set */
  if (I2C_WaitOnMasterAddressFlagUntilTimeout(hi2c, I2C_FLAG_ADDR, Timeout, Tickstart) != HAL_OK)
 8003dac:	6a7b      	ldr	r3, [r7, #36]	@ 0x24
 8003dae:	6a3a      	ldr	r2, [r7, #32]
 8003db0:	4906      	ldr	r1, [pc, #24]	@ (8003dcc <I2C_RequestMemoryRead+0x1cc>)
 8003db2:	68f8      	ldr	r0, [r7, #12]
 8003db4:	f000 f886 	bl	8003ec4 <I2C_WaitOnMasterAddressFlagUntilTimeout>
 8003db8:	4603      	mov	r3, r0
 8003dba:	2b00      	cmp	r3, #0
 8003dbc:	d001      	beq.n	8003dc2 <I2C_RequestMemoryRead+0x1c2>
  {
    return HAL_ERROR;
 8003dbe:	2301      	movs	r3, #1
 8003dc0:	e000      	b.n	8003dc4 <I2C_RequestMemoryRead+0x1c4>
  }

  return HAL_OK;
 8003dc2:	2300      	movs	r3, #0
}
 8003dc4:	4618      	mov	r0, r3
 8003dc6:	3718      	adds	r7, #24
 8003dc8:	46bd      	mov	sp, r7
 8003dca:	bd80      	pop	{r7, pc}
 8003dcc:	00010002 	.word	0x00010002

08003dd0 <I2C_WaitOnFlagUntilTimeout>:
  * @param  Timeout Timeout duration
  * @param  Tickstart Tick start value
  * @retval HAL status
  */
static HAL_StatusTypeDef I2C_WaitOnFlagUntilTimeout(I2C_HandleTypeDef *hi2c, uint32_t Flag, FlagStatus Status, uint32_t Timeout, uint32_t Tickstart)
{
 8003dd0:	b580      	push	{r7, lr}
 8003dd2:	b084      	sub	sp, #16
 8003dd4:	af00      	add	r7, sp, #0
 8003dd6:	60f8      	str	r0, [r7, #12]
 8003dd8:	60b9      	str	r1, [r7, #8]
 8003dda:	603b      	str	r3, [r7, #0]
 8003ddc:	4613      	mov	r3, r2
 8003dde:	71fb      	strb	r3, [r7, #7]
  /* Wait until flag is set */
  while (__HAL_I2C_GET_FLAG(hi2c, Flag) == Status)
 8003de0:	e048      	b.n	8003e74 <I2C_WaitOnFlagUntilTimeout+0xa4>
  {
    /* Check for the Timeout */
    if (Timeout != HAL_MAX_DELAY)
 8003de2:	683b      	ldr	r3, [r7, #0]
 8003de4:	f1b3 3fff 	cmp.w	r3, #4294967295
 8003de8:	d044      	beq.n	8003e74 <I2C_WaitOnFlagUntilTimeout+0xa4>
    {
      if (((HAL_GetTick() - Tickstart) > Timeout) || (Timeout == 0U))
 8003dea:	f7fe fa09 	bl	8002200 <HAL_GetTick>
 8003dee:	4602      	mov	r2, r0
 8003df0:	69bb      	ldr	r3, [r7, #24]
 8003df2:	1ad3      	subs	r3, r2, r3
 8003df4:	683a      	ldr	r2, [r7, #0]
 8003df6:	429a      	cmp	r2, r3
 8003df8:	d302      	bcc.n	8003e00 <I2C_WaitOnFlagUntilTimeout+0x30>
 8003dfa:	683b      	ldr	r3, [r7, #0]
 8003dfc:	2b00      	cmp	r3, #0
 8003dfe:	d139      	bne.n	8003e74 <I2C_WaitOnFlagUntilTimeout+0xa4>
      {
        if ((__HAL_I2C_GET_FLAG(hi2c, Flag) == Status))
 8003e00:	68bb      	ldr	r3, [r7, #8]
 8003e02:	0c1b      	lsrs	r3, r3, #16
 8003e04:	b2db      	uxtb	r3, r3
 8003e06:	2b01      	cmp	r3, #1
 8003e08:	d10d      	bne.n	8003e26 <I2C_WaitOnFlagUntilTimeout+0x56>
 8003e0a:	68fb      	ldr	r3, [r7, #12]
 8003e0c:	681b      	ldr	r3, [r3, #0]
 8003e0e:	695b      	ldr	r3, [r3, #20]
 8003e10:	43da      	mvns	r2, r3
 8003e12:	68bb      	ldr	r3, [r7, #8]
 8003e14:	4013      	ands	r3, r2
 8003e16:	b29b      	uxth	r3, r3
 8003e18:	2b00      	cmp	r3, #0
 8003e1a:	bf0c      	ite	eq
 8003e1c:	2301      	moveq	r3, #1
 8003e1e:	2300      	movne	r3, #0
 8003e20:	b2db      	uxtb	r3, r3
 8003e22:	461a      	mov	r2, r3
 8003e24:	e00c      	b.n	8003e40 <I2C_WaitOnFlagUntilTimeout+0x70>
 8003e26:	68fb      	ldr	r3, [r7, #12]
 8003e28:	681b      	ldr	r3, [r3, #0]
 8003e2a:	699b      	ldr	r3, [r3, #24]
 8003e2c:	43da      	mvns	r2, r3
 8003e2e:	68bb      	ldr	r3, [r7, #8]
 8003e30:	4013      	ands	r3, r2
 8003e32:	b29b      	uxth	r3, r3
 8003e34:	2b00      	cmp	r3, #0
 8003e36:	bf0c      	ite	eq
 8003e38:	2301      	moveq	r3, #1
 8003e3a:	2300      	movne	r3, #0
 8003e3c:	b2db      	uxtb	r3, r3
 8003e3e:	461a      	mov	r2, r3
 8003e40:	79fb      	ldrb	r3, [r7, #7]
 8003e42:	429a      	cmp	r2, r3
 8003e44:	d116      	bne.n	8003e74 <I2C_WaitOnFlagUntilTimeout+0xa4>
        {
          hi2c->PreviousState     = I2C_STATE_NONE;
 8003e46:	68fb      	ldr	r3, [r7, #12]
 8003e48:	2200      	movs	r2, #0
 8003e4a:	631a      	str	r2, [r3, #48]	@ 0x30
          hi2c->State             = HAL_I2C_STATE_READY;
 8003e4c:	68fb      	ldr	r3, [r7, #12]
 8003e4e:	2220      	movs	r2, #32
 8003e50:	f883 203d 	strb.w	r2, [r3, #61]	@ 0x3d
          hi2c->Mode              = HAL_I2C_MODE_NONE;
 8003e54:	68fb      	ldr	r3, [r7, #12]
 8003e56:	2200      	movs	r2, #0
 8003e58:	f883 203e 	strb.w	r2, [r3, #62]	@ 0x3e
          hi2c->ErrorCode         |= HAL_I2C_ERROR_TIMEOUT;
 8003e5c:	68fb      	ldr	r3, [r7, #12]
 8003e5e:	6c1b      	ldr	r3, [r3, #64]	@ 0x40
 8003e60:	f043 0220 	orr.w	r2, r3, #32
 8003e64:	68fb      	ldr	r3, [r7, #12]
 8003e66:	641a      	str	r2, [r3, #64]	@ 0x40

          /* Process Unlocked */
          __HAL_UNLOCK(hi2c);
 8003e68:	68fb      	ldr	r3, [r7, #12]
 8003e6a:	2200      	movs	r2, #0
 8003e6c:	f883 203c 	strb.w	r2, [r3, #60]	@ 0x3c

          return HAL_ERROR;
 8003e70:	2301      	movs	r3, #1
 8003e72:	e023      	b.n	8003ebc <I2C_WaitOnFlagUntilTimeout+0xec>
  while (__HAL_I2C_GET_FLAG(hi2c, Flag) == Status)
 8003e74:	68bb      	ldr	r3, [r7, #8]
 8003e76:	0c1b      	lsrs	r3, r3, #16
 8003e78:	b2db      	uxtb	r3, r3
 8003e7a:	2b01      	cmp	r3, #1
 8003e7c:	d10d      	bne.n	8003e9a <I2C_WaitOnFlagUntilTimeout+0xca>
 8003e7e:	68fb      	ldr	r3, [r7, #12]
 8003e80:	681b      	ldr	r3, [r3, #0]
 8003e82:	695b      	ldr	r3, [r3, #20]
 8003e84:	43da      	mvns	r2, r3
 8003e86:	68bb      	ldr	r3, [r7, #8]
 8003e88:	4013      	ands	r3, r2
 8003e8a:	b29b      	uxth	r3, r3
 8003e8c:	2b00      	cmp	r3, #0
 8003e8e:	bf0c      	ite	eq
 8003e90:	2301      	moveq	r3, #1
 8003e92:	2300      	movne	r3, #0
 8003e94:	b2db      	uxtb	r3, r3
 8003e96:	461a      	mov	r2, r3
 8003e98:	e00c      	b.n	8003eb4 <I2C_WaitOnFlagUntilTimeout+0xe4>
 8003e9a:	68fb      	ldr	r3, [r7, #12]
 8003e9c:	681b      	ldr	r3, [r3, #0]
 8003e9e:	699b      	ldr	r3, [r3, #24]
 8003ea0:	43da      	mvns	r2, r3
 8003ea2:	68bb      	ldr	r3, [r7, #8]
 8003ea4:	4013      	ands	r3, r2
 8003ea6:	b29b      	uxth	r3, r3
 8003ea8:	2b00      	cmp	r3, #0
 8003eaa:	bf0c      	ite	eq
 8003eac:	2301      	moveq	r3, #1
 8003eae:	2300      	movne	r3, #0
 8003eb0:	b2db      	uxtb	r3, r3
 8003eb2:	461a      	mov	r2, r3
 8003eb4:	79fb      	ldrb	r3, [r7, #7]
 8003eb6:	429a      	cmp	r2, r3
 8003eb8:	d093      	beq.n	8003de2 <I2C_WaitOnFlagUntilTimeout+0x12>
        }
      }
    }
  }
  return HAL_OK;
 8003eba:	2300      	movs	r3, #0
}
 8003ebc:	4618      	mov	r0, r3
 8003ebe:	3710      	adds	r7, #16
 8003ec0:	46bd      	mov	sp, r7
 8003ec2:	bd80      	pop	{r7, pc}

08003ec4 <I2C_WaitOnMasterAddressFlagUntilTimeout>:
  * @param  Timeout Timeout duration
  * @param  Tickstart Tick start value
  * @retval HAL status
  */
static HAL_StatusTypeDef I2C_WaitOnMasterAddressFlagUntilTimeout(I2C_HandleTypeDef *hi2c, uint32_t Flag, uint32_t Timeout, uint32_t Tickstart)
{
 8003ec4:	b580      	push	{r7, lr}
 8003ec6:	b084      	sub	sp, #16
 8003ec8:	af00      	add	r7, sp, #0
 8003eca:	60f8      	str	r0, [r7, #12]
 8003ecc:	60b9      	str	r1, [r7, #8]
 8003ece:	607a      	str	r2, [r7, #4]
 8003ed0:	603b      	str	r3, [r7, #0]
  while (__HAL_I2C_GET_FLAG(hi2c, Flag) == RESET)
 8003ed2:	e071      	b.n	8003fb8 <I2C_WaitOnMasterAddressFlagUntilTimeout+0xf4>
  {
    if (__HAL_I2C_GET_FLAG(hi2c, I2C_FLAG_AF) == SET)
 8003ed4:	68fb      	ldr	r3, [r7, #12]
 8003ed6:	681b      	ldr	r3, [r3, #0]
 8003ed8:	695b      	ldr	r3, [r3, #20]
 8003eda:	f403 6380 	and.w	r3, r3, #1024	@ 0x400
 8003ede:	f5b3 6f80 	cmp.w	r3, #1024	@ 0x400
 8003ee2:	d123      	bne.n	8003f2c <I2C_WaitOnMasterAddressFlagUntilTimeout+0x68>
    {
      /* Generate Stop */
      SET_BIT(hi2c->Instance->CR1, I2C_CR1_STOP);
 8003ee4:	68fb      	ldr	r3, [r7, #12]
 8003ee6:	681b      	ldr	r3, [r3, #0]
 8003ee8:	681a      	ldr	r2, [r3, #0]
 8003eea:	68fb      	ldr	r3, [r7, #12]
 8003eec:	681b      	ldr	r3, [r3, #0]
 8003eee:	f442 7200 	orr.w	r2, r2, #512	@ 0x200
 8003ef2:	601a      	str	r2, [r3, #0]

      /* Clear AF Flag */
      __HAL_I2C_CLEAR_FLAG(hi2c, I2C_FLAG_AF);
 8003ef4:	68fb      	ldr	r3, [r7, #12]
 8003ef6:	681b      	ldr	r3, [r3, #0]
 8003ef8:	f46f 6280 	mvn.w	r2, #1024	@ 0x400
 8003efc:	615a      	str	r2, [r3, #20]

      hi2c->PreviousState       = I2C_STATE_NONE;
 8003efe:	68fb      	ldr	r3, [r7, #12]
 8003f00:	2200      	movs	r2, #0
 8003f02:	631a      	str	r2, [r3, #48]	@ 0x30
      hi2c->State               = HAL_I2C_STATE_READY;
 8003f04:	68fb      	ldr	r3, [r7, #12]
 8003f06:	2220      	movs	r2, #32
 8003f08:	f883 203d 	strb.w	r2, [r3, #61]	@ 0x3d
      hi2c->Mode                = HAL_I2C_MODE_NONE;
 8003f0c:	68fb      	ldr	r3, [r7, #12]
 8003f0e:	2200      	movs	r2, #0
 8003f10:	f883 203e 	strb.w	r2, [r3, #62]	@ 0x3e
      hi2c->ErrorCode           |= HAL_I2C_ERROR_AF;
 8003f14:	68fb      	ldr	r3, [r7, #12]
 8003f16:	6c1b      	ldr	r3, [r3, #64]	@ 0x40
 8003f18:	f043 0204 	orr.w	r2, r3, #4
 8003f1c:	68fb      	ldr	r3, [r7, #12]
 8003f1e:	641a      	str	r2, [r3, #64]	@ 0x40

      /* Process Unlocked */
      __HAL_UNLOCK(hi2c);
 8003f20:	68fb      	ldr	r3, [r7, #12]
 8003f22:	2200      	movs	r2, #0
 8003f24:	f883 203c 	strb.w	r2, [r3, #60]	@ 0x3c

      return HAL_ERROR;
 8003f28:	2301      	movs	r3, #1
 8003f2a:	e067      	b.n	8003ffc <I2C_WaitOnMasterAddressFlagUntilTimeout+0x138>
    }

    /* Check for the Timeout */
    if (Timeout != HAL_MAX_DELAY)
 8003f2c:	687b      	ldr	r3, [r7, #4]
 8003f2e:	f1b3 3fff 	cmp.w	r3, #4294967295
 8003f32:	d041      	beq.n	8003fb8 <I2C_WaitOnMasterAddressFlagUntilTimeout+0xf4>
    {
      if (((HAL_GetTick() - Tickstart) > Timeout) || (Timeout == 0U))
 8003f34:	f7fe f964 	bl	8002200 <HAL_GetTick>
 8003f38:	4602      	mov	r2, r0
 8003f3a:	683b      	ldr	r3, [r7, #0]
 8003f3c:	1ad3      	subs	r3, r2, r3
 8003f3e:	687a      	ldr	r2, [r7, #4]
 8003f40:	429a      	cmp	r2, r3
 8003f42:	d302      	bcc.n	8003f4a <I2C_WaitOnMasterAddressFlagUntilTimeout+0x86>
 8003f44:	687b      	ldr	r3, [r7, #4]
 8003f46:	2b00      	cmp	r3, #0
 8003f48:	d136      	bne.n	8003fb8 <I2C_WaitOnMasterAddressFlagUntilTimeout+0xf4>
      {
        if ((__HAL_I2C_GET_FLAG(hi2c, Flag) == RESET))
 8003f4a:	68bb      	ldr	r3, [r7, #8]
 8003f4c:	0c1b      	lsrs	r3, r3, #16
 8003f4e:	b2db      	uxtb	r3, r3
 8003f50:	2b01      	cmp	r3, #1
 8003f52:	d10c      	bne.n	8003f6e <I2C_WaitOnMasterAddressFlagUntilTimeout+0xaa>
 8003f54:	68fb      	ldr	r3, [r7, #12]
 8003f56:	681b      	ldr	r3, [r3, #0]
 8003f58:	695b      	ldr	r3, [r3, #20]
 8003f5a:	43da      	mvns	r2, r3
 8003f5c:	68bb      	ldr	r3, [r7, #8]
 8003f5e:	4013      	ands	r3, r2
 8003f60:	b29b      	uxth	r3, r3
 8003f62:	2b00      	cmp	r3, #0
 8003f64:	bf14      	ite	ne
 8003f66:	2301      	movne	r3, #1
 8003f68:	2300      	moveq	r3, #0
 8003f6a:	b2db      	uxtb	r3, r3
 8003f6c:	e00b      	b.n	8003f86 <I2C_WaitOnMasterAddressFlagUntilTimeout+0xc2>
 8003f6e:	68fb      	ldr	r3, [r7, #12]
 8003f70:	681b      	ldr	r3, [r3, #0]
 8003f72:	699b      	ldr	r3, [r3, #24]
 8003f74:	43da      	mvns	r2, r3
 8003f76:	68bb      	ldr	r3, [r7, #8]
 8003f78:	4013      	ands	r3, r2
 8003f7a:	b29b      	uxth	r3, r3
 8003f7c:	2b00      	cmp	r3, #0
 8003f7e:	bf14      	ite	ne
 8003f80:	2301      	movne	r3, #1
 8003f82:	2300      	moveq	r3, #0
 8003f84:	b2db      	uxtb	r3, r3
 8003f86:	2b00      	cmp	r3, #0
 8003f88:	d016      	beq.n	8003fb8 <I2C_WaitOnMasterAddressFlagUntilTimeout+0xf4>
        {
          hi2c->PreviousState       = I2C_STATE_NONE;
 8003f8a:	68fb      	ldr	r3, [r7, #12]
 8003f8c:	2200      	movs	r2, #0
 8003f8e:	631a      	str	r2, [r3, #48]	@ 0x30
          hi2c->State               = HAL_I2C_STATE_READY;
 8003f90:	68fb      	ldr	r3, [r7, #12]
 8003f92:	2220      	movs	r2, #32
 8003f94:	f883 203d 	strb.w	r2, [r3, #61]	@ 0x3d
          hi2c->Mode                = HAL_I2C_MODE_NONE;
 8003f98:	68fb      	ldr	r3, [r7, #12]
 8003f9a:	2200      	movs	r2, #0
 8003f9c:	f883 203e 	strb.w	r2, [r3, #62]	@ 0x3e
          hi2c->ErrorCode           |= HAL_I2C_ERROR_TIMEOUT;
 8003fa0:	68fb      	ldr	r3, [r7, #12]
 8003fa2:	6c1b      	ldr	r3, [r3, #64]	@ 0x40
 8003fa4:	f043 0220 	orr.w	r2, r3, #32
 8003fa8:	68fb      	ldr	r3, [r7, #12]
 8003faa:	641a      	str	r2, [r3, #64]	@ 0x40

          /* Process Unlocked */
          __HAL_UNLOCK(hi2c);
 8003fac:	68fb      	ldr	r3, [r7, #12]
 8003fae:	2200      	movs	r2, #0
 8003fb0:	f883 203c 	strb.w	r2, [r3, #60]	@ 0x3c

          return HAL_ERROR;
 8003fb4:	2301      	movs	r3, #1
 8003fb6:	e021      	b.n	8003ffc <I2C_WaitOnMasterAddressFlagUntilTimeout+0x138>
  while (__HAL_I2C_GET_FLAG(hi2c, Flag) == RESET)
 8003fb8:	68bb      	ldr	r3, [r7, #8]
 8003fba:	0c1b      	lsrs	r3, r3, #16
 8003fbc:	b2db      	uxtb	r3, r3
 8003fbe:	2b01      	cmp	r3, #1
 8003fc0:	d10c      	bne.n	8003fdc <I2C_WaitOnMasterAddressFlagUntilTimeout+0x118>
 8003fc2:	68fb      	ldr	r3, [r7, #12]
 8003fc4:	681b      	ldr	r3, [r3, #0]
 8003fc6:	695b      	ldr	r3, [r3, #20]
 8003fc8:	43da      	mvns	r2, r3
 8003fca:	68bb      	ldr	r3, [r7, #8]
 8003fcc:	4013      	ands	r3, r2
 8003fce:	b29b      	uxth	r3, r3
 8003fd0:	2b00      	cmp	r3, #0
 8003fd2:	bf14      	ite	ne
 8003fd4:	2301      	movne	r3, #1
 8003fd6:	2300      	moveq	r3, #0
 8003fd8:	b2db      	uxtb	r3, r3
 8003fda:	e00b      	b.n	8003ff4 <I2C_WaitOnMasterAddressFlagUntilTimeout+0x130>
 8003fdc:	68fb      	ldr	r3, [r7, #12]
 8003fde:	681b      	ldr	r3, [r3, #0]
 8003fe0:	699b      	ldr	r3, [r3, #24]
 8003fe2:	43da      	mvns	r2, r3
 8003fe4:	68bb      	ldr	r3, [r7, #8]
 8003fe6:	4013      	ands	r3, r2
 8003fe8:	b29b      	uxth	r3, r3
 8003fea:	2b00      	cmp	r3, #0
 8003fec:	bf14      	ite	ne
 8003fee:	2301      	movne	r3, #1
 8003ff0:	2300      	moveq	r3, #0
 8003ff2:	b2db      	uxtb	r3, r3
 8003ff4:	2b00      	cmp	r3, #0
 8003ff6:	f47f af6d 	bne.w	8003ed4 <I2C_WaitOnMasterAddressFlagUntilTimeout+0x10>
        }
      }
    }
  }
  return HAL_OK;
 8003ffa:	2300      	movs	r3, #0
}
 8003ffc:	4618      	mov	r0, r3
 8003ffe:	3710      	adds	r7, #16
 8004000:	46bd      	mov	sp, r7
 8004002:	bd80      	pop	{r7, pc}

08004004 <I2C_WaitOnTXEFlagUntilTimeout>:
  * @param  Timeout Timeout duration
  * @param  Tickstart Tick start value
  * @retval HAL status
  */
static HAL_StatusTypeDef I2C_WaitOnTXEFlagUntilTimeout(I2C_HandleTypeDef *hi2c, uint32_t Timeout, uint32_t Tickstart)
{
 8004004:	b580      	push	{r7, lr}
 8004006:	b084      	sub	sp, #16
 8004008:	af00      	add	r7, sp, #0
 800400a:	60f8      	str	r0, [r7, #12]
 800400c:	60b9      	str	r1, [r7, #8]
 800400e:	607a      	str	r2, [r7, #4]
  while (__HAL_I2C_GET_FLAG(hi2c, I2C_FLAG_TXE) == RESET)
 8004010:	e034      	b.n	800407c <I2C_WaitOnTXEFlagUntilTimeout+0x78>
  {
    /* Check if a NACK is detected */
    if (I2C_IsAcknowledgeFailed(hi2c) != HAL_OK)
 8004012:	68f8      	ldr	r0, [r7, #12]
 8004014:	f000 f8e3 	bl	80041de <I2C_IsAcknowledgeFailed>
 8004018:	4603      	mov	r3, r0
 800401a:	2b00      	cmp	r3, #0
 800401c:	d001      	beq.n	8004022 <I2C_WaitOnTXEFlagUntilTimeout+0x1e>
    {
      return HAL_ERROR;
 800401e:	2301      	movs	r3, #1
 8004020:	e034      	b.n	800408c <I2C_WaitOnTXEFlagUntilTimeout+0x88>
    }

    /* Check for the Timeout */
    if (Timeout != HAL_MAX_DELAY)
 8004022:	68bb      	ldr	r3, [r7, #8]
 8004024:	f1b3 3fff 	cmp.w	r3, #4294967295
 8004028:	d028      	beq.n	800407c <I2C_WaitOnTXEFlagUntilTimeout+0x78>
    {
      if (((HAL_GetTick() - Tickstart) > Timeout) || (Timeout == 0U))
 800402a:	f7fe f8e9 	bl	8002200 <HAL_GetTick>
 800402e:	4602      	mov	r2, r0
 8004030:	687b      	ldr	r3, [r7, #4]
 8004032:	1ad3      	subs	r3, r2, r3
 8004034:	68ba      	ldr	r2, [r7, #8]
 8004036:	429a      	cmp	r2, r3
 8004038:	d302      	bcc.n	8004040 <I2C_WaitOnTXEFlagUntilTimeout+0x3c>
 800403a:	68bb      	ldr	r3, [r7, #8]
 800403c:	2b00      	cmp	r3, #0
 800403e:	d11d      	bne.n	800407c <I2C_WaitOnTXEFlagUntilTimeout+0x78>
      {
        if ((__HAL_I2C_GET_FLAG(hi2c, I2C_FLAG_TXE) == RESET))
 8004040:	68fb      	ldr	r3, [r7, #12]
 8004042:	681b      	ldr	r3, [r3, #0]
 8004044:	695b      	ldr	r3, [r3, #20]
 8004046:	f003 0380 	and.w	r3, r3, #128	@ 0x80
 800404a:	2b80      	cmp	r3, #128	@ 0x80
 800404c:	d016      	beq.n	800407c <I2C_WaitOnTXEFlagUntilTimeout+0x78>
        {
          hi2c->PreviousState       = I2C_STATE_NONE;
 800404e:	68fb      	ldr	r3, [r7, #12]
 8004050:	2200      	movs	r2, #0
 8004052:	631a      	str	r2, [r3, #48]	@ 0x30
          hi2c->State               = HAL_I2C_STATE_READY;
 8004054:	68fb      	ldr	r3, [r7, #12]
 8004056:	2220      	movs	r2, #32
 8004058:	f883 203d 	strb.w	r2, [r3, #61]	@ 0x3d
          hi2c->Mode                = HAL_I2C_MODE_NONE;
 800405c:	68fb      	ldr	r3, [r7, #12]
 800405e:	2200      	movs	r2, #0
 8004060:	f883 203e 	strb.w	r2, [r3, #62]	@ 0x3e
          hi2c->ErrorCode           |= HAL_I2C_ERROR_TIMEOUT;
 8004064:	68fb      	ldr	r3, [r7, #12]
 8004066:	6c1b      	ldr	r3, [r3, #64]	@ 0x40
 8004068:	f043 0220 	orr.w	r2, r3, #32
 800406c:	68fb      	ldr	r3, [r7, #12]
 800406e:	641a      	str	r2, [r3, #64]	@ 0x40

          /* Process Unlocked */
          __HAL_UNLOCK(hi2c);
 8004070:	68fb      	ldr	r3, [r7, #12]
 8004072:	2200      	movs	r2, #0
 8004074:	f883 203c 	strb.w	r2, [r3, #60]	@ 0x3c

          return HAL_ERROR;
 8004078:	2301      	movs	r3, #1
 800407a:	e007      	b.n	800408c <I2C_WaitOnTXEFlagUntilTimeout+0x88>
  while (__HAL_I2C_GET_FLAG(hi2c, I2C_FLAG_TXE) == RESET)
 800407c:	68fb      	ldr	r3, [r7, #12]
 800407e:	681b      	ldr	r3, [r3, #0]
 8004080:	695b      	ldr	r3, [r3, #20]
 8004082:	f003 0380 	and.w	r3, r3, #128	@ 0x80
 8004086:	2b80      	cmp	r3, #128	@ 0x80
 8004088:	d1c3      	bne.n	8004012 <I2C_WaitOnTXEFlagUntilTimeout+0xe>
        }
      }
    }
  }
  return HAL_OK;
 800408a:	2300      	movs	r3, #0
}
 800408c:	4618      	mov	r0, r3
 800408e:	3710      	adds	r7, #16
 8004090:	46bd      	mov	sp, r7
 8004092:	bd80      	pop	{r7, pc}

08004094 <I2C_WaitOnBTFFlagUntilTimeout>:
  * @param  Timeout Timeout duration
  * @param  Tickstart Tick start value
  * @retval HAL status
  */
static HAL_StatusTypeDef I2C_WaitOnBTFFlagUntilTimeout(I2C_HandleTypeDef *hi2c, uint32_t Timeout, uint32_t Tickstart)
{
 8004094:	b580      	push	{r7, lr}
 8004096:	b084      	sub	sp, #16
 8004098:	af00      	add	r7, sp, #0
 800409a:	60f8      	str	r0, [r7, #12]
 800409c:	60b9      	str	r1, [r7, #8]
 800409e:	607a      	str	r2, [r7, #4]
  while (__HAL_I2C_GET_FLAG(hi2c, I2C_FLAG_BTF) == RESET)
 80040a0:	e034      	b.n	800410c <I2C_WaitOnBTFFlagUntilTimeout+0x78>
  {
    /* Check if a NACK is detected */
    if (I2C_IsAcknowledgeFailed(hi2c) != HAL_OK)
 80040a2:	68f8      	ldr	r0, [r7, #12]
 80040a4:	f000 f89b 	bl	80041de <I2C_IsAcknowledgeFailed>
 80040a8:	4603      	mov	r3, r0
 80040aa:	2b00      	cmp	r3, #0
 80040ac:	d001      	beq.n	80040b2 <I2C_WaitOnBTFFlagUntilTimeout+0x1e>
    {
      return HAL_ERROR;
 80040ae:	2301      	movs	r3, #1
 80040b0:	e034      	b.n	800411c <I2C_WaitOnBTFFlagUntilTimeout+0x88>
    }

    /* Check for the Timeout */
    if (Timeout != HAL_MAX_DELAY)
 80040b2:	68bb      	ldr	r3, [r7, #8]
 80040b4:	f1b3 3fff 	cmp.w	r3, #4294967295
 80040b8:	d028      	beq.n	800410c <I2C_WaitOnBTFFlagUntilTimeout+0x78>
    {
      if (((HAL_GetTick() - Tickstart) > Timeout) || (Timeout == 0U))
 80040ba:	f7fe f8a1 	bl	8002200 <HAL_GetTick>
 80040be:	4602      	mov	r2, r0
 80040c0:	687b      	ldr	r3, [r7, #4]
 80040c2:	1ad3      	subs	r3, r2, r3
 80040c4:	68ba      	ldr	r2, [r7, #8]
 80040c6:	429a      	cmp	r2, r3
 80040c8:	d302      	bcc.n	80040d0 <I2C_WaitOnBTFFlagUntilTimeout+0x3c>
 80040ca:	68bb      	ldr	r3, [r7, #8]
 80040cc:	2b00      	cmp	r3, #0
 80040ce:	d11d      	bne.n	800410c <I2C_WaitOnBTFFlagUntilTimeout+0x78>
      {
        if ((__HAL_I2C_GET_FLAG(hi2c, I2C_FLAG_BTF) == RESET))
 80040d0:	68fb      	ldr	r3, [r7, #12]
 80040d2:	681b      	ldr	r3, [r3, #0]
 80040d4:	695b      	ldr	r3, [r3, #20]
 80040d6:	f003 0304 	and.w	r3, r3, #4
 80040da:	2b04      	cmp	r3, #4
 80040dc:	d016      	beq.n	800410c <I2C_WaitOnBTFFlagUntilTimeout+0x78>
        {
          hi2c->PreviousState       = I2C_STATE_NONE;
 80040de:	68fb      	ldr	r3, [r7, #12]
 80040e0:	2200      	movs	r2, #0
 80040e2:	631a      	str	r2, [r3, #48]	@ 0x30
          hi2c->State               = HAL_I2C_STATE_READY;
 80040e4:	68fb      	ldr	r3, [r7, #12]
 80040e6:	2220      	movs	r2, #32
 80040e8:	f883 203d 	strb.w	r2, [r3, #61]	@ 0x3d
          hi2c->Mode                = HAL_I2C_MODE_NONE;
 80040ec:	68fb      	ldr	r3, [r7, #12]
 80040ee:	2200      	movs	r2, #0
 80040f0:	f883 203e 	strb.w	r2, [r3, #62]	@ 0x3e
          hi2c->ErrorCode           |= HAL_I2C_ERROR_TIMEOUT;
 80040f4:	68fb      	ldr	r3, [r7, #12]
 80040f6:	6c1b      	ldr	r3, [r3, #64]	@ 0x40
 80040f8:	f043 0220 	orr.w	r2, r3, #32
 80040fc:	68fb      	ldr	r3, [r7, #12]
 80040fe:	641a      	str	r2, [r3, #64]	@ 0x40

          /* Process Unlocked */
          __HAL_UNLOCK(hi2c);
 8004100:	68fb      	ldr	r3, [r7, #12]
 8004102:	2200      	movs	r2, #0
 8004104:	f883 203c 	strb.w	r2, [r3, #60]	@ 0x3c

          return HAL_ERROR;
 8004108:	2301      	movs	r3, #1
 800410a:	e007      	b.n	800411c <I2C_WaitOnBTFFlagUntilTimeout+0x88>
  while (__HAL_I2C_GET_FLAG(hi2c, I2C_FLAG_BTF) == RESET)
 800410c:	68fb      	ldr	r3, [r7, #12]
 800410e:	681b      	ldr	r3, [r3, #0]
 8004110:	695b      	ldr	r3, [r3, #20]
 8004112:	f003 0304 	and.w	r3, r3, #4
 8004116:	2b04      	cmp	r3, #4
 8004118:	d1c3      	bne.n	80040a2 <I2C_WaitOnBTFFlagUntilTimeout+0xe>
        }
      }
    }
  }
  return HAL_OK;
 800411a:	2300      	movs	r3, #0
}
 800411c:	4618      	mov	r0, r3
 800411e:	3710      	adds	r7, #16
 8004120:	46bd      	mov	sp, r7
 8004122:	bd80      	pop	{r7, pc}

08004124 <I2C_WaitOnRXNEFlagUntilTimeout>:
  * @param  Timeout Timeout duration
  * @param  Tickstart Tick start value
  * @retval HAL status
  */
static HAL_StatusTypeDef I2C_WaitOnRXNEFlagUntilTimeout(I2C_HandleTypeDef *hi2c, uint32_t Timeout, uint32_t Tickstart)
{
 8004124:	b580      	push	{r7, lr}
 8004126:	b084      	sub	sp, #16
 8004128:	af00      	add	r7, sp, #0
 800412a:	60f8      	str	r0, [r7, #12]
 800412c:	60b9      	str	r1, [r7, #8]
 800412e:	607a      	str	r2, [r7, #4]

  while (__HAL_I2C_GET_FLAG(hi2c, I2C_FLAG_RXNE) == RESET)
 8004130:	e049      	b.n	80041c6 <I2C_WaitOnRXNEFlagUntilTimeout+0xa2>
  {
    /* Check if a STOPF is detected */
    if (__HAL_I2C_GET_FLAG(hi2c, I2C_FLAG_STOPF) == SET)
 8004132:	68fb      	ldr	r3, [r7, #12]
 8004134:	681b      	ldr	r3, [r3, #0]
 8004136:	695b      	ldr	r3, [r3, #20]
 8004138:	f003 0310 	and.w	r3, r3, #16
 800413c:	2b10      	cmp	r3, #16
 800413e:	d119      	bne.n	8004174 <I2C_WaitOnRXNEFlagUntilTimeout+0x50>
    {
      /* Clear STOP Flag */
      __HAL_I2C_CLEAR_FLAG(hi2c, I2C_FLAG_STOPF);
 8004140:	68fb      	ldr	r3, [r7, #12]
 8004142:	681b      	ldr	r3, [r3, #0]
 8004144:	f06f 0210 	mvn.w	r2, #16
 8004148:	615a      	str	r2, [r3, #20]

      hi2c->PreviousState       = I2C_STATE_NONE;
 800414a:	68fb      	ldr	r3, [r7, #12]
 800414c:	2200      	movs	r2, #0
 800414e:	631a      	str	r2, [r3, #48]	@ 0x30
      hi2c->State               = HAL_I2C_STATE_READY;
 8004150:	68fb      	ldr	r3, [r7, #12]
 8004152:	2220      	movs	r2, #32
 8004154:	f883 203d 	strb.w	r2, [r3, #61]	@ 0x3d
      hi2c->Mode                = HAL_I2C_MODE_NONE;
 8004158:	68fb      	ldr	r3, [r7, #12]
 800415a:	2200      	movs	r2, #0
 800415c:	f883 203e 	strb.w	r2, [r3, #62]	@ 0x3e
      hi2c->ErrorCode           |= HAL_I2C_ERROR_NONE;
 8004160:	68fb      	ldr	r3, [r7, #12]
 8004162:	6c1a      	ldr	r2, [r3, #64]	@ 0x40
 8004164:	68fb      	ldr	r3, [r7, #12]
 8004166:	641a      	str	r2, [r3, #64]	@ 0x40

      /* Process Unlocked */
      __HAL_UNLOCK(hi2c);
 8004168:	68fb      	ldr	r3, [r7, #12]
 800416a:	2200      	movs	r2, #0
 800416c:	f883 203c 	strb.w	r2, [r3, #60]	@ 0x3c

      return HAL_ERROR;
 8004170:	2301      	movs	r3, #1
 8004172:	e030      	b.n	80041d6 <I2C_WaitOnRXNEFlagUntilTimeout+0xb2>
    }

    /* Check for the Timeout */
    if (((HAL_GetTick() - Tickstart) > Timeout) || (Timeout == 0U))
 8004174:	f7fe f844 	bl	8002200 <HAL_GetTick>
 8004178:	4602      	mov	r2, r0
 800417a:	687b      	ldr	r3, [r7, #4]
 800417c:	1ad3      	subs	r3, r2, r3
 800417e:	68ba      	ldr	r2, [r7, #8]
 8004180:	429a      	cmp	r2, r3
 8004182:	d302      	bcc.n	800418a <I2C_WaitOnRXNEFlagUntilTimeout+0x66>
 8004184:	68bb      	ldr	r3, [r7, #8]
 8004186:	2b00      	cmp	r3, #0
 8004188:	d11d      	bne.n	80041c6 <I2C_WaitOnRXNEFlagUntilTimeout+0xa2>
    {
      if ((__HAL_I2C_GET_FLAG(hi2c, I2C_FLAG_RXNE) == RESET))
 800418a:	68fb      	ldr	r3, [r7, #12]
 800418c:	681b      	ldr	r3, [r3, #0]
 800418e:	695b      	ldr	r3, [r3, #20]
 8004190:	f003 0340 	and.w	r3, r3, #64	@ 0x40
 8004194:	2b40      	cmp	r3, #64	@ 0x40
 8004196:	d016      	beq.n	80041c6 <I2C_WaitOnRXNEFlagUntilTimeout+0xa2>
      {
        hi2c->PreviousState       = I2C_STATE_NONE;
 8004198:	68fb      	ldr	r3, [r7, #12]
 800419a:	2200      	movs	r2, #0
 800419c:	631a      	str	r2, [r3, #48]	@ 0x30
        hi2c->State               = HAL_I2C_STATE_READY;
 800419e:	68fb      	ldr	r3, [r7, #12]
 80041a0:	2220      	movs	r2, #32
 80041a2:	f883 203d 	strb.w	r2, [r3, #61]	@ 0x3d
        hi2c->Mode                = HAL_I2C_MODE_NONE;
 80041a6:	68fb      	ldr	r3, [r7, #12]
 80041a8:	2200      	movs	r2, #0
 80041aa:	f883 203e 	strb.w	r2, [r3, #62]	@ 0x3e
        hi2c->ErrorCode           |= HAL_I2C_ERROR_TIMEOUT;
 80041ae:	68fb      	ldr	r3, [r7, #12]
 80041b0:	6c1b      	ldr	r3, [r3, #64]	@ 0x40
 80041b2:	f043 0220 	orr.w	r2, r3, #32
 80041b6:	68fb      	ldr	r3, [r7, #12]
 80041b8:	641a      	str	r2, [r3, #64]	@ 0x40

        /* Process Unlocked */
        __HAL_UNLOCK(hi2c);
 80041ba:	68fb      	ldr	r3, [r7, #12]
 80041bc:	2200      	movs	r2, #0
 80041be:	f883 203c 	strb.w	r2, [r3, #60]	@ 0x3c

        return HAL_ERROR;
 80041c2:	2301      	movs	r3, #1
 80041c4:	e007      	b.n	80041d6 <I2C_WaitOnRXNEFlagUntilTimeout+0xb2>
  while (__HAL_I2C_GET_FLAG(hi2c, I2C_FLAG_RXNE) == RESET)
 80041c6:	68fb      	ldr	r3, [r7, #12]
 80041c8:	681b      	ldr	r3, [r3, #0]
 80041ca:	695b      	ldr	r3, [r3, #20]
 80041cc:	f003 0340 	and.w	r3, r3, #64	@ 0x40
 80041d0:	2b40      	cmp	r3, #64	@ 0x40
 80041d2:	d1ae      	bne.n	8004132 <I2C_WaitOnRXNEFlagUntilTimeout+0xe>
      }
    }
  }
  return HAL_OK;
 80041d4:	2300      	movs	r3, #0
}
 80041d6:	4618      	mov	r0, r3
 80041d8:	3710      	adds	r7, #16
 80041da:	46bd      	mov	sp, r7
 80041dc:	bd80      	pop	{r7, pc}

080041de <I2C_IsAcknowledgeFailed>:
  * @param  hi2c Pointer to a I2C_HandleTypeDef structure that contains
  *                the configuration information for the specified I2C.
  * @retval HAL status
  */
static HAL_StatusTypeDef I2C_IsAcknowledgeFailed(I2C_HandleTypeDef *hi2c)
{
 80041de:	b480      	push	{r7}
 80041e0:	b083      	sub	sp, #12
 80041e2:	af00      	add	r7, sp, #0
 80041e4:	6078      	str	r0, [r7, #4]
  if (__HAL_I2C_GET_FLAG(hi2c, I2C_FLAG_AF) == SET)
 80041e6:	687b      	ldr	r3, [r7, #4]
 80041e8:	681b      	ldr	r3, [r3, #0]
 80041ea:	695b      	ldr	r3, [r3, #20]
 80041ec:	f403 6380 	and.w	r3, r3, #1024	@ 0x400
 80041f0:	f5b3 6f80 	cmp.w	r3, #1024	@ 0x400
 80041f4:	d11b      	bne.n	800422e <I2C_IsAcknowledgeFailed+0x50>
  {
    /* Clear NACKF Flag */
    __HAL_I2C_CLEAR_FLAG(hi2c, I2C_FLAG_AF);
 80041f6:	687b      	ldr	r3, [r7, #4]
 80041f8:	681b      	ldr	r3, [r3, #0]
 80041fa:	f46f 6280 	mvn.w	r2, #1024	@ 0x400
 80041fe:	615a      	str	r2, [r3, #20]

    hi2c->PreviousState       = I2C_STATE_NONE;
 8004200:	687b      	ldr	r3, [r7, #4]
 8004202:	2200      	movs	r2, #0
 8004204:	631a      	str	r2, [r3, #48]	@ 0x30
    hi2c->State               = HAL_I2C_STATE_READY;
 8004206:	687b      	ldr	r3, [r7, #4]
 8004208:	2220      	movs	r2, #32
 800420a:	f883 203d 	strb.w	r2, [r3, #61]	@ 0x3d
    hi2c->Mode                = HAL_I2C_MODE_NONE;
 800420e:	687b      	ldr	r3, [r7, #4]
 8004210:	2200      	movs	r2, #0
 8004212:	f883 203e 	strb.w	r2, [r3, #62]	@ 0x3e
    hi2c->ErrorCode           |= HAL_I2C_ERROR_AF;
 8004216:	687b      	ldr	r3, [r7, #4]
 8004218:	6c1b      	ldr	r3, [r3, #64]	@ 0x40
 800421a:	f043 0204 	orr.w	r2, r3, #4
 800421e:	687b      	ldr	r3, [r7, #4]
 8004220:	641a      	str	r2, [r3, #64]	@ 0x40

    /* Process Unlocked */
    __HAL_UNLOCK(hi2c);
 8004222:	687b      	ldr	r3, [r7, #4]
 8004224:	2200      	movs	r2, #0
 8004226:	f883 203c 	strb.w	r2, [r3, #60]	@ 0x3c

    return HAL_ERROR;
 800422a:	2301      	movs	r3, #1
 800422c:	e000      	b.n	8004230 <I2C_IsAcknowledgeFailed+0x52>
  }
  return HAL_OK;
 800422e:	2300      	movs	r3, #0
}
 8004230:	4618      	mov	r0, r3
 8004232:	370c      	adds	r7, #12
 8004234:	46bd      	mov	sp, r7
 8004236:	bc80      	pop	{r7}
 8004238:	4770      	bx	lr
	...

0800423c <HAL_RCC_OscConfig>:
  *         supported by this macro. User should request a transition to HSE Off
  *         first and then HSE On or HSE Bypass.
  * @retval HAL status
  */
HAL_StatusTypeDef HAL_RCC_OscConfig(RCC_OscInitTypeDef  *RCC_OscInitStruct)
{
 800423c:	b580      	push	{r7, lr}
 800423e:	b086      	sub	sp, #24
 8004240:	af00      	add	r7, sp, #0
 8004242:	6078      	str	r0, [r7, #4]
  uint32_t tickstart;
  uint32_t pll_config;

  /* Check Null pointer */
  if (RCC_OscInitStruct == NULL)
 8004244:	687b      	ldr	r3, [r7, #4]
 8004246:	2b00      	cmp	r3, #0
 8004248:	d101      	bne.n	800424e <HAL_RCC_OscConfig+0x12>
  {
    return HAL_ERROR;
 800424a:	2301      	movs	r3, #1
 800424c:	e272      	b.n	8004734 <HAL_RCC_OscConfig+0x4f8>

  /* Check the parameters */
  assert_param(IS_RCC_OSCILLATORTYPE(RCC_OscInitStruct->OscillatorType));

  /*------------------------------- HSE Configuration ------------------------*/
  if (((RCC_OscInitStruct->OscillatorType) & RCC_OSCILLATORTYPE_HSE) == RCC_OSCILLATORTYPE_HSE)
 800424e:	687b      	ldr	r3, [r7, #4]
 8004250:	681b      	ldr	r3, [r3, #0]
 8004252:	f003 0301 	and.w	r3, r3, #1
 8004256:	2b00      	cmp	r3, #0
 8004258:	f000 8087 	beq.w	800436a <HAL_RCC_OscConfig+0x12e>
  {
    /* Check the parameters */
    assert_param(IS_RCC_HSE(RCC_OscInitStruct->HSEState));

    /* When the HSE is used as system clock or clock source for PLL in these cases it is not allowed to be disabled */
    if ((__HAL_RCC_GET_SYSCLK_SOURCE() == RCC_SYSCLKSOURCE_STATUS_HSE)
 800425c:	4b92      	ldr	r3, [pc, #584]	@ (80044a8 <HAL_RCC_OscConfig+0x26c>)
 800425e:	685b      	ldr	r3, [r3, #4]
 8004260:	f003 030c 	and.w	r3, r3, #12
 8004264:	2b04      	cmp	r3, #4
 8004266:	d00c      	beq.n	8004282 <HAL_RCC_OscConfig+0x46>
        || ((__HAL_RCC_GET_SYSCLK_SOURCE() == RCC_SYSCLKSOURCE_STATUS_PLLCLK) && (__HAL_RCC_GET_PLL_OSCSOURCE() == RCC_PLLSOURCE_HSE)))
 8004268:	4b8f      	ldr	r3, [pc, #572]	@ (80044a8 <HAL_RCC_OscConfig+0x26c>)
 800426a:	685b      	ldr	r3, [r3, #4]
 800426c:	f003 030c 	and.w	r3, r3, #12
 8004270:	2b08      	cmp	r3, #8
 8004272:	d112      	bne.n	800429a <HAL_RCC_OscConfig+0x5e>
 8004274:	4b8c      	ldr	r3, [pc, #560]	@ (80044a8 <HAL_RCC_OscConfig+0x26c>)
 8004276:	685b      	ldr	r3, [r3, #4]
 8004278:	f403 3380 	and.w	r3, r3, #65536	@ 0x10000
 800427c:	f5b3 3f80 	cmp.w	r3, #65536	@ 0x10000
 8004280:	d10b      	bne.n	800429a <HAL_RCC_OscConfig+0x5e>
    {
      if ((__HAL_RCC_GET_FLAG(RCC_FLAG_HSERDY) != RESET) && (RCC_OscInitStruct->HSEState == RCC_HSE_OFF))
 8004282:	4b89      	ldr	r3, [pc, #548]	@ (80044a8 <HAL_RCC_OscConfig+0x26c>)
 8004284:	681b      	ldr	r3, [r3, #0]
 8004286:	f403 3300 	and.w	r3, r3, #131072	@ 0x20000
 800428a:	2b00      	cmp	r3, #0
 800428c:	d06c      	beq.n	8004368 <HAL_RCC_OscConfig+0x12c>
 800428e:	687b      	ldr	r3, [r7, #4]
 8004290:	685b      	ldr	r3, [r3, #4]
 8004292:	2b00      	cmp	r3, #0
 8004294:	d168      	bne.n	8004368 <HAL_RCC_OscConfig+0x12c>
      {
        return HAL_ERROR;
 8004296:	2301      	movs	r3, #1
 8004298:	e24c      	b.n	8004734 <HAL_RCC_OscConfig+0x4f8>
      }
    }
    else
    {
      /* Set the new HSE configuration ---------------------------------------*/
      __HAL_RCC_HSE_CONFIG(RCC_OscInitStruct->HSEState);
 800429a:	687b      	ldr	r3, [r7, #4]
 800429c:	685b      	ldr	r3, [r3, #4]
 800429e:	f5b3 3f80 	cmp.w	r3, #65536	@ 0x10000
 80042a2:	d106      	bne.n	80042b2 <HAL_RCC_OscConfig+0x76>
 80042a4:	4b80      	ldr	r3, [pc, #512]	@ (80044a8 <HAL_RCC_OscConfig+0x26c>)
 80042a6:	681b      	ldr	r3, [r3, #0]
 80042a8:	4a7f      	ldr	r2, [pc, #508]	@ (80044a8 <HAL_RCC_OscConfig+0x26c>)
 80042aa:	f443 3380 	orr.w	r3, r3, #65536	@ 0x10000
 80042ae:	6013      	str	r3, [r2, #0]
 80042b0:	e02e      	b.n	8004310 <HAL_RCC_OscConfig+0xd4>
 80042b2:	687b      	ldr	r3, [r7, #4]
 80042b4:	685b      	ldr	r3, [r3, #4]
 80042b6:	2b00      	cmp	r3, #0
 80042b8:	d10c      	bne.n	80042d4 <HAL_RCC_OscConfig+0x98>
 80042ba:	4b7b      	ldr	r3, [pc, #492]	@ (80044a8 <HAL_RCC_OscConfig+0x26c>)
 80042bc:	681b      	ldr	r3, [r3, #0]
 80042be:	4a7a      	ldr	r2, [pc, #488]	@ (80044a8 <HAL_RCC_OscConfig+0x26c>)
 80042c0:	f423 3380 	bic.w	r3, r3, #65536	@ 0x10000
 80042c4:	6013      	str	r3, [r2, #0]
 80042c6:	4b78      	ldr	r3, [pc, #480]	@ (80044a8 <HAL_RCC_OscConfig+0x26c>)
 80042c8:	681b      	ldr	r3, [r3, #0]
 80042ca:	4a77      	ldr	r2, [pc, #476]	@ (80044a8 <HAL_RCC_OscConfig+0x26c>)
 80042cc:	f423 2380 	bic.w	r3, r3, #262144	@ 0x40000
 80042d0:	6013      	str	r3, [r2, #0]
 80042d2:	e01d      	b.n	8004310 <HAL_RCC_OscConfig+0xd4>
 80042d4:	687b      	ldr	r3, [r7, #4]
 80042d6:	685b      	ldr	r3, [r3, #4]
 80042d8:	f5b3 2fa0 	cmp.w	r3, #327680	@ 0x50000
 80042dc:	d10c      	bne.n	80042f8 <HAL_RCC_OscConfig+0xbc>
 80042de:	4b72      	ldr	r3, [pc, #456]	@ (80044a8 <HAL_RCC_OscConfig+0x26c>)
 80042e0:	681b      	ldr	r3, [r3, #0]
 80042e2:	4a71      	ldr	r2, [pc, #452]	@ (80044a8 <HAL_RCC_OscConfig+0x26c>)
 80042e4:	f443 2380 	orr.w	r3, r3, #262144	@ 0x40000
 80042e8:	6013      	str	r3, [r2, #0]
 80042ea:	4b6f      	ldr	r3, [pc, #444]	@ (80044a8 <HAL_RCC_OscConfig+0x26c>)
 80042ec:	681b      	ldr	r3, [r3, #0]
 80042ee:	4a6e      	ldr	r2, [pc, #440]	@ (80044a8 <HAL_RCC_OscConfig+0x26c>)
 80042f0:	f443 3380 	orr.w	r3, r3, #65536	@ 0x10000
 80042f4:	6013      	str	r3, [r2, #0]
 80042f6:	e00b      	b.n	8004310 <HAL_RCC_OscConfig+0xd4>
 80042f8:	4b6b      	ldr	r3, [pc, #428]	@ (80044a8 <HAL_RCC_OscConfig+0x26c>)
 80042fa:	681b      	ldr	r3, [r3, #0]
 80042fc:	4a6a      	ldr	r2, [pc, #424]	@ (80044a8 <HAL_RCC_OscConfig+0x26c>)
 80042fe:	f423 3380 	bic.w	r3, r3, #65536	@ 0x10000
 8004302:	6013      	str	r3, [r2, #0]
 8004304:	4b68      	ldr	r3, [pc, #416]	@ (80044a8 <HAL_RCC_OscConfig+0x26c>)
 8004306:	681b      	ldr	r3, [r3, #0]
 8004308:	4a67      	ldr	r2, [pc, #412]	@ (80044a8 <HAL_RCC_OscConfig+0x26c>)
 800430a:	f423 2380 	bic.w	r3, r3, #262144	@ 0x40000
 800430e:	6013      	str	r3, [r2, #0]


      /* Check the HSE State */
      if (RCC_OscInitStruct->HSEState != RCC_HSE_OFF)
 8004310:	687b      	ldr	r3, [r7, #4]
 8004312:	685b      	ldr	r3, [r3, #4]
 8004314:	2b00      	cmp	r3, #0
 8004316:	d013      	beq.n	8004340 <HAL_RCC_OscConfig+0x104>
      {
        /* Get Start Tick */
        tickstart = HAL_GetTick();
 8004318:	f7fd ff72 	bl	8002200 <HAL_GetTick>
 800431c:	6138      	str	r0, [r7, #16]

        /* Wait till HSE is ready */
        while (__HAL_RCC_GET_FLAG(RCC_FLAG_HSERDY) == RESET)
 800431e:	e008      	b.n	8004332 <HAL_RCC_OscConfig+0xf6>
        {
          if ((HAL_GetTick() - tickstart) > HSE_TIMEOUT_VALUE)
 8004320:	f7fd ff6e 	bl	8002200 <HAL_GetTick>
 8004324:	4602      	mov	r2, r0
 8004326:	693b      	ldr	r3, [r7, #16]
 8004328:	1ad3      	subs	r3, r2, r3
 800432a:	2b64      	cmp	r3, #100	@ 0x64
 800432c:	d901      	bls.n	8004332 <HAL_RCC_OscConfig+0xf6>
          {
            return HAL_TIMEOUT;
 800432e:	2303      	movs	r3, #3
 8004330:	e200      	b.n	8004734 <HAL_RCC_OscConfig+0x4f8>
        while (__HAL_RCC_GET_FLAG(RCC_FLAG_HSERDY) == RESET)
 8004332:	4b5d      	ldr	r3, [pc, #372]	@ (80044a8 <HAL_RCC_OscConfig+0x26c>)
 8004334:	681b      	ldr	r3, [r3, #0]
 8004336:	f403 3300 	and.w	r3, r3, #131072	@ 0x20000
 800433a:	2b00      	cmp	r3, #0
 800433c:	d0f0      	beq.n	8004320 <HAL_RCC_OscConfig+0xe4>
 800433e:	e014      	b.n	800436a <HAL_RCC_OscConfig+0x12e>
        }
      }
      else
      {
        /* Get Start Tick */
        tickstart = HAL_GetTick();
 8004340:	f7fd ff5e 	bl	8002200 <HAL_GetTick>
 8004344:	6138      	str	r0, [r7, #16]

        /* Wait till HSE is disabled */
        while (__HAL_RCC_GET_FLAG(RCC_FLAG_HSERDY) != RESET)
 8004346:	e008      	b.n	800435a <HAL_RCC_OscConfig+0x11e>
        {
          if ((HAL_GetTick() - tickstart) > HSE_TIMEOUT_VALUE)
 8004348:	f7fd ff5a 	bl	8002200 <HAL_GetTick>
 800434c:	4602      	mov	r2, r0
 800434e:	693b      	ldr	r3, [r7, #16]
 8004350:	1ad3      	subs	r3, r2, r3
 8004352:	2b64      	cmp	r3, #100	@ 0x64
 8004354:	d901      	bls.n	800435a <HAL_RCC_OscConfig+0x11e>
          {
            return HAL_TIMEOUT;
 8004356:	2303      	movs	r3, #3
 8004358:	e1ec      	b.n	8004734 <HAL_RCC_OscConfig+0x4f8>
        while (__HAL_RCC_GET_FLAG(RCC_FLAG_HSERDY) != RESET)
 800435a:	4b53      	ldr	r3, [pc, #332]	@ (80044a8 <HAL_RCC_OscConfig+0x26c>)
 800435c:	681b      	ldr	r3, [r3, #0]
 800435e:	f403 3300 	and.w	r3, r3, #131072	@ 0x20000
 8004362:	2b00      	cmp	r3, #0
 8004364:	d1f0      	bne.n	8004348 <HAL_RCC_OscConfig+0x10c>
 8004366:	e000      	b.n	800436a <HAL_RCC_OscConfig+0x12e>
      if ((__HAL_RCC_GET_FLAG(RCC_FLAG_HSERDY) != RESET) && (RCC_OscInitStruct->HSEState == RCC_HSE_OFF))
 8004368:	bf00      	nop
        }
      }
    }
  }
  /*----------------------------- HSI Configuration --------------------------*/
  if (((RCC_OscInitStruct->OscillatorType) & RCC_OSCILLATORTYPE_HSI) == RCC_OSCILLATORTYPE_HSI)
 800436a:	687b      	ldr	r3, [r7, #4]
 800436c:	681b      	ldr	r3, [r3, #0]
 800436e:	f003 0302 	and.w	r3, r3, #2
 8004372:	2b00      	cmp	r3, #0
 8004374:	d063      	beq.n	800443e <HAL_RCC_OscConfig+0x202>
    /* Check the parameters */
    assert_param(IS_RCC_HSI(RCC_OscInitStruct->HSIState));
    assert_param(IS_RCC_CALIBRATION_VALUE(RCC_OscInitStruct->HSICalibrationValue));

    /* Check if HSI is used as system clock or as PLL source when PLL is selected as system clock */
    if ((__HAL_RCC_GET_SYSCLK_SOURCE() == RCC_SYSCLKSOURCE_STATUS_HSI)
 8004376:	4b4c      	ldr	r3, [pc, #304]	@ (80044a8 <HAL_RCC_OscConfig+0x26c>)
 8004378:	685b      	ldr	r3, [r3, #4]
 800437a:	f003 030c 	and.w	r3, r3, #12
 800437e:	2b00      	cmp	r3, #0
 8004380:	d00b      	beq.n	800439a <HAL_RCC_OscConfig+0x15e>
        || ((__HAL_RCC_GET_SYSCLK_SOURCE() == RCC_SYSCLKSOURCE_STATUS_PLLCLK) && (__HAL_RCC_GET_PLL_OSCSOURCE() == RCC_PLLSOURCE_HSI_DIV2)))
 8004382:	4b49      	ldr	r3, [pc, #292]	@ (80044a8 <HAL_RCC_OscConfig+0x26c>)
 8004384:	685b      	ldr	r3, [r3, #4]
 8004386:	f003 030c 	and.w	r3, r3, #12
 800438a:	2b08      	cmp	r3, #8
 800438c:	d11c      	bne.n	80043c8 <HAL_RCC_OscConfig+0x18c>
 800438e:	4b46      	ldr	r3, [pc, #280]	@ (80044a8 <HAL_RCC_OscConfig+0x26c>)
 8004390:	685b      	ldr	r3, [r3, #4]
 8004392:	f403 3380 	and.w	r3, r3, #65536	@ 0x10000
 8004396:	2b00      	cmp	r3, #0
 8004398:	d116      	bne.n	80043c8 <HAL_RCC_OscConfig+0x18c>
    {
      /* When HSI is used as system clock it will not disabled */
      if ((__HAL_RCC_GET_FLAG(RCC_FLAG_HSIRDY) != RESET) && (RCC_OscInitStruct->HSIState != RCC_HSI_ON))
 800439a:	4b43      	ldr	r3, [pc, #268]	@ (80044a8 <HAL_RCC_OscConfig+0x26c>)
 800439c:	681b      	ldr	r3, [r3, #0]
 800439e:	f003 0302 	and.w	r3, r3, #2
 80043a2:	2b00      	cmp	r3, #0
 80043a4:	d005      	beq.n	80043b2 <HAL_RCC_OscConfig+0x176>
 80043a6:	687b      	ldr	r3, [r7, #4]
 80043a8:	691b      	ldr	r3, [r3, #16]
 80043aa:	2b01      	cmp	r3, #1
 80043ac:	d001      	beq.n	80043b2 <HAL_RCC_OscConfig+0x176>
      {
        return HAL_ERROR;
 80043ae:	2301      	movs	r3, #1
 80043b0:	e1c0      	b.n	8004734 <HAL_RCC_OscConfig+0x4f8>
      }
      /* Otherwise, just the calibration is allowed */
      else
      {
        /* Adjusts the Internal High Speed oscillator (HSI) calibration value.*/
        __HAL_RCC_HSI_CALIBRATIONVALUE_ADJUST(RCC_OscInitStruct->HSICalibrationValue);
 80043b2:	4b3d      	ldr	r3, [pc, #244]	@ (80044a8 <HAL_RCC_OscConfig+0x26c>)
 80043b4:	681b      	ldr	r3, [r3, #0]
 80043b6:	f023 02f8 	bic.w	r2, r3, #248	@ 0xf8
 80043ba:	687b      	ldr	r3, [r7, #4]
 80043bc:	695b      	ldr	r3, [r3, #20]
 80043be:	00db      	lsls	r3, r3, #3
 80043c0:	4939      	ldr	r1, [pc, #228]	@ (80044a8 <HAL_RCC_OscConfig+0x26c>)
 80043c2:	4313      	orrs	r3, r2
 80043c4:	600b      	str	r3, [r1, #0]
      if ((__HAL_RCC_GET_FLAG(RCC_FLAG_HSIRDY) != RESET) && (RCC_OscInitStruct->HSIState != RCC_HSI_ON))
 80043c6:	e03a      	b.n	800443e <HAL_RCC_OscConfig+0x202>
      }
    }
    else
    {
      /* Check the HSI State */
      if (RCC_OscInitStruct->HSIState != RCC_HSI_OFF)
 80043c8:	687b      	ldr	r3, [r7, #4]
 80043ca:	691b      	ldr	r3, [r3, #16]
 80043cc:	2b00      	cmp	r3, #0
 80043ce:	d020      	beq.n	8004412 <HAL_RCC_OscConfig+0x1d6>
      {
        /* Enable the Internal High Speed oscillator (HSI). */
        __HAL_RCC_HSI_ENABLE();
 80043d0:	4b36      	ldr	r3, [pc, #216]	@ (80044ac <HAL_RCC_OscConfig+0x270>)
 80043d2:	2201      	movs	r2, #1
 80043d4:	601a      	str	r2, [r3, #0]

        /* Get Start Tick */
        tickstart = HAL_GetTick();
 80043d6:	f7fd ff13 	bl	8002200 <HAL_GetTick>
 80043da:	6138      	str	r0, [r7, #16]

        /* Wait till HSI is ready */
        while (__HAL_RCC_GET_FLAG(RCC_FLAG_HSIRDY) == RESET)
 80043dc:	e008      	b.n	80043f0 <HAL_RCC_OscConfig+0x1b4>
        {
          if ((HAL_GetTick() - tickstart) > HSI_TIMEOUT_VALUE)
 80043de:	f7fd ff0f 	bl	8002200 <HAL_GetTick>
 80043e2:	4602      	mov	r2, r0
 80043e4:	693b      	ldr	r3, [r7, #16]
 80043e6:	1ad3      	subs	r3, r2, r3
 80043e8:	2b02      	cmp	r3, #2
 80043ea:	d901      	bls.n	80043f0 <HAL_RCC_OscConfig+0x1b4>
          {
            return HAL_TIMEOUT;
 80043ec:	2303      	movs	r3, #3
 80043ee:	e1a1      	b.n	8004734 <HAL_RCC_OscConfig+0x4f8>
        while (__HAL_RCC_GET_FLAG(RCC_FLAG_HSIRDY) == RESET)
 80043f0:	4b2d      	ldr	r3, [pc, #180]	@ (80044a8 <HAL_RCC_OscConfig+0x26c>)
 80043f2:	681b      	ldr	r3, [r3, #0]
 80043f4:	f003 0302 	and.w	r3, r3, #2
 80043f8:	2b00      	cmp	r3, #0
 80043fa:	d0f0      	beq.n	80043de <HAL_RCC_OscConfig+0x1a2>
          }
        }

        /* Adjusts the Internal High Speed oscillator (HSI) calibration value.*/
        __HAL_RCC_HSI_CALIBRATIONVALUE_ADJUST(RCC_OscInitStruct->HSICalibrationValue);
 80043fc:	4b2a      	ldr	r3, [pc, #168]	@ (80044a8 <HAL_RCC_OscConfig+0x26c>)
 80043fe:	681b      	ldr	r3, [r3, #0]
 8004400:	f023 02f8 	bic.w	r2, r3, #248	@ 0xf8
 8004404:	687b      	ldr	r3, [r7, #4]
 8004406:	695b      	ldr	r3, [r3, #20]
 8004408:	00db      	lsls	r3, r3, #3
 800440a:	4927      	ldr	r1, [pc, #156]	@ (80044a8 <HAL_RCC_OscConfig+0x26c>)
 800440c:	4313      	orrs	r3, r2
 800440e:	600b      	str	r3, [r1, #0]
 8004410:	e015      	b.n	800443e <HAL_RCC_OscConfig+0x202>
      }
      else
      {
        /* Disable the Internal High Speed oscillator (HSI). */
        __HAL_RCC_HSI_DISABLE();
 8004412:	4b26      	ldr	r3, [pc, #152]	@ (80044ac <HAL_RCC_OscConfig+0x270>)
 8004414:	2200      	movs	r2, #0
 8004416:	601a      	str	r2, [r3, #0]

        /* Get Start Tick */
        tickstart = HAL_GetTick();
 8004418:	f7fd fef2 	bl	8002200 <HAL_GetTick>
 800441c:	6138      	str	r0, [r7, #16]

        /* Wait till HSI is disabled */
        while (__HAL_RCC_GET_FLAG(RCC_FLAG_HSIRDY) != RESET)
 800441e:	e008      	b.n	8004432 <HAL_RCC_OscConfig+0x1f6>
        {
          if ((HAL_GetTick() - tickstart) > HSI_TIMEOUT_VALUE)
 8004420:	f7fd feee 	bl	8002200 <HAL_GetTick>
 8004424:	4602      	mov	r2, r0
 8004426:	693b      	ldr	r3, [r7, #16]
 8004428:	1ad3      	subs	r3, r2, r3
 800442a:	2b02      	cmp	r3, #2
 800442c:	d901      	bls.n	8004432 <HAL_RCC_OscConfig+0x1f6>
          {
            return HAL_TIMEOUT;
 800442e:	2303      	movs	r3, #3
 8004430:	e180      	b.n	8004734 <HAL_RCC_OscConfig+0x4f8>
        while (__HAL_RCC_GET_FLAG(RCC_FLAG_HSIRDY) != RESET)
 8004432:	4b1d      	ldr	r3, [pc, #116]	@ (80044a8 <HAL_RCC_OscConfig+0x26c>)
 8004434:	681b      	ldr	r3, [r3, #0]
 8004436:	f003 0302 	and.w	r3, r3, #2
 800443a:	2b00      	cmp	r3, #0
 800443c:	d1f0      	bne.n	8004420 <HAL_RCC_OscConfig+0x1e4>
        }
      }
    }
  }
  /*------------------------------ LSI Configuration -------------------------*/
  if (((RCC_OscInitStruct->OscillatorType) & RCC_OSCILLATORTYPE_LSI) == RCC_OSCILLATORTYPE_LSI)
 800443e:	687b      	ldr	r3, [r7, #4]
 8004440:	681b      	ldr	r3, [r3, #0]
 8004442:	f003 0308 	and.w	r3, r3, #8
 8004446:	2b00      	cmp	r3, #0
 8004448:	d03a      	beq.n	80044c0 <HAL_RCC_OscConfig+0x284>
  {
    /* Check the parameters */
    assert_param(IS_RCC_LSI(RCC_OscInitStruct->LSIState));

    /* Check the LSI State */
    if (RCC_OscInitStruct->LSIState != RCC_LSI_OFF)
 800444a:	687b      	ldr	r3, [r7, #4]
 800444c:	699b      	ldr	r3, [r3, #24]
 800444e:	2b00      	cmp	r3, #0
 8004450:	d019      	beq.n	8004486 <HAL_RCC_OscConfig+0x24a>
    {
      /* Enable the Internal Low Speed oscillator (LSI). */
      __HAL_RCC_LSI_ENABLE();
 8004452:	4b17      	ldr	r3, [pc, #92]	@ (80044b0 <HAL_RCC_OscConfig+0x274>)
 8004454:	2201      	movs	r2, #1
 8004456:	601a      	str	r2, [r3, #0]

      /* Get Start Tick */
      tickstart = HAL_GetTick();
 8004458:	f7fd fed2 	bl	8002200 <HAL_GetTick>
 800445c:	6138      	str	r0, [r7, #16]

      /* Wait till LSI is ready */
      while (__HAL_RCC_GET_FLAG(RCC_FLAG_LSIRDY) == RESET)
 800445e:	e008      	b.n	8004472 <HAL_RCC_OscConfig+0x236>
      {
        if ((HAL_GetTick() - tickstart) > LSI_TIMEOUT_VALUE)
 8004460:	f7fd fece 	bl	8002200 <HAL_GetTick>
 8004464:	4602      	mov	r2, r0
 8004466:	693b      	ldr	r3, [r7, #16]
 8004468:	1ad3      	subs	r3, r2, r3
 800446a:	2b02      	cmp	r3, #2
 800446c:	d901      	bls.n	8004472 <HAL_RCC_OscConfig+0x236>
        {
          return HAL_TIMEOUT;
 800446e:	2303      	movs	r3, #3
 8004470:	e160      	b.n	8004734 <HAL_RCC_OscConfig+0x4f8>
      while (__HAL_RCC_GET_FLAG(RCC_FLAG_LSIRDY) == RESET)
 8004472:	4b0d      	ldr	r3, [pc, #52]	@ (80044a8 <HAL_RCC_OscConfig+0x26c>)
 8004474:	6a5b      	ldr	r3, [r3, #36]	@ 0x24
 8004476:	f003 0302 	and.w	r3, r3, #2
 800447a:	2b00      	cmp	r3, #0
 800447c:	d0f0      	beq.n	8004460 <HAL_RCC_OscConfig+0x224>
        }
      }
      /*  To have a fully stabilized clock in the specified range, a software delay of 1ms
          should be added.*/
      RCC_Delay(1);
 800447e:	2001      	movs	r0, #1
 8004480:	f000 face 	bl	8004a20 <RCC_Delay>
 8004484:	e01c      	b.n	80044c0 <HAL_RCC_OscConfig+0x284>
    }
    else
    {
      /* Disable the Internal Low Speed oscillator (LSI). */
      __HAL_RCC_LSI_DISABLE();
 8004486:	4b0a      	ldr	r3, [pc, #40]	@ (80044b0 <HAL_RCC_OscConfig+0x274>)
 8004488:	2200      	movs	r2, #0
 800448a:	601a      	str	r2, [r3, #0]

      /* Get Start Tick */
      tickstart = HAL_GetTick();
 800448c:	f7fd feb8 	bl	8002200 <HAL_GetTick>
 8004490:	6138      	str	r0, [r7, #16]

      /* Wait till LSI is disabled */
      while (__HAL_RCC_GET_FLAG(RCC_FLAG_LSIRDY) != RESET)
 8004492:	e00f      	b.n	80044b4 <HAL_RCC_OscConfig+0x278>
      {
        if ((HAL_GetTick() - tickstart) > LSI_TIMEOUT_VALUE)
 8004494:	f7fd feb4 	bl	8002200 <HAL_GetTick>
 8004498:	4602      	mov	r2, r0
 800449a:	693b      	ldr	r3, [r7, #16]
 800449c:	1ad3      	subs	r3, r2, r3
 800449e:	2b02      	cmp	r3, #2
 80044a0:	d908      	bls.n	80044b4 <HAL_RCC_OscConfig+0x278>
        {
          return HAL_TIMEOUT;
 80044a2:	2303      	movs	r3, #3
 80044a4:	e146      	b.n	8004734 <HAL_RCC_OscConfig+0x4f8>
 80044a6:	bf00      	nop
 80044a8:	40021000 	.word	0x40021000
 80044ac:	42420000 	.word	0x42420000
 80044b0:	42420480 	.word	0x42420480
      while (__HAL_RCC_GET_FLAG(RCC_FLAG_LSIRDY) != RESET)
 80044b4:	4b92      	ldr	r3, [pc, #584]	@ (8004700 <HAL_RCC_OscConfig+0x4c4>)
 80044b6:	6a5b      	ldr	r3, [r3, #36]	@ 0x24
 80044b8:	f003 0302 	and.w	r3, r3, #2
 80044bc:	2b00      	cmp	r3, #0
 80044be:	d1e9      	bne.n	8004494 <HAL_RCC_OscConfig+0x258>
        }
      }
    }
  }
  /*------------------------------ LSE Configuration -------------------------*/
  if (((RCC_OscInitStruct->OscillatorType) & RCC_OSCILLATORTYPE_LSE) == RCC_OSCILLATORTYPE_LSE)
 80044c0:	687b      	ldr	r3, [r7, #4]
 80044c2:	681b      	ldr	r3, [r3, #0]
 80044c4:	f003 0304 	and.w	r3, r3, #4
 80044c8:	2b00      	cmp	r3, #0
 80044ca:	f000 80a6 	beq.w	800461a <HAL_RCC_OscConfig+0x3de>
  {
    FlagStatus       pwrclkchanged = RESET;
 80044ce:	2300      	movs	r3, #0
 80044d0:	75fb      	strb	r3, [r7, #23]
    /* Check the parameters */
    assert_param(IS_RCC_LSE(RCC_OscInitStruct->LSEState));

    /* Update LSE configuration in Backup Domain control register    */
    /* Requires to enable write access to Backup Domain of necessary */
    if (__HAL_RCC_PWR_IS_CLK_DISABLED())
 80044d2:	4b8b      	ldr	r3, [pc, #556]	@ (8004700 <HAL_RCC_OscConfig+0x4c4>)
 80044d4:	69db      	ldr	r3, [r3, #28]
 80044d6:	f003 5380 	and.w	r3, r3, #268435456	@ 0x10000000
 80044da:	2b00      	cmp	r3, #0
 80044dc:	d10d      	bne.n	80044fa <HAL_RCC_OscConfig+0x2be>
    {
      __HAL_RCC_PWR_CLK_ENABLE();
 80044de:	4b88      	ldr	r3, [pc, #544]	@ (8004700 <HAL_RCC_OscConfig+0x4c4>)
 80044e0:	69db      	ldr	r3, [r3, #28]
 80044e2:	4a87      	ldr	r2, [pc, #540]	@ (8004700 <HAL_RCC_OscConfig+0x4c4>)
 80044e4:	f043 5380 	orr.w	r3, r3, #268435456	@ 0x10000000
 80044e8:	61d3      	str	r3, [r2, #28]
 80044ea:	4b85      	ldr	r3, [pc, #532]	@ (8004700 <HAL_RCC_OscConfig+0x4c4>)
 80044ec:	69db      	ldr	r3, [r3, #28]
 80044ee:	f003 5380 	and.w	r3, r3, #268435456	@ 0x10000000
 80044f2:	60bb      	str	r3, [r7, #8]
 80044f4:	68bb      	ldr	r3, [r7, #8]
      pwrclkchanged = SET;
 80044f6:	2301      	movs	r3, #1
 80044f8:	75fb      	strb	r3, [r7, #23]
    }

    if (HAL_IS_BIT_CLR(PWR->CR, PWR_CR_DBP))
 80044fa:	4b82      	ldr	r3, [pc, #520]	@ (8004704 <HAL_RCC_OscConfig+0x4c8>)
 80044fc:	681b      	ldr	r3, [r3, #0]
 80044fe:	f403 7380 	and.w	r3, r3, #256	@ 0x100
 8004502:	2b00      	cmp	r3, #0
 8004504:	d118      	bne.n	8004538 <HAL_RCC_OscConfig+0x2fc>
    {
      /* Enable write access to Backup domain */
      SET_BIT(PWR->CR, PWR_CR_DBP);
 8004506:	4b7f      	ldr	r3, [pc, #508]	@ (8004704 <HAL_RCC_OscConfig+0x4c8>)
 8004508:	681b      	ldr	r3, [r3, #0]
 800450a:	4a7e      	ldr	r2, [pc, #504]	@ (8004704 <HAL_RCC_OscConfig+0x4c8>)
 800450c:	f443 7380 	orr.w	r3, r3, #256	@ 0x100
 8004510:	6013      	str	r3, [r2, #0]

      /* Wait for Backup domain Write protection disable */
      tickstart = HAL_GetTick();
 8004512:	f7fd fe75 	bl	8002200 <HAL_GetTick>
 8004516:	6138      	str	r0, [r7, #16]

      while (HAL_IS_BIT_CLR(PWR->CR, PWR_CR_DBP))
 8004518:	e008      	b.n	800452c <HAL_RCC_OscConfig+0x2f0>
      {
        if ((HAL_GetTick() - tickstart) > RCC_DBP_TIMEOUT_VALUE)
 800451a:	f7fd fe71 	bl	8002200 <HAL_GetTick>
 800451e:	4602      	mov	r2, r0
 8004520:	693b      	ldr	r3, [r7, #16]
 8004522:	1ad3      	subs	r3, r2, r3
 8004524:	2b64      	cmp	r3, #100	@ 0x64
 8004526:	d901      	bls.n	800452c <HAL_RCC_OscConfig+0x2f0>
        {
          return HAL_TIMEOUT;
 8004528:	2303      	movs	r3, #3
 800452a:	e103      	b.n	8004734 <HAL_RCC_OscConfig+0x4f8>
      while (HAL_IS_BIT_CLR(PWR->CR, PWR_CR_DBP))
 800452c:	4b75      	ldr	r3, [pc, #468]	@ (8004704 <HAL_RCC_OscConfig+0x4c8>)
 800452e:	681b      	ldr	r3, [r3, #0]
 8004530:	f403 7380 	and.w	r3, r3, #256	@ 0x100
 8004534:	2b00      	cmp	r3, #0
 8004536:	d0f0      	beq.n	800451a <HAL_RCC_OscConfig+0x2de>
        }
      }
    }

    /* Set the new LSE configuration -----------------------------------------*/
    __HAL_RCC_LSE_CONFIG(RCC_OscInitStruct->LSEState);
 8004538:	687b      	ldr	r3, [r7, #4]
 800453a:	68db      	ldr	r3, [r3, #12]
 800453c:	2b01      	cmp	r3, #1
 800453e:	d106      	bne.n	800454e <HAL_RCC_OscConfig+0x312>
 8004540:	4b6f      	ldr	r3, [pc, #444]	@ (8004700 <HAL_RCC_OscConfig+0x4c4>)
 8004542:	6a1b      	ldr	r3, [r3, #32]
 8004544:	4a6e      	ldr	r2, [pc, #440]	@ (8004700 <HAL_RCC_OscConfig+0x4c4>)
 8004546:	f043 0301 	orr.w	r3, r3, #1
 800454a:	6213      	str	r3, [r2, #32]
 800454c:	e02d      	b.n	80045aa <HAL_RCC_OscConfig+0x36e>
 800454e:	687b      	ldr	r3, [r7, #4]
 8004550:	68db      	ldr	r3, [r3, #12]
 8004552:	2b00      	cmp	r3, #0
 8004554:	d10c      	bne.n	8004570 <HAL_RCC_OscConfig+0x334>
 8004556:	4b6a      	ldr	r3, [pc, #424]	@ (8004700 <HAL_RCC_OscConfig+0x4c4>)
 8004558:	6a1b      	ldr	r3, [r3, #32]
 800455a:	4a69      	ldr	r2, [pc, #420]	@ (8004700 <HAL_RCC_OscConfig+0x4c4>)
 800455c:	f023 0301 	bic.w	r3, r3, #1
 8004560:	6213      	str	r3, [r2, #32]
 8004562:	4b67      	ldr	r3, [pc, #412]	@ (8004700 <HAL_RCC_OscConfig+0x4c4>)
 8004564:	6a1b      	ldr	r3, [r3, #32]
 8004566:	4a66      	ldr	r2, [pc, #408]	@ (8004700 <HAL_RCC_OscConfig+0x4c4>)
 8004568:	f023 0304 	bic.w	r3, r3, #4
 800456c:	6213      	str	r3, [r2, #32]
 800456e:	e01c      	b.n	80045aa <HAL_RCC_OscConfig+0x36e>
 8004570:	687b      	ldr	r3, [r7, #4]
 8004572:	68db      	ldr	r3, [r3, #12]
 8004574:	2b05      	cmp	r3, #5
 8004576:	d10c      	bne.n	8004592 <HAL_RCC_OscConfig+0x356>
 8004578:	4b61      	ldr	r3, [pc, #388]	@ (8004700 <HAL_RCC_OscConfig+0x4c4>)
 800457a:	6a1b      	ldr	r3, [r3, #32]
 800457c:	4a60      	ldr	r2, [pc, #384]	@ (8004700 <HAL_RCC_OscConfig+0x4c4>)
 800457e:	f043 0304 	orr.w	r3, r3, #4
 8004582:	6213      	str	r3, [r2, #32]
 8004584:	4b5e      	ldr	r3, [pc, #376]	@ (8004700 <HAL_RCC_OscConfig+0x4c4>)
 8004586:	6a1b      	ldr	r3, [r3, #32]
 8004588:	4a5d      	ldr	r2, [pc, #372]	@ (8004700 <HAL_RCC_OscConfig+0x4c4>)
 800458a:	f043 0301 	orr.w	r3, r3, #1
 800458e:	6213      	str	r3, [r2, #32]
 8004590:	e00b      	b.n	80045aa <HAL_RCC_OscConfig+0x36e>
 8004592:	4b5b      	ldr	r3, [pc, #364]	@ (8004700 <HAL_RCC_OscConfig+0x4c4>)
 8004594:	6a1b      	ldr	r3, [r3, #32]
 8004596:	4a5a      	ldr	r2, [pc, #360]	@ (8004700 <HAL_RCC_OscConfig+0x4c4>)
 8004598:	f023 0301 	bic.w	r3, r3, #1
 800459c:	6213      	str	r3, [r2, #32]
 800459e:	4b58      	ldr	r3, [pc, #352]	@ (8004700 <HAL_RCC_OscConfig+0x4c4>)
 80045a0:	6a1b      	ldr	r3, [r3, #32]
 80045a2:	4a57      	ldr	r2, [pc, #348]	@ (8004700 <HAL_RCC_OscConfig+0x4c4>)
 80045a4:	f023 0304 	bic.w	r3, r3, #4
 80045a8:	6213      	str	r3, [r2, #32]
    /* Check the LSE State */
    if (RCC_OscInitStruct->LSEState != RCC_LSE_OFF)
 80045aa:	687b      	ldr	r3, [r7, #4]
 80045ac:	68db      	ldr	r3, [r3, #12]
 80045ae:	2b00      	cmp	r3, #0
 80045b0:	d015      	beq.n	80045de <HAL_RCC_OscConfig+0x3a2>
    {
      /* Get Start Tick */
      tickstart = HAL_GetTick();
 80045b2:	f7fd fe25 	bl	8002200 <HAL_GetTick>
 80045b6:	6138      	str	r0, [r7, #16]

      /* Wait till LSE is ready */
      while (__HAL_RCC_GET_FLAG(RCC_FLAG_LSERDY) == RESET)
 80045b8:	e00a      	b.n	80045d0 <HAL_RCC_OscConfig+0x394>
      {
        if ((HAL_GetTick() - tickstart) > RCC_LSE_TIMEOUT_VALUE)
 80045ba:	f7fd fe21 	bl	8002200 <HAL_GetTick>
 80045be:	4602      	mov	r2, r0
 80045c0:	693b      	ldr	r3, [r7, #16]
 80045c2:	1ad3      	subs	r3, r2, r3
 80045c4:	f241 3288 	movw	r2, #5000	@ 0x1388
 80045c8:	4293      	cmp	r3, r2
 80045ca:	d901      	bls.n	80045d0 <HAL_RCC_OscConfig+0x394>
        {
          return HAL_TIMEOUT;
 80045cc:	2303      	movs	r3, #3
 80045ce:	e0b1      	b.n	8004734 <HAL_RCC_OscConfig+0x4f8>
      while (__HAL_RCC_GET_FLAG(RCC_FLAG_LSERDY) == RESET)
 80045d0:	4b4b      	ldr	r3, [pc, #300]	@ (8004700 <HAL_RCC_OscConfig+0x4c4>)
 80045d2:	6a1b      	ldr	r3, [r3, #32]
 80045d4:	f003 0302 	and.w	r3, r3, #2
 80045d8:	2b00      	cmp	r3, #0
 80045da:	d0ee      	beq.n	80045ba <HAL_RCC_OscConfig+0x37e>
 80045dc:	e014      	b.n	8004608 <HAL_RCC_OscConfig+0x3cc>
      }
    }
    else
    {
      /* Get Start Tick */
      tickstart = HAL_GetTick();
 80045de:	f7fd fe0f 	bl	8002200 <HAL_GetTick>
 80045e2:	6138      	str	r0, [r7, #16]

      /* Wait till LSE is disabled */
      while (__HAL_RCC_GET_FLAG(RCC_FLAG_LSERDY) != RESET)
 80045e4:	e00a      	b.n	80045fc <HAL_RCC_OscConfig+0x3c0>
      {
        if ((HAL_GetTick() - tickstart) > RCC_LSE_TIMEOUT_VALUE)
 80045e6:	f7fd fe0b 	bl	8002200 <HAL_GetTick>
 80045ea:	4602      	mov	r2, r0
 80045ec:	693b      	ldr	r3, [r7, #16]
 80045ee:	1ad3      	subs	r3, r2, r3
 80045f0:	f241 3288 	movw	r2, #5000	@ 0x1388
 80045f4:	4293      	cmp	r3, r2
 80045f6:	d901      	bls.n	80045fc <HAL_RCC_OscConfig+0x3c0>
        {
          return HAL_TIMEOUT;
 80045f8:	2303      	movs	r3, #3
 80045fa:	e09b      	b.n	8004734 <HAL_RCC_OscConfig+0x4f8>
      while (__HAL_RCC_GET_FLAG(RCC_FLAG_LSERDY) != RESET)
 80045fc:	4b40      	ldr	r3, [pc, #256]	@ (8004700 <HAL_RCC_OscConfig+0x4c4>)
 80045fe:	6a1b      	ldr	r3, [r3, #32]
 8004600:	f003 0302 	and.w	r3, r3, #2
 8004604:	2b00      	cmp	r3, #0
 8004606:	d1ee      	bne.n	80045e6 <HAL_RCC_OscConfig+0x3aa>
        }
      }
    }

    /* Require to disable power clock if necessary */
    if (pwrclkchanged == SET)
 8004608:	7dfb      	ldrb	r3, [r7, #23]
 800460a:	2b01      	cmp	r3, #1
 800460c:	d105      	bne.n	800461a <HAL_RCC_OscConfig+0x3de>
    {
      __HAL_RCC_PWR_CLK_DISABLE();
 800460e:	4b3c      	ldr	r3, [pc, #240]	@ (8004700 <HAL_RCC_OscConfig+0x4c4>)
 8004610:	69db      	ldr	r3, [r3, #28]
 8004612:	4a3b      	ldr	r2, [pc, #236]	@ (8004700 <HAL_RCC_OscConfig+0x4c4>)
 8004614:	f023 5380 	bic.w	r3, r3, #268435456	@ 0x10000000
 8004618:	61d3      	str	r3, [r2, #28]

#endif /* RCC_CR_PLL2ON */
  /*-------------------------------- PLL Configuration -----------------------*/
  /* Check the parameters */
  assert_param(IS_RCC_PLL(RCC_OscInitStruct->PLL.PLLState));
  if ((RCC_OscInitStruct->PLL.PLLState) != RCC_PLL_NONE)
 800461a:	687b      	ldr	r3, [r7, #4]
 800461c:	69db      	ldr	r3, [r3, #28]
 800461e:	2b00      	cmp	r3, #0
 8004620:	f000 8087 	beq.w	8004732 <HAL_RCC_OscConfig+0x4f6>
  {
    /* Check if the PLL is used as system clock or not */
    if (__HAL_RCC_GET_SYSCLK_SOURCE() != RCC_SYSCLKSOURCE_STATUS_PLLCLK)
 8004624:	4b36      	ldr	r3, [pc, #216]	@ (8004700 <HAL_RCC_OscConfig+0x4c4>)
 8004626:	685b      	ldr	r3, [r3, #4]
 8004628:	f003 030c 	and.w	r3, r3, #12
 800462c:	2b08      	cmp	r3, #8
 800462e:	d061      	beq.n	80046f4 <HAL_RCC_OscConfig+0x4b8>
    {
      if ((RCC_OscInitStruct->PLL.PLLState) == RCC_PLL_ON)
 8004630:	687b      	ldr	r3, [r7, #4]
 8004632:	69db      	ldr	r3, [r3, #28]
 8004634:	2b02      	cmp	r3, #2
 8004636:	d146      	bne.n	80046c6 <HAL_RCC_OscConfig+0x48a>
        /* Check the parameters */
        assert_param(IS_RCC_PLLSOURCE(RCC_OscInitStruct->PLL.PLLSource));
        assert_param(IS_RCC_PLL_MUL(RCC_OscInitStruct->PLL.PLLMUL));

        /* Disable the main PLL. */
        __HAL_RCC_PLL_DISABLE();
 8004638:	4b33      	ldr	r3, [pc, #204]	@ (8004708 <HAL_RCC_OscConfig+0x4cc>)
 800463a:	2200      	movs	r2, #0
 800463c:	601a      	str	r2, [r3, #0]

        /* Get Start Tick */
        tickstart = HAL_GetTick();
 800463e:	f7fd fddf 	bl	8002200 <HAL_GetTick>
 8004642:	6138      	str	r0, [r7, #16]

        /* Wait till PLL is disabled */
        while (__HAL_RCC_GET_FLAG(RCC_FLAG_PLLRDY)  != RESET)
 8004644:	e008      	b.n	8004658 <HAL_RCC_OscConfig+0x41c>
        {
          if ((HAL_GetTick() - tickstart) > PLL_TIMEOUT_VALUE)
 8004646:	f7fd fddb 	bl	8002200 <HAL_GetTick>
 800464a:	4602      	mov	r2, r0
 800464c:	693b      	ldr	r3, [r7, #16]
 800464e:	1ad3      	subs	r3, r2, r3
 8004650:	2b02      	cmp	r3, #2
 8004652:	d901      	bls.n	8004658 <HAL_RCC_OscConfig+0x41c>
          {
            return HAL_TIMEOUT;
 8004654:	2303      	movs	r3, #3
 8004656:	e06d      	b.n	8004734 <HAL_RCC_OscConfig+0x4f8>
        while (__HAL_RCC_GET_FLAG(RCC_FLAG_PLLRDY)  != RESET)
 8004658:	4b29      	ldr	r3, [pc, #164]	@ (8004700 <HAL_RCC_OscConfig+0x4c4>)
 800465a:	681b      	ldr	r3, [r3, #0]
 800465c:	f003 7300 	and.w	r3, r3, #33554432	@ 0x2000000
 8004660:	2b00      	cmp	r3, #0
 8004662:	d1f0      	bne.n	8004646 <HAL_RCC_OscConfig+0x40a>
          }
        }

        /* Configure the HSE prediv factor --------------------------------*/
        /* It can be written only when the PLL is disabled. Not used in PLL source is different than HSE */
        if (RCC_OscInitStruct->PLL.PLLSource == RCC_PLLSOURCE_HSE)
 8004664:	687b      	ldr	r3, [r7, #4]
 8004666:	6a1b      	ldr	r3, [r3, #32]
 8004668:	f5b3 3f80 	cmp.w	r3, #65536	@ 0x10000
 800466c:	d108      	bne.n	8004680 <HAL_RCC_OscConfig+0x444>
          /* Set PREDIV1 source */
          SET_BIT(RCC->CFGR2, RCC_OscInitStruct->Prediv1Source);
#endif /* RCC_CFGR2_PREDIV1SRC */

          /* Set PREDIV1 Value */
          __HAL_RCC_HSE_PREDIV_CONFIG(RCC_OscInitStruct->HSEPredivValue);
 800466e:	4b24      	ldr	r3, [pc, #144]	@ (8004700 <HAL_RCC_OscConfig+0x4c4>)
 8004670:	685b      	ldr	r3, [r3, #4]
 8004672:	f423 3200 	bic.w	r2, r3, #131072	@ 0x20000
 8004676:	687b      	ldr	r3, [r7, #4]
 8004678:	689b      	ldr	r3, [r3, #8]
 800467a:	4921      	ldr	r1, [pc, #132]	@ (8004700 <HAL_RCC_OscConfig+0x4c4>)
 800467c:	4313      	orrs	r3, r2
 800467e:	604b      	str	r3, [r1, #4]
        }

        /* Configure the main PLL clock source and multiplication factors. */
        __HAL_RCC_PLL_CONFIG(RCC_OscInitStruct->PLL.PLLSource,
 8004680:	4b1f      	ldr	r3, [pc, #124]	@ (8004700 <HAL_RCC_OscConfig+0x4c4>)
 8004682:	685b      	ldr	r3, [r3, #4]
 8004684:	f423 1274 	bic.w	r2, r3, #3997696	@ 0x3d0000
 8004688:	687b      	ldr	r3, [r7, #4]
 800468a:	6a19      	ldr	r1, [r3, #32]
 800468c:	687b      	ldr	r3, [r7, #4]
 800468e:	6a5b      	ldr	r3, [r3, #36]	@ 0x24
 8004690:	430b      	orrs	r3, r1
 8004692:	491b      	ldr	r1, [pc, #108]	@ (8004700 <HAL_RCC_OscConfig+0x4c4>)
 8004694:	4313      	orrs	r3, r2
 8004696:	604b      	str	r3, [r1, #4]
                             RCC_OscInitStruct->PLL.PLLMUL);
        /* Enable the main PLL. */
        __HAL_RCC_PLL_ENABLE();
 8004698:	4b1b      	ldr	r3, [pc, #108]	@ (8004708 <HAL_RCC_OscConfig+0x4cc>)
 800469a:	2201      	movs	r2, #1
 800469c:	601a      	str	r2, [r3, #0]

        /* Get Start Tick */
        tickstart = HAL_GetTick();
 800469e:	f7fd fdaf 	bl	8002200 <HAL_GetTick>
 80046a2:	6138      	str	r0, [r7, #16]

        /* Wait till PLL is ready */
        while (__HAL_RCC_GET_FLAG(RCC_FLAG_PLLRDY)  == RESET)
 80046a4:	e008      	b.n	80046b8 <HAL_RCC_OscConfig+0x47c>
        {
          if ((HAL_GetTick() - tickstart) > PLL_TIMEOUT_VALUE)
 80046a6:	f7fd fdab 	bl	8002200 <HAL_GetTick>
 80046aa:	4602      	mov	r2, r0
 80046ac:	693b      	ldr	r3, [r7, #16]
 80046ae:	1ad3      	subs	r3, r2, r3
 80046b0:	2b02      	cmp	r3, #2
 80046b2:	d901      	bls.n	80046b8 <HAL_RCC_OscConfig+0x47c>
          {
            return HAL_TIMEOUT;
 80046b4:	2303      	movs	r3, #3
 80046b6:	e03d      	b.n	8004734 <HAL_RCC_OscConfig+0x4f8>
        while (__HAL_RCC_GET_FLAG(RCC_FLAG_PLLRDY)  == RESET)
 80046b8:	4b11      	ldr	r3, [pc, #68]	@ (8004700 <HAL_RCC_OscConfig+0x4c4>)
 80046ba:	681b      	ldr	r3, [r3, #0]
 80046bc:	f003 7300 	and.w	r3, r3, #33554432	@ 0x2000000
 80046c0:	2b00      	cmp	r3, #0
 80046c2:	d0f0      	beq.n	80046a6 <HAL_RCC_OscConfig+0x46a>
 80046c4:	e035      	b.n	8004732 <HAL_RCC_OscConfig+0x4f6>
        }
      }
      else
      {
        /* Disable the main PLL. */
        __HAL_RCC_PLL_DISABLE();
 80046c6:	4b10      	ldr	r3, [pc, #64]	@ (8004708 <HAL_RCC_OscConfig+0x4cc>)
 80046c8:	2200      	movs	r2, #0
 80046ca:	601a      	str	r2, [r3, #0]

        /* Get Start Tick */
        tickstart = HAL_GetTick();
 80046cc:	f7fd fd98 	bl	8002200 <HAL_GetTick>
 80046d0:	6138      	str	r0, [r7, #16]

        /* Wait till PLL is disabled */
        while (__HAL_RCC_GET_FLAG(RCC_FLAG_PLLRDY)  != RESET)
 80046d2:	e008      	b.n	80046e6 <HAL_RCC_OscConfig+0x4aa>
        {
          if ((HAL_GetTick() - tickstart) > PLL_TIMEOUT_VALUE)
 80046d4:	f7fd fd94 	bl	8002200 <HAL_GetTick>
 80046d8:	4602      	mov	r2, r0
 80046da:	693b      	ldr	r3, [r7, #16]
 80046dc:	1ad3      	subs	r3, r2, r3
 80046de:	2b02      	cmp	r3, #2
 80046e0:	d901      	bls.n	80046e6 <HAL_RCC_OscConfig+0x4aa>
          {
            return HAL_TIMEOUT;
 80046e2:	2303      	movs	r3, #3
 80046e4:	e026      	b.n	8004734 <HAL_RCC_OscConfig+0x4f8>
        while (__HAL_RCC_GET_FLAG(RCC_FLAG_PLLRDY)  != RESET)
 80046e6:	4b06      	ldr	r3, [pc, #24]	@ (8004700 <HAL_RCC_OscConfig+0x4c4>)
 80046e8:	681b      	ldr	r3, [r3, #0]
 80046ea:	f003 7300 	and.w	r3, r3, #33554432	@ 0x2000000
 80046ee:	2b00      	cmp	r3, #0
 80046f0:	d1f0      	bne.n	80046d4 <HAL_RCC_OscConfig+0x498>
 80046f2:	e01e      	b.n	8004732 <HAL_RCC_OscConfig+0x4f6>
      }
    }
    else
    {
      /* Check if there is a request to disable the PLL used as System clock source */
      if ((RCC_OscInitStruct->PLL.PLLState) == RCC_PLL_OFF)
 80046f4:	687b      	ldr	r3, [r7, #4]
 80046f6:	69db      	ldr	r3, [r3, #28]
 80046f8:	2b01      	cmp	r3, #1
 80046fa:	d107      	bne.n	800470c <HAL_RCC_OscConfig+0x4d0>
      {
        return HAL_ERROR;
 80046fc:	2301      	movs	r3, #1
 80046fe:	e019      	b.n	8004734 <HAL_RCC_OscConfig+0x4f8>
 8004700:	40021000 	.word	0x40021000
 8004704:	40007000 	.word	0x40007000
 8004708:	42420060 	.word	0x42420060
      }
      else
      {
        /* Do not return HAL_ERROR if request repeats the current configuration */
        pll_config = RCC->CFGR;
 800470c:	4b0b      	ldr	r3, [pc, #44]	@ (800473c <HAL_RCC_OscConfig+0x500>)
 800470e:	685b      	ldr	r3, [r3, #4]
 8004710:	60fb      	str	r3, [r7, #12]
        if ((READ_BIT(pll_config, RCC_CFGR_PLLSRC) != RCC_OscInitStruct->PLL.PLLSource) ||
 8004712:	68fb      	ldr	r3, [r7, #12]
 8004714:	f403 3280 	and.w	r2, r3, #65536	@ 0x10000
 8004718:	687b      	ldr	r3, [r7, #4]
 800471a:	6a1b      	ldr	r3, [r3, #32]
 800471c:	429a      	cmp	r2, r3
 800471e:	d106      	bne.n	800472e <HAL_RCC_OscConfig+0x4f2>
            (READ_BIT(pll_config, RCC_CFGR_PLLMULL) != RCC_OscInitStruct->PLL.PLLMUL))
 8004720:	68fb      	ldr	r3, [r7, #12]
 8004722:	f403 1270 	and.w	r2, r3, #3932160	@ 0x3c0000
 8004726:	687b      	ldr	r3, [r7, #4]
 8004728:	6a5b      	ldr	r3, [r3, #36]	@ 0x24
        if ((READ_BIT(pll_config, RCC_CFGR_PLLSRC) != RCC_OscInitStruct->PLL.PLLSource) ||
 800472a:	429a      	cmp	r2, r3
 800472c:	d001      	beq.n	8004732 <HAL_RCC_OscConfig+0x4f6>
        {
          return HAL_ERROR;
 800472e:	2301      	movs	r3, #1
 8004730:	e000      	b.n	8004734 <HAL_RCC_OscConfig+0x4f8>
        }
      }
    }
  }

  return HAL_OK;
 8004732:	2300      	movs	r3, #0
}
 8004734:	4618      	mov	r0, r3
 8004736:	3718      	adds	r7, #24
 8004738:	46bd      	mov	sp, r7
 800473a:	bd80      	pop	{r7, pc}
 800473c:	40021000 	.word	0x40021000

08004740 <HAL_RCC_ClockConfig>:
  *         You can use @ref HAL_RCC_GetClockConfig() function to know which clock is
  *         currently used as system clock source.
  * @retval HAL status
  */
HAL_StatusTypeDef HAL_RCC_ClockConfig(RCC_ClkInitTypeDef  *RCC_ClkInitStruct, uint32_t FLatency)
{
 8004740:	b580      	push	{r7, lr}
 8004742:	b084      	sub	sp, #16
 8004744:	af00      	add	r7, sp, #0
 8004746:	6078      	str	r0, [r7, #4]
 8004748:	6039      	str	r1, [r7, #0]
  uint32_t tickstart;

  /* Check Null pointer */
  if (RCC_ClkInitStruct == NULL)
 800474a:	687b      	ldr	r3, [r7, #4]
 800474c:	2b00      	cmp	r3, #0
 800474e:	d101      	bne.n	8004754 <HAL_RCC_ClockConfig+0x14>
  {
    return HAL_ERROR;
 8004750:	2301      	movs	r3, #1
 8004752:	e0d0      	b.n	80048f6 <HAL_RCC_ClockConfig+0x1b6>
  must be correctly programmed according to the frequency of the CPU clock
    (HCLK) of the device. */

#if defined(FLASH_ACR_LATENCY)
  /* Increasing the number of wait states because of higher CPU frequency */
  if (FLatency > __HAL_FLASH_GET_LATENCY())
 8004754:	4b6a      	ldr	r3, [pc, #424]	@ (8004900 <HAL_RCC_ClockConfig+0x1c0>)
 8004756:	681b      	ldr	r3, [r3, #0]
 8004758:	f003 0307 	and.w	r3, r3, #7
 800475c:	683a      	ldr	r2, [r7, #0]
 800475e:	429a      	cmp	r2, r3
 8004760:	d910      	bls.n	8004784 <HAL_RCC_ClockConfig+0x44>
  {
    /* Program the new number of wait states to the LATENCY bits in the FLASH_ACR register */
    __HAL_FLASH_SET_LATENCY(FLatency);
 8004762:	4b67      	ldr	r3, [pc, #412]	@ (8004900 <HAL_RCC_ClockConfig+0x1c0>)
 8004764:	681b      	ldr	r3, [r3, #0]
 8004766:	f023 0207 	bic.w	r2, r3, #7
 800476a:	4965      	ldr	r1, [pc, #404]	@ (8004900 <HAL_RCC_ClockConfig+0x1c0>)
 800476c:	683b      	ldr	r3, [r7, #0]
 800476e:	4313      	orrs	r3, r2
 8004770:	600b      	str	r3, [r1, #0]

    /* Check that the new number of wait states is taken into account to access the Flash
    memory by reading the FLASH_ACR register */
    if (__HAL_FLASH_GET_LATENCY() != FLatency)
 8004772:	4b63      	ldr	r3, [pc, #396]	@ (8004900 <HAL_RCC_ClockConfig+0x1c0>)
 8004774:	681b      	ldr	r3, [r3, #0]
 8004776:	f003 0307 	and.w	r3, r3, #7
 800477a:	683a      	ldr	r2, [r7, #0]
 800477c:	429a      	cmp	r2, r3
 800477e:	d001      	beq.n	8004784 <HAL_RCC_ClockConfig+0x44>
  {
    return HAL_ERROR;
 8004780:	2301      	movs	r3, #1
 8004782:	e0b8      	b.n	80048f6 <HAL_RCC_ClockConfig+0x1b6>
  }
}

#endif /* FLASH_ACR_LATENCY */
/*-------------------------- HCLK Configuration --------------------------*/
if (((RCC_ClkInitStruct->ClockType) & RCC_CLOCKTYPE_HCLK) == RCC_CLOCKTYPE_HCLK)
 8004784:	687b      	ldr	r3, [r7, #4]
 8004786:	681b      	ldr	r3, [r3, #0]
 8004788:	f003 0302 	and.w	r3, r3, #2
 800478c:	2b00      	cmp	r3, #0
 800478e:	d020      	beq.n	80047d2 <HAL_RCC_ClockConfig+0x92>
  {
    /* Set the highest APBx dividers in order to ensure that we do not go through
    a non-spec phase whatever we decrease or increase HCLK. */
    if (((RCC_ClkInitStruct->ClockType) & RCC_CLOCKTYPE_PCLK1) == RCC_CLOCKTYPE_PCLK1)
 8004790:	687b      	ldr	r3, [r7, #4]
 8004792:	681b      	ldr	r3, [r3, #0]
 8004794:	f003 0304 	and.w	r3, r3, #4
 8004798:	2b00      	cmp	r3, #0
 800479a:	d005      	beq.n	80047a8 <HAL_RCC_ClockConfig+0x68>
    {
      MODIFY_REG(RCC->CFGR, RCC_CFGR_PPRE1, RCC_HCLK_DIV16);
 800479c:	4b59      	ldr	r3, [pc, #356]	@ (8004904 <HAL_RCC_ClockConfig+0x1c4>)
 800479e:	685b      	ldr	r3, [r3, #4]
 80047a0:	4a58      	ldr	r2, [pc, #352]	@ (8004904 <HAL_RCC_ClockConfig+0x1c4>)
 80047a2:	f443 63e0 	orr.w	r3, r3, #1792	@ 0x700
 80047a6:	6053      	str	r3, [r2, #4]
    }

    if (((RCC_ClkInitStruct->ClockType) & RCC_CLOCKTYPE_PCLK2) == RCC_CLOCKTYPE_PCLK2)
 80047a8:	687b      	ldr	r3, [r7, #4]
 80047aa:	681b      	ldr	r3, [r3, #0]
 80047ac:	f003 0308 	and.w	r3, r3, #8
 80047b0:	2b00      	cmp	r3, #0
 80047b2:	d005      	beq.n	80047c0 <HAL_RCC_ClockConfig+0x80>
    {
      MODIFY_REG(RCC->CFGR, RCC_CFGR_PPRE2, (RCC_HCLK_DIV16 << 3));
 80047b4:	4b53      	ldr	r3, [pc, #332]	@ (8004904 <HAL_RCC_ClockConfig+0x1c4>)
 80047b6:	685b      	ldr	r3, [r3, #4]
 80047b8:	4a52      	ldr	r2, [pc, #328]	@ (8004904 <HAL_RCC_ClockConfig+0x1c4>)
 80047ba:	f443 5360 	orr.w	r3, r3, #14336	@ 0x3800
 80047be:	6053      	str	r3, [r2, #4]
    }

    /* Set the new HCLK clock divider */
    assert_param(IS_RCC_HCLK(RCC_ClkInitStruct->AHBCLKDivider));
    MODIFY_REG(RCC->CFGR, RCC_CFGR_HPRE, RCC_ClkInitStruct->AHBCLKDivider);
 80047c0:	4b50      	ldr	r3, [pc, #320]	@ (8004904 <HAL_RCC_ClockConfig+0x1c4>)
 80047c2:	685b      	ldr	r3, [r3, #4]
 80047c4:	f023 02f0 	bic.w	r2, r3, #240	@ 0xf0
 80047c8:	687b      	ldr	r3, [r7, #4]
 80047ca:	689b      	ldr	r3, [r3, #8]
 80047cc:	494d      	ldr	r1, [pc, #308]	@ (8004904 <HAL_RCC_ClockConfig+0x1c4>)
 80047ce:	4313      	orrs	r3, r2
 80047d0:	604b      	str	r3, [r1, #4]
  }

  /*------------------------- SYSCLK Configuration ---------------------------*/
  if (((RCC_ClkInitStruct->ClockType) & RCC_CLOCKTYPE_SYSCLK) == RCC_CLOCKTYPE_SYSCLK)
 80047d2:	687b      	ldr	r3, [r7, #4]
 80047d4:	681b      	ldr	r3, [r3, #0]
 80047d6:	f003 0301 	and.w	r3, r3, #1
 80047da:	2b00      	cmp	r3, #0
 80047dc:	d040      	beq.n	8004860 <HAL_RCC_ClockConfig+0x120>
  {
    assert_param(IS_RCC_SYSCLKSOURCE(RCC_ClkInitStruct->SYSCLKSource));

    /* HSE is selected as System Clock Source */
    if (RCC_ClkInitStruct->SYSCLKSource == RCC_SYSCLKSOURCE_HSE)
 80047de:	687b      	ldr	r3, [r7, #4]
 80047e0:	685b      	ldr	r3, [r3, #4]
 80047e2:	2b01      	cmp	r3, #1
 80047e4:	d107      	bne.n	80047f6 <HAL_RCC_ClockConfig+0xb6>
    {
      /* Check the HSE ready flag */
      if (__HAL_RCC_GET_FLAG(RCC_FLAG_HSERDY) == RESET)
 80047e6:	4b47      	ldr	r3, [pc, #284]	@ (8004904 <HAL_RCC_ClockConfig+0x1c4>)
 80047e8:	681b      	ldr	r3, [r3, #0]
 80047ea:	f403 3300 	and.w	r3, r3, #131072	@ 0x20000
 80047ee:	2b00      	cmp	r3, #0
 80047f0:	d115      	bne.n	800481e <HAL_RCC_ClockConfig+0xde>
      {
        return HAL_ERROR;
 80047f2:	2301      	movs	r3, #1
 80047f4:	e07f      	b.n	80048f6 <HAL_RCC_ClockConfig+0x1b6>
      }
    }
    /* PLL is selected as System Clock Source */
    else if (RCC_ClkInitStruct->SYSCLKSource == RCC_SYSCLKSOURCE_PLLCLK)
 80047f6:	687b      	ldr	r3, [r7, #4]
 80047f8:	685b      	ldr	r3, [r3, #4]
 80047fa:	2b02      	cmp	r3, #2
 80047fc:	d107      	bne.n	800480e <HAL_RCC_ClockConfig+0xce>
    {
      /* Check the PLL ready flag */
      if (__HAL_RCC_GET_FLAG(RCC_FLAG_PLLRDY) == RESET)
 80047fe:	4b41      	ldr	r3, [pc, #260]	@ (8004904 <HAL_RCC_ClockConfig+0x1c4>)
 8004800:	681b      	ldr	r3, [r3, #0]
 8004802:	f003 7300 	and.w	r3, r3, #33554432	@ 0x2000000
 8004806:	2b00      	cmp	r3, #0
 8004808:	d109      	bne.n	800481e <HAL_RCC_ClockConfig+0xde>
      {
        return HAL_ERROR;
 800480a:	2301      	movs	r3, #1
 800480c:	e073      	b.n	80048f6 <HAL_RCC_ClockConfig+0x1b6>
    }
    /* HSI is selected as System Clock Source */
    else
    {
      /* Check the HSI ready flag */
      if (__HAL_RCC_GET_FLAG(RCC_FLAG_HSIRDY) == RESET)
 800480e:	4b3d      	ldr	r3, [pc, #244]	@ (8004904 <HAL_RCC_ClockConfig+0x1c4>)
 8004810:	681b      	ldr	r3, [r3, #0]
 8004812:	f003 0302 	and.w	r3, r3, #2
 8004816:	2b00      	cmp	r3, #0
 8004818:	d101      	bne.n	800481e <HAL_RCC_ClockConfig+0xde>
      {
        return HAL_ERROR;
 800481a:	2301      	movs	r3, #1
 800481c:	e06b      	b.n	80048f6 <HAL_RCC_ClockConfig+0x1b6>
      }
    }
    __HAL_RCC_SYSCLK_CONFIG(RCC_ClkInitStruct->SYSCLKSource);
 800481e:	4b39      	ldr	r3, [pc, #228]	@ (8004904 <HAL_RCC_ClockConfig+0x1c4>)
 8004820:	685b      	ldr	r3, [r3, #4]
 8004822:	f023 0203 	bic.w	r2, r3, #3
 8004826:	687b      	ldr	r3, [r7, #4]
 8004828:	685b      	ldr	r3, [r3, #4]
 800482a:	4936      	ldr	r1, [pc, #216]	@ (8004904 <HAL_RCC_ClockConfig+0x1c4>)
 800482c:	4313      	orrs	r3, r2
 800482e:	604b      	str	r3, [r1, #4]

    /* Get Start Tick */
    tickstart = HAL_GetTick();
 8004830:	f7fd fce6 	bl	8002200 <HAL_GetTick>
 8004834:	60f8      	str	r0, [r7, #12]

    while (__HAL_RCC_GET_SYSCLK_SOURCE() != (RCC_ClkInitStruct->SYSCLKSource << RCC_CFGR_SWS_Pos))
 8004836:	e00a      	b.n	800484e <HAL_RCC_ClockConfig+0x10e>
    {
      if ((HAL_GetTick() - tickstart) > CLOCKSWITCH_TIMEOUT_VALUE)
 8004838:	f7fd fce2 	bl	8002200 <HAL_GetTick>
 800483c:	4602      	mov	r2, r0
 800483e:	68fb      	ldr	r3, [r7, #12]
 8004840:	1ad3      	subs	r3, r2, r3
 8004842:	f241 3288 	movw	r2, #5000	@ 0x1388
 8004846:	4293      	cmp	r3, r2
 8004848:	d901      	bls.n	800484e <HAL_RCC_ClockConfig+0x10e>
      {
        return HAL_TIMEOUT;
 800484a:	2303      	movs	r3, #3
 800484c:	e053      	b.n	80048f6 <HAL_RCC_ClockConfig+0x1b6>
    while (__HAL_RCC_GET_SYSCLK_SOURCE() != (RCC_ClkInitStruct->SYSCLKSource << RCC_CFGR_SWS_Pos))
 800484e:	4b2d      	ldr	r3, [pc, #180]	@ (8004904 <HAL_RCC_ClockConfig+0x1c4>)
 8004850:	685b      	ldr	r3, [r3, #4]
 8004852:	f003 020c 	and.w	r2, r3, #12
 8004856:	687b      	ldr	r3, [r7, #4]
 8004858:	685b      	ldr	r3, [r3, #4]
 800485a:	009b      	lsls	r3, r3, #2
 800485c:	429a      	cmp	r2, r3
 800485e:	d1eb      	bne.n	8004838 <HAL_RCC_ClockConfig+0xf8>
    }
  }

#if defined(FLASH_ACR_LATENCY)
  /* Decreasing the number of wait states because of lower CPU frequency */
  if (FLatency < __HAL_FLASH_GET_LATENCY())
 8004860:	4b27      	ldr	r3, [pc, #156]	@ (8004900 <HAL_RCC_ClockConfig+0x1c0>)
 8004862:	681b      	ldr	r3, [r3, #0]
 8004864:	f003 0307 	and.w	r3, r3, #7
 8004868:	683a      	ldr	r2, [r7, #0]
 800486a:	429a      	cmp	r2, r3
 800486c:	d210      	bcs.n	8004890 <HAL_RCC_ClockConfig+0x150>
  {
    /* Program the new number of wait states to the LATENCY bits in the FLASH_ACR register */
    __HAL_FLASH_SET_LATENCY(FLatency);
 800486e:	4b24      	ldr	r3, [pc, #144]	@ (8004900 <HAL_RCC_ClockConfig+0x1c0>)
 8004870:	681b      	ldr	r3, [r3, #0]
 8004872:	f023 0207 	bic.w	r2, r3, #7
 8004876:	4922      	ldr	r1, [pc, #136]	@ (8004900 <HAL_RCC_ClockConfig+0x1c0>)
 8004878:	683b      	ldr	r3, [r7, #0]
 800487a:	4313      	orrs	r3, r2
 800487c:	600b      	str	r3, [r1, #0]

    /* Check that the new number of wait states is taken into account to access the Flash
    memory by reading the FLASH_ACR register */
    if (__HAL_FLASH_GET_LATENCY() != FLatency)
 800487e:	4b20      	ldr	r3, [pc, #128]	@ (8004900 <HAL_RCC_ClockConfig+0x1c0>)
 8004880:	681b      	ldr	r3, [r3, #0]
 8004882:	f003 0307 	and.w	r3, r3, #7
 8004886:	683a      	ldr	r2, [r7, #0]
 8004888:	429a      	cmp	r2, r3
 800488a:	d001      	beq.n	8004890 <HAL_RCC_ClockConfig+0x150>
  {
    return HAL_ERROR;
 800488c:	2301      	movs	r3, #1
 800488e:	e032      	b.n	80048f6 <HAL_RCC_ClockConfig+0x1b6>
  }
}
#endif /* FLASH_ACR_LATENCY */

/*-------------------------- PCLK1 Configuration ---------------------------*/
if (((RCC_ClkInitStruct->ClockType) & RCC_CLOCKTYPE_PCLK1) == RCC_CLOCKTYPE_PCLK1)
 8004890:	687b      	ldr	r3, [r7, #4]
 8004892:	681b      	ldr	r3, [r3, #0]
 8004894:	f003 0304 	and.w	r3, r3, #4
 8004898:	2b00      	cmp	r3, #0
 800489a:	d008      	beq.n	80048ae <HAL_RCC_ClockConfig+0x16e>
  {
    assert_param(IS_RCC_PCLK(RCC_ClkInitStruct->APB1CLKDivider));
    MODIFY_REG(RCC->CFGR, RCC_CFGR_PPRE1, RCC_ClkInitStruct->APB1CLKDivider);
 800489c:	4b19      	ldr	r3, [pc, #100]	@ (8004904 <HAL_RCC_ClockConfig+0x1c4>)
 800489e:	685b      	ldr	r3, [r3, #4]
 80048a0:	f423 62e0 	bic.w	r2, r3, #1792	@ 0x700
 80048a4:	687b      	ldr	r3, [r7, #4]
 80048a6:	68db      	ldr	r3, [r3, #12]
 80048a8:	4916      	ldr	r1, [pc, #88]	@ (8004904 <HAL_RCC_ClockConfig+0x1c4>)
 80048aa:	4313      	orrs	r3, r2
 80048ac:	604b      	str	r3, [r1, #4]
  }

  /*-------------------------- PCLK2 Configuration ---------------------------*/
  if (((RCC_ClkInitStruct->ClockType) & RCC_CLOCKTYPE_PCLK2) == RCC_CLOCKTYPE_PCLK2)
 80048ae:	687b      	ldr	r3, [r7, #4]
 80048b0:	681b      	ldr	r3, [r3, #0]
 80048b2:	f003 0308 	and.w	r3, r3, #8
 80048b6:	2b00      	cmp	r3, #0
 80048b8:	d009      	beq.n	80048ce <HAL_RCC_ClockConfig+0x18e>
  {
    assert_param(IS_RCC_PCLK(RCC_ClkInitStruct->APB2CLKDivider));
    MODIFY_REG(RCC->CFGR, RCC_CFGR_PPRE2, ((RCC_ClkInitStruct->APB2CLKDivider) << 3));
 80048ba:	4b12      	ldr	r3, [pc, #72]	@ (8004904 <HAL_RCC_ClockConfig+0x1c4>)
 80048bc:	685b      	ldr	r3, [r3, #4]
 80048be:	f423 5260 	bic.w	r2, r3, #14336	@ 0x3800
 80048c2:	687b      	ldr	r3, [r7, #4]
 80048c4:	691b      	ldr	r3, [r3, #16]
 80048c6:	00db      	lsls	r3, r3, #3
 80048c8:	490e      	ldr	r1, [pc, #56]	@ (8004904 <HAL_RCC_ClockConfig+0x1c4>)
 80048ca:	4313      	orrs	r3, r2
 80048cc:	604b      	str	r3, [r1, #4]
  }

  /* Update the SystemCoreClock global variable */
  SystemCoreClock = HAL_RCC_GetSysClockFreq() >> AHBPrescTable[(RCC->CFGR & RCC_CFGR_HPRE) >> RCC_CFGR_HPRE_Pos];
 80048ce:	f000 f821 	bl	8004914 <HAL_RCC_GetSysClockFreq>
 80048d2:	4602      	mov	r2, r0
 80048d4:	4b0b      	ldr	r3, [pc, #44]	@ (8004904 <HAL_RCC_ClockConfig+0x1c4>)
 80048d6:	685b      	ldr	r3, [r3, #4]
 80048d8:	091b      	lsrs	r3, r3, #4
 80048da:	f003 030f 	and.w	r3, r3, #15
 80048de:	490a      	ldr	r1, [pc, #40]	@ (8004908 <HAL_RCC_ClockConfig+0x1c8>)
 80048e0:	5ccb      	ldrb	r3, [r1, r3]
 80048e2:	fa22 f303 	lsr.w	r3, r2, r3
 80048e6:	4a09      	ldr	r2, [pc, #36]	@ (800490c <HAL_RCC_ClockConfig+0x1cc>)
 80048e8:	6013      	str	r3, [r2, #0]

  /* Configure the source of time base considering new system clocks settings*/
  HAL_InitTick(uwTickPrio);
 80048ea:	4b09      	ldr	r3, [pc, #36]	@ (8004910 <HAL_RCC_ClockConfig+0x1d0>)
 80048ec:	681b      	ldr	r3, [r3, #0]
 80048ee:	4618      	mov	r0, r3
 80048f0:	f7fd fc44 	bl	800217c <HAL_InitTick>

  return HAL_OK;
 80048f4:	2300      	movs	r3, #0
}
 80048f6:	4618      	mov	r0, r3
 80048f8:	3710      	adds	r7, #16
 80048fa:	46bd      	mov	sp, r7
 80048fc:	bd80      	pop	{r7, pc}
 80048fe:	bf00      	nop
 8004900:	40022000 	.word	0x40022000
 8004904:	40021000 	.word	0x40021000
 8004908:	08005860 	.word	0x08005860
 800490c:	20000050 	.word	0x20000050
 8004910:	20000054 	.word	0x20000054

08004914 <HAL_RCC_GetSysClockFreq>:
  *         right SYSCLK value. Otherwise, any configuration based on this function will be incorrect.
  *
  * @retval SYSCLK frequency
  */
uint32_t HAL_RCC_GetSysClockFreq(void)
{
 8004914:	b480      	push	{r7}
 8004916:	b087      	sub	sp, #28
 8004918:	af00      	add	r7, sp, #0
#else
  static const uint8_t aPredivFactorTable[2U] = {1, 2};
#endif /*RCC_CFGR2_PREDIV1*/

#endif
  uint32_t tmpreg = 0U, prediv = 0U, pllclk = 0U, pllmul = 0U;
 800491a:	2300      	movs	r3, #0
 800491c:	60fb      	str	r3, [r7, #12]
 800491e:	2300      	movs	r3, #0
 8004920:	60bb      	str	r3, [r7, #8]
 8004922:	2300      	movs	r3, #0
 8004924:	617b      	str	r3, [r7, #20]
 8004926:	2300      	movs	r3, #0
 8004928:	607b      	str	r3, [r7, #4]
  uint32_t sysclockfreq = 0U;
 800492a:	2300      	movs	r3, #0
 800492c:	613b      	str	r3, [r7, #16]
#if defined(RCC_CFGR2_PREDIV1SRC)
  uint32_t prediv2 = 0U, pll2mul = 0U;
#endif /*RCC_CFGR2_PREDIV1SRC*/

  tmpreg = RCC->CFGR;
 800492e:	4b1e      	ldr	r3, [pc, #120]	@ (80049a8 <HAL_RCC_GetSysClockFreq+0x94>)
 8004930:	685b      	ldr	r3, [r3, #4]
 8004932:	60fb      	str	r3, [r7, #12]

  /* Get SYSCLK source -------------------------------------------------------*/
  switch (tmpreg & RCC_CFGR_SWS)
 8004934:	68fb      	ldr	r3, [r7, #12]
 8004936:	f003 030c 	and.w	r3, r3, #12
 800493a:	2b04      	cmp	r3, #4
 800493c:	d002      	beq.n	8004944 <HAL_RCC_GetSysClockFreq+0x30>
 800493e:	2b08      	cmp	r3, #8
 8004940:	d003      	beq.n	800494a <HAL_RCC_GetSysClockFreq+0x36>
 8004942:	e027      	b.n	8004994 <HAL_RCC_GetSysClockFreq+0x80>
  {
    case RCC_SYSCLKSOURCE_STATUS_HSE:  /* HSE used as system clock */
    {
      sysclockfreq = HSE_VALUE;
 8004944:	4b19      	ldr	r3, [pc, #100]	@ (80049ac <HAL_RCC_GetSysClockFreq+0x98>)
 8004946:	613b      	str	r3, [r7, #16]
      break;
 8004948:	e027      	b.n	800499a <HAL_RCC_GetSysClockFreq+0x86>
    }
    case RCC_SYSCLKSOURCE_STATUS_PLLCLK:  /* PLL used as system clock */
    {
      pllmul = aPLLMULFactorTable[(uint32_t)(tmpreg & RCC_CFGR_PLLMULL) >> RCC_CFGR_PLLMULL_Pos];
 800494a:	68fb      	ldr	r3, [r7, #12]
 800494c:	0c9b      	lsrs	r3, r3, #18
 800494e:	f003 030f 	and.w	r3, r3, #15
 8004952:	4a17      	ldr	r2, [pc, #92]	@ (80049b0 <HAL_RCC_GetSysClockFreq+0x9c>)
 8004954:	5cd3      	ldrb	r3, [r2, r3]
 8004956:	607b      	str	r3, [r7, #4]
      if ((tmpreg & RCC_CFGR_PLLSRC) != RCC_PLLSOURCE_HSI_DIV2)
 8004958:	68fb      	ldr	r3, [r7, #12]
 800495a:	f403 3380 	and.w	r3, r3, #65536	@ 0x10000
 800495e:	2b00      	cmp	r3, #0
 8004960:	d010      	beq.n	8004984 <HAL_RCC_GetSysClockFreq+0x70>
      {
#if defined(RCC_CFGR2_PREDIV1)
        prediv = aPredivFactorTable[(uint32_t)(RCC->CFGR2 & RCC_CFGR2_PREDIV1) >> RCC_CFGR2_PREDIV1_Pos];
#else
        prediv = aPredivFactorTable[(uint32_t)(RCC->CFGR & RCC_CFGR_PLLXTPRE) >> RCC_CFGR_PLLXTPRE_Pos];
 8004962:	4b11      	ldr	r3, [pc, #68]	@ (80049a8 <HAL_RCC_GetSysClockFreq+0x94>)
 8004964:	685b      	ldr	r3, [r3, #4]
 8004966:	0c5b      	lsrs	r3, r3, #17
 8004968:	f003 0301 	and.w	r3, r3, #1
 800496c:	4a11      	ldr	r2, [pc, #68]	@ (80049b4 <HAL_RCC_GetSysClockFreq+0xa0>)
 800496e:	5cd3      	ldrb	r3, [r2, r3]
 8004970:	60bb      	str	r3, [r7, #8]
        {
          pllclk = pllclk / 2;
        }
#else
        /* HSE used as PLL clock source : PLLCLK = HSE/PREDIV1 * PLLMUL */
        pllclk = (uint32_t)((HSE_VALUE  * pllmul) / prediv);
 8004972:	687b      	ldr	r3, [r7, #4]
 8004974:	4a0d      	ldr	r2, [pc, #52]	@ (80049ac <HAL_RCC_GetSysClockFreq+0x98>)
 8004976:	fb03 f202 	mul.w	r2, r3, r2
 800497a:	68bb      	ldr	r3, [r7, #8]
 800497c:	fbb2 f3f3 	udiv	r3, r2, r3
 8004980:	617b      	str	r3, [r7, #20]
 8004982:	e004      	b.n	800498e <HAL_RCC_GetSysClockFreq+0x7a>
#endif /*RCC_CFGR2_PREDIV1SRC*/
      }
      else
      {
        /* HSI used as PLL clock source : PLLCLK = HSI/2 * PLLMUL */
        pllclk = (uint32_t)((HSI_VALUE >> 1) * pllmul);
 8004984:	687b      	ldr	r3, [r7, #4]
 8004986:	4a0c      	ldr	r2, [pc, #48]	@ (80049b8 <HAL_RCC_GetSysClockFreq+0xa4>)
 8004988:	fb02 f303 	mul.w	r3, r2, r3
 800498c:	617b      	str	r3, [r7, #20]
      }
      sysclockfreq = pllclk;
 800498e:	697b      	ldr	r3, [r7, #20]
 8004990:	613b      	str	r3, [r7, #16]
      break;
 8004992:	e002      	b.n	800499a <HAL_RCC_GetSysClockFreq+0x86>
    }
    case RCC_SYSCLKSOURCE_STATUS_HSI:  /* HSI used as system clock source */
    default: /* HSI used as system clock */
    {
      sysclockfreq = HSI_VALUE;
 8004994:	4b05      	ldr	r3, [pc, #20]	@ (80049ac <HAL_RCC_GetSysClockFreq+0x98>)
 8004996:	613b      	str	r3, [r7, #16]
      break;
 8004998:	bf00      	nop
    }
  }
  return sysclockfreq;
 800499a:	693b      	ldr	r3, [r7, #16]
}
 800499c:	4618      	mov	r0, r3
 800499e:	371c      	adds	r7, #28
 80049a0:	46bd      	mov	sp, r7
 80049a2:	bc80      	pop	{r7}
 80049a4:	4770      	bx	lr
 80049a6:	bf00      	nop
 80049a8:	40021000 	.word	0x40021000
 80049ac:	007a1200 	.word	0x007a1200
 80049b0:	08005878 	.word	0x08005878
 80049b4:	08005888 	.word	0x08005888
 80049b8:	003d0900 	.word	0x003d0900

080049bc <HAL_RCC_GetHCLKFreq>:
  * @note   The SystemCoreClock CMSIS variable is used to store System Clock Frequency
  *         and updated within this function
  * @retval HCLK frequency
  */
uint32_t HAL_RCC_GetHCLKFreq(void)
{
 80049bc:	b480      	push	{r7}
 80049be:	af00      	add	r7, sp, #0
  return SystemCoreClock;
 80049c0:	4b02      	ldr	r3, [pc, #8]	@ (80049cc <HAL_RCC_GetHCLKFreq+0x10>)
 80049c2:	681b      	ldr	r3, [r3, #0]
}
 80049c4:	4618      	mov	r0, r3
 80049c6:	46bd      	mov	sp, r7
 80049c8:	bc80      	pop	{r7}
 80049ca:	4770      	bx	lr
 80049cc:	20000050 	.word	0x20000050

080049d0 <HAL_RCC_GetPCLK1Freq>:
  * @note   Each time PCLK1 changes, this function must be called to update the
  *         right PCLK1 value. Otherwise, any configuration based on this function will be incorrect.
  * @retval PCLK1 frequency
  */
uint32_t HAL_RCC_GetPCLK1Freq(void)
{
 80049d0:	b580      	push	{r7, lr}
 80049d2:	af00      	add	r7, sp, #0
  /* Get HCLK source and Compute PCLK1 frequency ---------------------------*/
  return (HAL_RCC_GetHCLKFreq() >> APBPrescTable[(RCC->CFGR & RCC_CFGR_PPRE1) >> RCC_CFGR_PPRE1_Pos]);
 80049d4:	f7ff fff2 	bl	80049bc <HAL_RCC_GetHCLKFreq>
 80049d8:	4602      	mov	r2, r0
 80049da:	4b05      	ldr	r3, [pc, #20]	@ (80049f0 <HAL_RCC_GetPCLK1Freq+0x20>)
 80049dc:	685b      	ldr	r3, [r3, #4]
 80049de:	0a1b      	lsrs	r3, r3, #8
 80049e0:	f003 0307 	and.w	r3, r3, #7
 80049e4:	4903      	ldr	r1, [pc, #12]	@ (80049f4 <HAL_RCC_GetPCLK1Freq+0x24>)
 80049e6:	5ccb      	ldrb	r3, [r1, r3]
 80049e8:	fa22 f303 	lsr.w	r3, r2, r3
}
 80049ec:	4618      	mov	r0, r3
 80049ee:	bd80      	pop	{r7, pc}
 80049f0:	40021000 	.word	0x40021000
 80049f4:	08005870 	.word	0x08005870

080049f8 <HAL_RCC_GetPCLK2Freq>:
  * @note   Each time PCLK2 changes, this function must be called to update the
  *         right PCLK2 value. Otherwise, any configuration based on this function will be incorrect.
  * @retval PCLK2 frequency
  */
uint32_t HAL_RCC_GetPCLK2Freq(void)
{
 80049f8:	b580      	push	{r7, lr}
 80049fa:	af00      	add	r7, sp, #0
  /* Get HCLK source and Compute PCLK2 frequency ---------------------------*/
  return (HAL_RCC_GetHCLKFreq() >> APBPrescTable[(RCC->CFGR & RCC_CFGR_PPRE2) >> RCC_CFGR_PPRE2_Pos]);
 80049fc:	f7ff ffde 	bl	80049bc <HAL_RCC_GetHCLKFreq>
 8004a00:	4602      	mov	r2, r0
 8004a02:	4b05      	ldr	r3, [pc, #20]	@ (8004a18 <HAL_RCC_GetPCLK2Freq+0x20>)
 8004a04:	685b      	ldr	r3, [r3, #4]
 8004a06:	0adb      	lsrs	r3, r3, #11
 8004a08:	f003 0307 	and.w	r3, r3, #7
 8004a0c:	4903      	ldr	r1, [pc, #12]	@ (8004a1c <HAL_RCC_GetPCLK2Freq+0x24>)
 8004a0e:	5ccb      	ldrb	r3, [r1, r3]
 8004a10:	fa22 f303 	lsr.w	r3, r2, r3
}
 8004a14:	4618      	mov	r0, r3
 8004a16:	bd80      	pop	{r7, pc}
 8004a18:	40021000 	.word	0x40021000
 8004a1c:	08005870 	.word	0x08005870

08004a20 <RCC_Delay>:
  * @brief  This function provides delay (in milliseconds) based on CPU cycles method.
  * @param  mdelay: specifies the delay time length, in milliseconds.
  * @retval None
  */
static void RCC_Delay(uint32_t mdelay)
{
 8004a20:	b480      	push	{r7}
 8004a22:	b085      	sub	sp, #20
 8004a24:	af00      	add	r7, sp, #0
 8004a26:	6078      	str	r0, [r7, #4]
  __IO uint32_t Delay = mdelay * (SystemCoreClock / 8U / 1000U);
 8004a28:	4b0a      	ldr	r3, [pc, #40]	@ (8004a54 <RCC_Delay+0x34>)
 8004a2a:	681b      	ldr	r3, [r3, #0]
 8004a2c:	4a0a      	ldr	r2, [pc, #40]	@ (8004a58 <RCC_Delay+0x38>)
 8004a2e:	fba2 2303 	umull	r2, r3, r2, r3
 8004a32:	0a5b      	lsrs	r3, r3, #9
 8004a34:	687a      	ldr	r2, [r7, #4]
 8004a36:	fb02 f303 	mul.w	r3, r2, r3
 8004a3a:	60fb      	str	r3, [r7, #12]
  do
  {
    __NOP();
 8004a3c:	bf00      	nop
  }
  while (Delay --);
 8004a3e:	68fb      	ldr	r3, [r7, #12]
 8004a40:	1e5a      	subs	r2, r3, #1
 8004a42:	60fa      	str	r2, [r7, #12]
 8004a44:	2b00      	cmp	r3, #0
 8004a46:	d1f9      	bne.n	8004a3c <RCC_Delay+0x1c>
}
 8004a48:	bf00      	nop
 8004a4a:	bf00      	nop
 8004a4c:	3714      	adds	r7, #20
 8004a4e:	46bd      	mov	sp, r7
 8004a50:	bc80      	pop	{r7}
 8004a52:	4770      	bx	lr
 8004a54:	20000050 	.word	0x20000050
 8004a58:	10624dd3 	.word	0x10624dd3

08004a5c <HAL_RCCEx_PeriphCLKConfig>:
  *         manually disable it.
  *
  * @retval HAL status
  */
HAL_StatusTypeDef HAL_RCCEx_PeriphCLKConfig(RCC_PeriphCLKInitTypeDef  *PeriphClkInit)
{
 8004a5c:	b580      	push	{r7, lr}
 8004a5e:	b086      	sub	sp, #24
 8004a60:	af00      	add	r7, sp, #0
 8004a62:	6078      	str	r0, [r7, #4]
  uint32_t tickstart = 0U, temp_reg = 0U;
 8004a64:	2300      	movs	r3, #0
 8004a66:	613b      	str	r3, [r7, #16]
 8004a68:	2300      	movs	r3, #0
 8004a6a:	60fb      	str	r3, [r7, #12]

  /* Check the parameters */
  assert_param(IS_RCC_PERIPHCLOCK(PeriphClkInit->PeriphClockSelection));

  /*------------------------------- RTC/LCD Configuration ------------------------*/
  if ((((PeriphClkInit->PeriphClockSelection) & RCC_PERIPHCLK_RTC) == RCC_PERIPHCLK_RTC))
 8004a6c:	687b      	ldr	r3, [r7, #4]
 8004a6e:	681b      	ldr	r3, [r3, #0]
 8004a70:	f003 0301 	and.w	r3, r3, #1
 8004a74:	2b00      	cmp	r3, #0
 8004a76:	d07d      	beq.n	8004b74 <HAL_RCCEx_PeriphCLKConfig+0x118>
  {
    FlagStatus pwrclkchanged = RESET;
 8004a78:	2300      	movs	r3, #0
 8004a7a:	75fb      	strb	r3, [r7, #23]
    assert_param(IS_RCC_RTCCLKSOURCE(PeriphClkInit->RTCClockSelection));

    /* As soon as function is called to change RTC clock source, activation of the
       power domain is done. */
    /* Requires to enable write access to Backup Domain of necessary */
    if (__HAL_RCC_PWR_IS_CLK_DISABLED())
 8004a7c:	4b4f      	ldr	r3, [pc, #316]	@ (8004bbc <HAL_RCCEx_PeriphCLKConfig+0x160>)
 8004a7e:	69db      	ldr	r3, [r3, #28]
 8004a80:	f003 5380 	and.w	r3, r3, #268435456	@ 0x10000000
 8004a84:	2b00      	cmp	r3, #0
 8004a86:	d10d      	bne.n	8004aa4 <HAL_RCCEx_PeriphCLKConfig+0x48>
    {
      __HAL_RCC_PWR_CLK_ENABLE();
 8004a88:	4b4c      	ldr	r3, [pc, #304]	@ (8004bbc <HAL_RCCEx_PeriphCLKConfig+0x160>)
 8004a8a:	69db      	ldr	r3, [r3, #28]
 8004a8c:	4a4b      	ldr	r2, [pc, #300]	@ (8004bbc <HAL_RCCEx_PeriphCLKConfig+0x160>)
 8004a8e:	f043 5380 	orr.w	r3, r3, #268435456	@ 0x10000000
 8004a92:	61d3      	str	r3, [r2, #28]
 8004a94:	4b49      	ldr	r3, [pc, #292]	@ (8004bbc <HAL_RCCEx_PeriphCLKConfig+0x160>)
 8004a96:	69db      	ldr	r3, [r3, #28]
 8004a98:	f003 5380 	and.w	r3, r3, #268435456	@ 0x10000000
 8004a9c:	60bb      	str	r3, [r7, #8]
 8004a9e:	68bb      	ldr	r3, [r7, #8]
      pwrclkchanged = SET;
 8004aa0:	2301      	movs	r3, #1
 8004aa2:	75fb      	strb	r3, [r7, #23]
    }

    if (HAL_IS_BIT_CLR(PWR->CR, PWR_CR_DBP))
 8004aa4:	4b46      	ldr	r3, [pc, #280]	@ (8004bc0 <HAL_RCCEx_PeriphCLKConfig+0x164>)
 8004aa6:	681b      	ldr	r3, [r3, #0]
 8004aa8:	f403 7380 	and.w	r3, r3, #256	@ 0x100
 8004aac:	2b00      	cmp	r3, #0
 8004aae:	d118      	bne.n	8004ae2 <HAL_RCCEx_PeriphCLKConfig+0x86>
    {
      /* Enable write access to Backup domain */
      SET_BIT(PWR->CR, PWR_CR_DBP);
 8004ab0:	4b43      	ldr	r3, [pc, #268]	@ (8004bc0 <HAL_RCCEx_PeriphCLKConfig+0x164>)
 8004ab2:	681b      	ldr	r3, [r3, #0]
 8004ab4:	4a42      	ldr	r2, [pc, #264]	@ (8004bc0 <HAL_RCCEx_PeriphCLKConfig+0x164>)
 8004ab6:	f443 7380 	orr.w	r3, r3, #256	@ 0x100
 8004aba:	6013      	str	r3, [r2, #0]

      /* Wait for Backup domain Write protection disable */
      tickstart = HAL_GetTick();
 8004abc:	f7fd fba0 	bl	8002200 <HAL_GetTick>
 8004ac0:	6138      	str	r0, [r7, #16]

      while (HAL_IS_BIT_CLR(PWR->CR, PWR_CR_DBP))
 8004ac2:	e008      	b.n	8004ad6 <HAL_RCCEx_PeriphCLKConfig+0x7a>
      {
        if ((HAL_GetTick() - tickstart) > RCC_DBP_TIMEOUT_VALUE)
 8004ac4:	f7fd fb9c 	bl	8002200 <HAL_GetTick>
 8004ac8:	4602      	mov	r2, r0
 8004aca:	693b      	ldr	r3, [r7, #16]
 8004acc:	1ad3      	subs	r3, r2, r3
 8004ace:	2b64      	cmp	r3, #100	@ 0x64
 8004ad0:	d901      	bls.n	8004ad6 <HAL_RCCEx_PeriphCLKConfig+0x7a>
        {
          return HAL_TIMEOUT;
 8004ad2:	2303      	movs	r3, #3
 8004ad4:	e06d      	b.n	8004bb2 <HAL_RCCEx_PeriphCLKConfig+0x156>
      while (HAL_IS_BIT_CLR(PWR->CR, PWR_CR_DBP))
 8004ad6:	4b3a      	ldr	r3, [pc, #232]	@ (8004bc0 <HAL_RCCEx_PeriphCLKConfig+0x164>)
 8004ad8:	681b      	ldr	r3, [r3, #0]
 8004ada:	f403 7380 	and.w	r3, r3, #256	@ 0x100
 8004ade:	2b00      	cmp	r3, #0
 8004ae0:	d0f0      	beq.n	8004ac4 <HAL_RCCEx_PeriphCLKConfig+0x68>
        }
      }
    }

    /* Reset the Backup domain only if the RTC Clock source selection is modified from reset value */
    temp_reg = (RCC->BDCR & RCC_BDCR_RTCSEL);
 8004ae2:	4b36      	ldr	r3, [pc, #216]	@ (8004bbc <HAL_RCCEx_PeriphCLKConfig+0x160>)
 8004ae4:	6a1b      	ldr	r3, [r3, #32]
 8004ae6:	f403 7340 	and.w	r3, r3, #768	@ 0x300
 8004aea:	60fb      	str	r3, [r7, #12]
    if ((temp_reg != 0x00000000U) && (temp_reg != (PeriphClkInit->RTCClockSelection & RCC_BDCR_RTCSEL)))
 8004aec:	68fb      	ldr	r3, [r7, #12]
 8004aee:	2b00      	cmp	r3, #0
 8004af0:	d02e      	beq.n	8004b50 <HAL_RCCEx_PeriphCLKConfig+0xf4>
 8004af2:	687b      	ldr	r3, [r7, #4]
 8004af4:	685b      	ldr	r3, [r3, #4]
 8004af6:	f403 7340 	and.w	r3, r3, #768	@ 0x300
 8004afa:	68fa      	ldr	r2, [r7, #12]
 8004afc:	429a      	cmp	r2, r3
 8004afe:	d027      	beq.n	8004b50 <HAL_RCCEx_PeriphCLKConfig+0xf4>
    {
      /* Store the content of BDCR register before the reset of Backup Domain */
      temp_reg = (RCC->BDCR & ~(RCC_BDCR_RTCSEL));
 8004b00:	4b2e      	ldr	r3, [pc, #184]	@ (8004bbc <HAL_RCCEx_PeriphCLKConfig+0x160>)
 8004b02:	6a1b      	ldr	r3, [r3, #32]
 8004b04:	f423 7340 	bic.w	r3, r3, #768	@ 0x300
 8004b08:	60fb      	str	r3, [r7, #12]
      /* RTC Clock selection can be changed only if the Backup Domain is reset */
      __HAL_RCC_BACKUPRESET_FORCE();
 8004b0a:	4b2e      	ldr	r3, [pc, #184]	@ (8004bc4 <HAL_RCCEx_PeriphCLKConfig+0x168>)
 8004b0c:	2201      	movs	r2, #1
 8004b0e:	601a      	str	r2, [r3, #0]
      __HAL_RCC_BACKUPRESET_RELEASE();
 8004b10:	4b2c      	ldr	r3, [pc, #176]	@ (8004bc4 <HAL_RCCEx_PeriphCLKConfig+0x168>)
 8004b12:	2200      	movs	r2, #0
 8004b14:	601a      	str	r2, [r3, #0]
      /* Restore the Content of BDCR register */
      RCC->BDCR = temp_reg;
 8004b16:	4a29      	ldr	r2, [pc, #164]	@ (8004bbc <HAL_RCCEx_PeriphCLKConfig+0x160>)
 8004b18:	68fb      	ldr	r3, [r7, #12]
 8004b1a:	6213      	str	r3, [r2, #32]

      /* Wait for LSERDY if LSE was enabled */
      if (HAL_IS_BIT_SET(temp_reg, RCC_BDCR_LSEON))
 8004b1c:	68fb      	ldr	r3, [r7, #12]
 8004b1e:	f003 0301 	and.w	r3, r3, #1
 8004b22:	2b00      	cmp	r3, #0
 8004b24:	d014      	beq.n	8004b50 <HAL_RCCEx_PeriphCLKConfig+0xf4>
      {
        /* Get Start Tick */
        tickstart = HAL_GetTick();
 8004b26:	f7fd fb6b 	bl	8002200 <HAL_GetTick>
 8004b2a:	6138      	str	r0, [r7, #16]

        /* Wait till LSE is ready */
        while (__HAL_RCC_GET_FLAG(RCC_FLAG_LSERDY) == RESET)
 8004b2c:	e00a      	b.n	8004b44 <HAL_RCCEx_PeriphCLKConfig+0xe8>
        {
          if ((HAL_GetTick() - tickstart) > RCC_LSE_TIMEOUT_VALUE)
 8004b2e:	f7fd fb67 	bl	8002200 <HAL_GetTick>
 8004b32:	4602      	mov	r2, r0
 8004b34:	693b      	ldr	r3, [r7, #16]
 8004b36:	1ad3      	subs	r3, r2, r3
 8004b38:	f241 3288 	movw	r2, #5000	@ 0x1388
 8004b3c:	4293      	cmp	r3, r2
 8004b3e:	d901      	bls.n	8004b44 <HAL_RCCEx_PeriphCLKConfig+0xe8>
          {
            return HAL_TIMEOUT;
 8004b40:	2303      	movs	r3, #3
 8004b42:	e036      	b.n	8004bb2 <HAL_RCCEx_PeriphCLKConfig+0x156>
        while (__HAL_RCC_GET_FLAG(RCC_FLAG_LSERDY) == RESET)
 8004b44:	4b1d      	ldr	r3, [pc, #116]	@ (8004bbc <HAL_RCCEx_PeriphCLKConfig+0x160>)
 8004b46:	6a1b      	ldr	r3, [r3, #32]
 8004b48:	f003 0302 	and.w	r3, r3, #2
 8004b4c:	2b00      	cmp	r3, #0
 8004b4e:	d0ee      	beq.n	8004b2e <HAL_RCCEx_PeriphCLKConfig+0xd2>
          }
        }
      }
    }
    __HAL_RCC_RTC_CONFIG(PeriphClkInit->RTCClockSelection);
 8004b50:	4b1a      	ldr	r3, [pc, #104]	@ (8004bbc <HAL_RCCEx_PeriphCLKConfig+0x160>)
 8004b52:	6a1b      	ldr	r3, [r3, #32]
 8004b54:	f423 7240 	bic.w	r2, r3, #768	@ 0x300
 8004b58:	687b      	ldr	r3, [r7, #4]
 8004b5a:	685b      	ldr	r3, [r3, #4]
 8004b5c:	4917      	ldr	r1, [pc, #92]	@ (8004bbc <HAL_RCCEx_PeriphCLKConfig+0x160>)
 8004b5e:	4313      	orrs	r3, r2
 8004b60:	620b      	str	r3, [r1, #32]

    /* Require to disable power clock if necessary */
    if (pwrclkchanged == SET)
 8004b62:	7dfb      	ldrb	r3, [r7, #23]
 8004b64:	2b01      	cmp	r3, #1
 8004b66:	d105      	bne.n	8004b74 <HAL_RCCEx_PeriphCLKConfig+0x118>
    {
      __HAL_RCC_PWR_CLK_DISABLE();
 8004b68:	4b14      	ldr	r3, [pc, #80]	@ (8004bbc <HAL_RCCEx_PeriphCLKConfig+0x160>)
 8004b6a:	69db      	ldr	r3, [r3, #28]
 8004b6c:	4a13      	ldr	r2, [pc, #76]	@ (8004bbc <HAL_RCCEx_PeriphCLKConfig+0x160>)
 8004b6e:	f023 5380 	bic.w	r3, r3, #268435456	@ 0x10000000
 8004b72:	61d3      	str	r3, [r2, #28]
    }
  }

  /*------------------------------ ADC clock Configuration ------------------*/
  if (((PeriphClkInit->PeriphClockSelection) & RCC_PERIPHCLK_ADC) == RCC_PERIPHCLK_ADC)
 8004b74:	687b      	ldr	r3, [r7, #4]
 8004b76:	681b      	ldr	r3, [r3, #0]
 8004b78:	f003 0302 	and.w	r3, r3, #2
 8004b7c:	2b00      	cmp	r3, #0
 8004b7e:	d008      	beq.n	8004b92 <HAL_RCCEx_PeriphCLKConfig+0x136>
  {
    /* Check the parameters */
    assert_param(IS_RCC_ADCPLLCLK_DIV(PeriphClkInit->AdcClockSelection));

    /* Configure the ADC clock source */
    __HAL_RCC_ADC_CONFIG(PeriphClkInit->AdcClockSelection);
 8004b80:	4b0e      	ldr	r3, [pc, #56]	@ (8004bbc <HAL_RCCEx_PeriphCLKConfig+0x160>)
 8004b82:	685b      	ldr	r3, [r3, #4]
 8004b84:	f423 4240 	bic.w	r2, r3, #49152	@ 0xc000
 8004b88:	687b      	ldr	r3, [r7, #4]
 8004b8a:	689b      	ldr	r3, [r3, #8]
 8004b8c:	490b      	ldr	r1, [pc, #44]	@ (8004bbc <HAL_RCCEx_PeriphCLKConfig+0x160>)
 8004b8e:	4313      	orrs	r3, r2
 8004b90:	604b      	str	r3, [r1, #4]

#if defined(STM32F102x6) || defined(STM32F102xB) || defined(STM32F103x6)\
 || defined(STM32F103xB) || defined(STM32F103xE) || defined(STM32F103xG)\
 || defined(STM32F105xC) || defined(STM32F107xC)
  /*------------------------------ USB clock Configuration ------------------*/
  if (((PeriphClkInit->PeriphClockSelection) & RCC_PERIPHCLK_USB) == RCC_PERIPHCLK_USB)
 8004b92:	687b      	ldr	r3, [r7, #4]
 8004b94:	681b      	ldr	r3, [r3, #0]
 8004b96:	f003 0310 	and.w	r3, r3, #16
 8004b9a:	2b00      	cmp	r3, #0
 8004b9c:	d008      	beq.n	8004bb0 <HAL_RCCEx_PeriphCLKConfig+0x154>
  {
    /* Check the parameters */
    assert_param(IS_RCC_USBPLLCLK_DIV(PeriphClkInit->UsbClockSelection));

    /* Configure the USB clock source */
    __HAL_RCC_USB_CONFIG(PeriphClkInit->UsbClockSelection);
 8004b9e:	4b07      	ldr	r3, [pc, #28]	@ (8004bbc <HAL_RCCEx_PeriphCLKConfig+0x160>)
 8004ba0:	685b      	ldr	r3, [r3, #4]
 8004ba2:	f423 0280 	bic.w	r2, r3, #4194304	@ 0x400000
 8004ba6:	687b      	ldr	r3, [r7, #4]
 8004ba8:	68db      	ldr	r3, [r3, #12]
 8004baa:	4904      	ldr	r1, [pc, #16]	@ (8004bbc <HAL_RCCEx_PeriphCLKConfig+0x160>)
 8004bac:	4313      	orrs	r3, r2
 8004bae:	604b      	str	r3, [r1, #4]
  }
#endif /* STM32F102x6 || STM32F102xB || STM32F103x6 || STM32F103xB || STM32F103xE || STM32F103xG || STM32F105xC || STM32F107xC */

  return HAL_OK;
 8004bb0:	2300      	movs	r3, #0
}
 8004bb2:	4618      	mov	r0, r3
 8004bb4:	3718      	adds	r7, #24
 8004bb6:	46bd      	mov	sp, r7
 8004bb8:	bd80      	pop	{r7, pc}
 8004bba:	bf00      	nop
 8004bbc:	40021000 	.word	0x40021000
 8004bc0:	40007000 	.word	0x40007000
 8004bc4:	42420440 	.word	0x42420440

08004bc8 <HAL_SPI_Init>:
  * @param  hspi pointer to a SPI_HandleTypeDef structure that contains
  *               the configuration information for SPI module.
  * @retval HAL status
  */
HAL_StatusTypeDef HAL_SPI_Init(SPI_HandleTypeDef *hspi)
{
 8004bc8:	b580      	push	{r7, lr}
 8004bca:	b082      	sub	sp, #8
 8004bcc:	af00      	add	r7, sp, #0
 8004bce:	6078      	str	r0, [r7, #4]
  /* Check the SPI handle allocation */
  if (hspi == NULL)
 8004bd0:	687b      	ldr	r3, [r7, #4]
 8004bd2:	2b00      	cmp	r3, #0
 8004bd4:	d101      	bne.n	8004bda <HAL_SPI_Init+0x12>
  {
    return HAL_ERROR;
 8004bd6:	2301      	movs	r3, #1
 8004bd8:	e076      	b.n	8004cc8 <HAL_SPI_Init+0x100>
  assert_param(IS_SPI_BAUDRATE_PRESCALER(hspi->Init.BaudRatePrescaler));
  assert_param(IS_SPI_FIRST_BIT(hspi->Init.FirstBit));
  /* TI mode is not supported on this device.
     TIMode parameter is mandatory equal to SPI_TIMODE_DISABLE */
  assert_param(IS_SPI_TIMODE(hspi->Init.TIMode));
  if (hspi->Init.TIMode == SPI_TIMODE_DISABLE)
 8004bda:	687b      	ldr	r3, [r7, #4]
 8004bdc:	6a5b      	ldr	r3, [r3, #36]	@ 0x24
 8004bde:	2b00      	cmp	r3, #0
 8004be0:	d108      	bne.n	8004bf4 <HAL_SPI_Init+0x2c>
  {
    assert_param(IS_SPI_CPOL(hspi->Init.CLKPolarity));
    assert_param(IS_SPI_CPHA(hspi->Init.CLKPhase));

    if (hspi->Init.Mode == SPI_MODE_MASTER)
 8004be2:	687b      	ldr	r3, [r7, #4]
 8004be4:	685b      	ldr	r3, [r3, #4]
 8004be6:	f5b3 7f82 	cmp.w	r3, #260	@ 0x104
 8004bea:	d009      	beq.n	8004c00 <HAL_SPI_Init+0x38>
      assert_param(IS_SPI_BAUDRATE_PRESCALER(hspi->Init.BaudRatePrescaler));
    }
    else
    {
      /* Baudrate prescaler not use in Motoraola Slave mode. force to default value */
      hspi->Init.BaudRatePrescaler = SPI_BAUDRATEPRESCALER_2;
 8004bec:	687b      	ldr	r3, [r7, #4]
 8004bee:	2200      	movs	r2, #0
 8004bf0:	61da      	str	r2, [r3, #28]
 8004bf2:	e005      	b.n	8004c00 <HAL_SPI_Init+0x38>
  else
  {
    assert_param(IS_SPI_BAUDRATE_PRESCALER(hspi->Init.BaudRatePrescaler));

    /* Force polarity and phase to TI protocaol requirements */
    hspi->Init.CLKPolarity = SPI_POLARITY_LOW;
 8004bf4:	687b      	ldr	r3, [r7, #4]
 8004bf6:	2200      	movs	r2, #0
 8004bf8:	611a      	str	r2, [r3, #16]
    hspi->Init.CLKPhase    = SPI_PHASE_1EDGE;
 8004bfa:	687b      	ldr	r3, [r7, #4]
 8004bfc:	2200      	movs	r2, #0
 8004bfe:	615a      	str	r2, [r3, #20]
  if (hspi->Init.CRCCalculation == SPI_CRCCALCULATION_ENABLE)
  {
    assert_param(IS_SPI_CRC_POLYNOMIAL(hspi->Init.CRCPolynomial));
  }
#else
  hspi->Init.CRCCalculation = SPI_CRCCALCULATION_DISABLE;
 8004c00:	687b      	ldr	r3, [r7, #4]
 8004c02:	2200      	movs	r2, #0
 8004c04:	629a      	str	r2, [r3, #40]	@ 0x28
#endif /* USE_SPI_CRC */

  if (hspi->State == HAL_SPI_STATE_RESET)
 8004c06:	687b      	ldr	r3, [r7, #4]
 8004c08:	f893 3051 	ldrb.w	r3, [r3, #81]	@ 0x51
 8004c0c:	b2db      	uxtb	r3, r3
 8004c0e:	2b00      	cmp	r3, #0
 8004c10:	d106      	bne.n	8004c20 <HAL_SPI_Init+0x58>
  {
    /* Allocate lock resource and initialize it */
    hspi->Lock = HAL_UNLOCKED;
 8004c12:	687b      	ldr	r3, [r7, #4]
 8004c14:	2200      	movs	r2, #0
 8004c16:	f883 2050 	strb.w	r2, [r3, #80]	@ 0x50

    /* Init the low level hardware : GPIO, CLOCK, NVIC... */
    hspi->MspInitCallback(hspi);
#else
    /* Init the low level hardware : GPIO, CLOCK, NVIC... */
    HAL_SPI_MspInit(hspi);
 8004c1a:	6878      	ldr	r0, [r7, #4]
 8004c1c:	f7fd f91e 	bl	8001e5c <HAL_SPI_MspInit>
#endif /* USE_HAL_SPI_REGISTER_CALLBACKS */
  }

  hspi->State = HAL_SPI_STATE_BUSY;
 8004c20:	687b      	ldr	r3, [r7, #4]
 8004c22:	2202      	movs	r2, #2
 8004c24:	f883 2051 	strb.w	r2, [r3, #81]	@ 0x51

  /* Disable the selected SPI peripheral */
  __HAL_SPI_DISABLE(hspi);
 8004c28:	687b      	ldr	r3, [r7, #4]
 8004c2a:	681b      	ldr	r3, [r3, #0]
 8004c2c:	681a      	ldr	r2, [r3, #0]
 8004c2e:	687b      	ldr	r3, [r7, #4]
 8004c30:	681b      	ldr	r3, [r3, #0]
 8004c32:	f022 0240 	bic.w	r2, r2, #64	@ 0x40
 8004c36:	601a      	str	r2, [r3, #0]

  /*----------------------- SPIx CR1 & CR2 Configuration ---------------------*/
  /* Configure : SPI Mode, Communication Mode, Data size, Clock polarity and phase, NSS management,
  Communication speed, First bit and CRC calculation state */
  WRITE_REG(hspi->Instance->CR1, ((hspi->Init.Mode & (SPI_CR1_MSTR | SPI_CR1_SSI)) |
 8004c38:	687b      	ldr	r3, [r7, #4]
 8004c3a:	685b      	ldr	r3, [r3, #4]
 8004c3c:	f403 7282 	and.w	r2, r3, #260	@ 0x104
 8004c40:	687b      	ldr	r3, [r7, #4]
 8004c42:	689b      	ldr	r3, [r3, #8]
 8004c44:	f403 4304 	and.w	r3, r3, #33792	@ 0x8400
 8004c48:	431a      	orrs	r2, r3
 8004c4a:	687b      	ldr	r3, [r7, #4]
 8004c4c:	68db      	ldr	r3, [r3, #12]
 8004c4e:	f403 6300 	and.w	r3, r3, #2048	@ 0x800
 8004c52:	431a      	orrs	r2, r3
 8004c54:	687b      	ldr	r3, [r7, #4]
 8004c56:	691b      	ldr	r3, [r3, #16]
 8004c58:	f003 0302 	and.w	r3, r3, #2
 8004c5c:	431a      	orrs	r2, r3
 8004c5e:	687b      	ldr	r3, [r7, #4]
 8004c60:	695b      	ldr	r3, [r3, #20]
 8004c62:	f003 0301 	and.w	r3, r3, #1
 8004c66:	431a      	orrs	r2, r3
 8004c68:	687b      	ldr	r3, [r7, #4]
 8004c6a:	699b      	ldr	r3, [r3, #24]
 8004c6c:	f403 7300 	and.w	r3, r3, #512	@ 0x200
 8004c70:	431a      	orrs	r2, r3
 8004c72:	687b      	ldr	r3, [r7, #4]
 8004c74:	69db      	ldr	r3, [r3, #28]
 8004c76:	f003 0338 	and.w	r3, r3, #56	@ 0x38
 8004c7a:	431a      	orrs	r2, r3
 8004c7c:	687b      	ldr	r3, [r7, #4]
 8004c7e:	6a1b      	ldr	r3, [r3, #32]
 8004c80:	f003 0380 	and.w	r3, r3, #128	@ 0x80
 8004c84:	ea42 0103 	orr.w	r1, r2, r3
 8004c88:	687b      	ldr	r3, [r7, #4]
 8004c8a:	6a9b      	ldr	r3, [r3, #40]	@ 0x28
 8004c8c:	f403 5200 	and.w	r2, r3, #8192	@ 0x2000
 8004c90:	687b      	ldr	r3, [r7, #4]
 8004c92:	681b      	ldr	r3, [r3, #0]
 8004c94:	430a      	orrs	r2, r1
 8004c96:	601a      	str	r2, [r3, #0]
                                  (hspi->Init.BaudRatePrescaler & SPI_CR1_BR_Msk) |
                                  (hspi->Init.FirstBit  & SPI_CR1_LSBFIRST) |
                                  (hspi->Init.CRCCalculation & SPI_CR1_CRCEN)));

  /* Configure : NSS management */
  WRITE_REG(hspi->Instance->CR2, ((hspi->Init.NSS >> 16U) & SPI_CR2_SSOE));
 8004c98:	687b      	ldr	r3, [r7, #4]
 8004c9a:	699b      	ldr	r3, [r3, #24]
 8004c9c:	0c1a      	lsrs	r2, r3, #16
 8004c9e:	687b      	ldr	r3, [r7, #4]
 8004ca0:	681b      	ldr	r3, [r3, #0]
 8004ca2:	f002 0204 	and.w	r2, r2, #4
 8004ca6:	605a      	str	r2, [r3, #4]
  }
#endif /* USE_SPI_CRC */

#if defined(SPI_I2SCFGR_I2SMOD)
  /* Activate the SPI mode (Make sure that I2SMOD bit in I2SCFGR register is reset) */
  CLEAR_BIT(hspi->Instance->I2SCFGR, SPI_I2SCFGR_I2SMOD);
 8004ca8:	687b      	ldr	r3, [r7, #4]
 8004caa:	681b      	ldr	r3, [r3, #0]
 8004cac:	69da      	ldr	r2, [r3, #28]
 8004cae:	687b      	ldr	r3, [r7, #4]
 8004cb0:	681b      	ldr	r3, [r3, #0]
 8004cb2:	f422 6200 	bic.w	r2, r2, #2048	@ 0x800
 8004cb6:	61da      	str	r2, [r3, #28]
#endif /* SPI_I2SCFGR_I2SMOD */

  hspi->ErrorCode = HAL_SPI_ERROR_NONE;
 8004cb8:	687b      	ldr	r3, [r7, #4]
 8004cba:	2200      	movs	r2, #0
 8004cbc:	655a      	str	r2, [r3, #84]	@ 0x54
  hspi->State     = HAL_SPI_STATE_READY;
 8004cbe:	687b      	ldr	r3, [r7, #4]
 8004cc0:	2201      	movs	r2, #1
 8004cc2:	f883 2051 	strb.w	r2, [r3, #81]	@ 0x51

  return HAL_OK;
 8004cc6:	2300      	movs	r3, #0
}
 8004cc8:	4618      	mov	r0, r3
 8004cca:	3708      	adds	r7, #8
 8004ccc:	46bd      	mov	sp, r7
 8004cce:	bd80      	pop	{r7, pc}

08004cd0 <HAL_UART_Init>:
  * @param  huart  Pointer to a UART_HandleTypeDef structure that contains
  *                the configuration information for the specified UART module.
  * @retval HAL status
  */
HAL_StatusTypeDef HAL_UART_Init(UART_HandleTypeDef *huart)
{
 8004cd0:	b580      	push	{r7, lr}
 8004cd2:	b082      	sub	sp, #8
 8004cd4:	af00      	add	r7, sp, #0
 8004cd6:	6078      	str	r0, [r7, #4]
  /* Check the UART handle allocation */
  if (huart == NULL)
 8004cd8:	687b      	ldr	r3, [r7, #4]
 8004cda:	2b00      	cmp	r3, #0
 8004cdc:	d101      	bne.n	8004ce2 <HAL_UART_Init+0x12>
  {
    return HAL_ERROR;
 8004cde:	2301      	movs	r3, #1
 8004ce0:	e042      	b.n	8004d68 <HAL_UART_Init+0x98>
  assert_param(IS_UART_WORD_LENGTH(huart->Init.WordLength));
#if defined(USART_CR1_OVER8)
  assert_param(IS_UART_OVERSAMPLING(huart->Init.OverSampling));
#endif /* USART_CR1_OVER8 */

  if (huart->gState == HAL_UART_STATE_RESET)
 8004ce2:	687b      	ldr	r3, [r7, #4]
 8004ce4:	f893 3041 	ldrb.w	r3, [r3, #65]	@ 0x41
 8004ce8:	b2db      	uxtb	r3, r3
 8004cea:	2b00      	cmp	r3, #0
 8004cec:	d106      	bne.n	8004cfc <HAL_UART_Init+0x2c>
  {
    /* Allocate lock resource and initialize it */
    huart->Lock = HAL_UNLOCKED;
 8004cee:	687b      	ldr	r3, [r7, #4]
 8004cf0:	2200      	movs	r2, #0
 8004cf2:	f883 2040 	strb.w	r2, [r3, #64]	@ 0x40

    /* Init the low level hardware */
    huart->MspInitCallback(huart);
#else
    /* Init the low level hardware : GPIO, CLOCK */
    HAL_UART_MspInit(huart);
 8004cf6:	6878      	ldr	r0, [r7, #4]
 8004cf8:	f7fd f9b0 	bl	800205c <HAL_UART_MspInit>
#endif /* (USE_HAL_UART_REGISTER_CALLBACKS) */
  }

  huart->gState = HAL_UART_STATE_BUSY;
 8004cfc:	687b      	ldr	r3, [r7, #4]
 8004cfe:	2224      	movs	r2, #36	@ 0x24
 8004d00:	f883 2041 	strb.w	r2, [r3, #65]	@ 0x41

  /* Disable the peripheral */
  __HAL_UART_DISABLE(huart);
 8004d04:	687b      	ldr	r3, [r7, #4]
 8004d06:	681b      	ldr	r3, [r3, #0]
 8004d08:	68da      	ldr	r2, [r3, #12]
 8004d0a:	687b      	ldr	r3, [r7, #4]
 8004d0c:	681b      	ldr	r3, [r3, #0]
 8004d0e:	f422 5200 	bic.w	r2, r2, #8192	@ 0x2000
 8004d12:	60da      	str	r2, [r3, #12]

  /* Set the UART Communication parameters */
  UART_SetConfig(huart);
 8004d14:	6878      	ldr	r0, [r7, #4]
 8004d16:	f000 fcd5 	bl	80056c4 <UART_SetConfig>

  /* In asynchronous mode, the following bits must be kept cleared:
     - LINEN and CLKEN bits in the USART_CR2 register,
     - SCEN, HDSEL and IREN  bits in the USART_CR3 register.*/
  CLEAR_BIT(huart->Instance->CR2, (USART_CR2_LINEN | USART_CR2_CLKEN));
 8004d1a:	687b      	ldr	r3, [r7, #4]
 8004d1c:	681b      	ldr	r3, [r3, #0]
 8004d1e:	691a      	ldr	r2, [r3, #16]
 8004d20:	687b      	ldr	r3, [r7, #4]
 8004d22:	681b      	ldr	r3, [r3, #0]
 8004d24:	f422 4290 	bic.w	r2, r2, #18432	@ 0x4800
 8004d28:	611a      	str	r2, [r3, #16]
  CLEAR_BIT(huart->Instance->CR3, (USART_CR3_SCEN | USART_CR3_HDSEL | USART_CR3_IREN));
 8004d2a:	687b      	ldr	r3, [r7, #4]
 8004d2c:	681b      	ldr	r3, [r3, #0]
 8004d2e:	695a      	ldr	r2, [r3, #20]
 8004d30:	687b      	ldr	r3, [r7, #4]
 8004d32:	681b      	ldr	r3, [r3, #0]
 8004d34:	f022 022a 	bic.w	r2, r2, #42	@ 0x2a
 8004d38:	615a      	str	r2, [r3, #20]

  /* Enable the peripheral */
  __HAL_UART_ENABLE(huart);
 8004d3a:	687b      	ldr	r3, [r7, #4]
 8004d3c:	681b      	ldr	r3, [r3, #0]
 8004d3e:	68da      	ldr	r2, [r3, #12]
 8004d40:	687b      	ldr	r3, [r7, #4]
 8004d42:	681b      	ldr	r3, [r3, #0]
 8004d44:	f442 5200 	orr.w	r2, r2, #8192	@ 0x2000
 8004d48:	60da      	str	r2, [r3, #12]

  /* Initialize the UART state */
  huart->ErrorCode = HAL_UART_ERROR_NONE;
 8004d4a:	687b      	ldr	r3, [r7, #4]
 8004d4c:	2200      	movs	r2, #0
 8004d4e:	645a      	str	r2, [r3, #68]	@ 0x44
  huart->gState = HAL_UART_STATE_READY;
 8004d50:	687b      	ldr	r3, [r7, #4]
 8004d52:	2220      	movs	r2, #32
 8004d54:	f883 2041 	strb.w	r2, [r3, #65]	@ 0x41
  huart->RxState = HAL_UART_STATE_READY;
 8004d58:	687b      	ldr	r3, [r7, #4]
 8004d5a:	2220      	movs	r2, #32
 8004d5c:	f883 2042 	strb.w	r2, [r3, #66]	@ 0x42
  huart->RxEventType = HAL_UART_RXEVENT_TC;
 8004d60:	687b      	ldr	r3, [r7, #4]
 8004d62:	2200      	movs	r2, #0
 8004d64:	635a      	str	r2, [r3, #52]	@ 0x34

  return HAL_OK;
 8004d66:	2300      	movs	r3, #0
}
 8004d68:	4618      	mov	r0, r3
 8004d6a:	3708      	adds	r7, #8
 8004d6c:	46bd      	mov	sp, r7
 8004d6e:	bd80      	pop	{r7, pc}

08004d70 <HAL_UART_Receive_IT>:
  * @param  pData Pointer to data buffer (u8 or u16 data elements).
  * @param  Size  Amount of data elements (u8 or u16) to be received.
  * @retval HAL status
  */
HAL_StatusTypeDef HAL_UART_Receive_IT(UART_HandleTypeDef *huart, uint8_t *pData, uint16_t Size)
{
 8004d70:	b580      	push	{r7, lr}
 8004d72:	b084      	sub	sp, #16
 8004d74:	af00      	add	r7, sp, #0
 8004d76:	60f8      	str	r0, [r7, #12]
 8004d78:	60b9      	str	r1, [r7, #8]
 8004d7a:	4613      	mov	r3, r2
 8004d7c:	80fb      	strh	r3, [r7, #6]
  /* Check that a Rx process is not already ongoing */
  if (huart->RxState == HAL_UART_STATE_READY)
 8004d7e:	68fb      	ldr	r3, [r7, #12]
 8004d80:	f893 3042 	ldrb.w	r3, [r3, #66]	@ 0x42
 8004d84:	b2db      	uxtb	r3, r3
 8004d86:	2b20      	cmp	r3, #32
 8004d88:	d112      	bne.n	8004db0 <HAL_UART_Receive_IT+0x40>
  {
    if ((pData == NULL) || (Size == 0U))
 8004d8a:	68bb      	ldr	r3, [r7, #8]
 8004d8c:	2b00      	cmp	r3, #0
 8004d8e:	d002      	beq.n	8004d96 <HAL_UART_Receive_IT+0x26>
 8004d90:	88fb      	ldrh	r3, [r7, #6]
 8004d92:	2b00      	cmp	r3, #0
 8004d94:	d101      	bne.n	8004d9a <HAL_UART_Receive_IT+0x2a>
    {
      return HAL_ERROR;
 8004d96:	2301      	movs	r3, #1
 8004d98:	e00b      	b.n	8004db2 <HAL_UART_Receive_IT+0x42>
    }

    /* Set Reception type to Standard reception */
    huart->ReceptionType = HAL_UART_RECEPTION_STANDARD;
 8004d9a:	68fb      	ldr	r3, [r7, #12]
 8004d9c:	2200      	movs	r2, #0
 8004d9e:	631a      	str	r2, [r3, #48]	@ 0x30

    return (UART_Start_Receive_IT(huart, pData, Size));
 8004da0:	88fb      	ldrh	r3, [r7, #6]
 8004da2:	461a      	mov	r2, r3
 8004da4:	68b9      	ldr	r1, [r7, #8]
 8004da6:	68f8      	ldr	r0, [r7, #12]
 8004da8:	f000 fab7 	bl	800531a <UART_Start_Receive_IT>
 8004dac:	4603      	mov	r3, r0
 8004dae:	e000      	b.n	8004db2 <HAL_UART_Receive_IT+0x42>
  }
  else
  {
    return HAL_BUSY;
 8004db0:	2302      	movs	r3, #2
  }
}
 8004db2:	4618      	mov	r0, r3
 8004db4:	3710      	adds	r7, #16
 8004db6:	46bd      	mov	sp, r7
 8004db8:	bd80      	pop	{r7, pc}
	...

08004dbc <HAL_UART_IRQHandler>:
  * @param  huart  Pointer to a UART_HandleTypeDef structure that contains
  *                the configuration information for the specified UART module.
  * @retval None
  */
void HAL_UART_IRQHandler(UART_HandleTypeDef *huart)
{
 8004dbc:	b580      	push	{r7, lr}
 8004dbe:	b0ba      	sub	sp, #232	@ 0xe8
 8004dc0:	af00      	add	r7, sp, #0
 8004dc2:	6078      	str	r0, [r7, #4]
  uint32_t isrflags   = READ_REG(huart->Instance->SR);
 8004dc4:	687b      	ldr	r3, [r7, #4]
 8004dc6:	681b      	ldr	r3, [r3, #0]
 8004dc8:	681b      	ldr	r3, [r3, #0]
 8004dca:	f8c7 30e4 	str.w	r3, [r7, #228]	@ 0xe4
  uint32_t cr1its     = READ_REG(huart->Instance->CR1);
 8004dce:	687b      	ldr	r3, [r7, #4]
 8004dd0:	681b      	ldr	r3, [r3, #0]
 8004dd2:	68db      	ldr	r3, [r3, #12]
 8004dd4:	f8c7 30e0 	str.w	r3, [r7, #224]	@ 0xe0
  uint32_t cr3its     = READ_REG(huart->Instance->CR3);
 8004dd8:	687b      	ldr	r3, [r7, #4]
 8004dda:	681b      	ldr	r3, [r3, #0]
 8004ddc:	695b      	ldr	r3, [r3, #20]
 8004dde:	f8c7 30dc 	str.w	r3, [r7, #220]	@ 0xdc
  uint32_t errorflags = 0x00U;
 8004de2:	2300      	movs	r3, #0
 8004de4:	f8c7 30d8 	str.w	r3, [r7, #216]	@ 0xd8
  uint32_t dmarequest = 0x00U;
 8004de8:	2300      	movs	r3, #0
 8004dea:	f8c7 30d4 	str.w	r3, [r7, #212]	@ 0xd4

  /* If no error occurs */
  errorflags = (isrflags & (uint32_t)(USART_SR_PE | USART_SR_FE | USART_SR_ORE | USART_SR_NE));
 8004dee:	f8d7 30e4 	ldr.w	r3, [r7, #228]	@ 0xe4
 8004df2:	f003 030f 	and.w	r3, r3, #15
 8004df6:	f8c7 30d8 	str.w	r3, [r7, #216]	@ 0xd8
  if (errorflags == RESET)
 8004dfa:	f8d7 30d8 	ldr.w	r3, [r7, #216]	@ 0xd8
 8004dfe:	2b00      	cmp	r3, #0
 8004e00:	d10f      	bne.n	8004e22 <HAL_UART_IRQHandler+0x66>
  {
    /* UART in mode Receiver -------------------------------------------------*/
    if (((isrflags & USART_SR_RXNE) != RESET) && ((cr1its & USART_CR1_RXNEIE) != RESET))
 8004e02:	f8d7 30e4 	ldr.w	r3, [r7, #228]	@ 0xe4
 8004e06:	f003 0320 	and.w	r3, r3, #32
 8004e0a:	2b00      	cmp	r3, #0
 8004e0c:	d009      	beq.n	8004e22 <HAL_UART_IRQHandler+0x66>
 8004e0e:	f8d7 30e0 	ldr.w	r3, [r7, #224]	@ 0xe0
 8004e12:	f003 0320 	and.w	r3, r3, #32
 8004e16:	2b00      	cmp	r3, #0
 8004e18:	d003      	beq.n	8004e22 <HAL_UART_IRQHandler+0x66>
    {
      UART_Receive_IT(huart);
 8004e1a:	6878      	ldr	r0, [r7, #4]
 8004e1c:	f000 fb93 	bl	8005546 <UART_Receive_IT>
      return;
 8004e20:	e25b      	b.n	80052da <HAL_UART_IRQHandler+0x51e>
    }
  }

  /* If some errors occur */
  if ((errorflags != RESET) && (((cr3its & USART_CR3_EIE) != RESET)
 8004e22:	f8d7 30d8 	ldr.w	r3, [r7, #216]	@ 0xd8
 8004e26:	2b00      	cmp	r3, #0
 8004e28:	f000 80de 	beq.w	8004fe8 <HAL_UART_IRQHandler+0x22c>
 8004e2c:	f8d7 30dc 	ldr.w	r3, [r7, #220]	@ 0xdc
 8004e30:	f003 0301 	and.w	r3, r3, #1
 8004e34:	2b00      	cmp	r3, #0
 8004e36:	d106      	bne.n	8004e46 <HAL_UART_IRQHandler+0x8a>
                                || ((cr1its & (USART_CR1_RXNEIE | USART_CR1_PEIE)) != RESET)))
 8004e38:	f8d7 30e0 	ldr.w	r3, [r7, #224]	@ 0xe0
 8004e3c:	f403 7390 	and.w	r3, r3, #288	@ 0x120
 8004e40:	2b00      	cmp	r3, #0
 8004e42:	f000 80d1 	beq.w	8004fe8 <HAL_UART_IRQHandler+0x22c>
  {
    /* UART parity error interrupt occurred ----------------------------------*/
    if (((isrflags & USART_SR_PE) != RESET) && ((cr1its & USART_CR1_PEIE) != RESET))
 8004e46:	f8d7 30e4 	ldr.w	r3, [r7, #228]	@ 0xe4
 8004e4a:	f003 0301 	and.w	r3, r3, #1
 8004e4e:	2b00      	cmp	r3, #0
 8004e50:	d00b      	beq.n	8004e6a <HAL_UART_IRQHandler+0xae>
 8004e52:	f8d7 30e0 	ldr.w	r3, [r7, #224]	@ 0xe0
 8004e56:	f403 7380 	and.w	r3, r3, #256	@ 0x100
 8004e5a:	2b00      	cmp	r3, #0
 8004e5c:	d005      	beq.n	8004e6a <HAL_UART_IRQHandler+0xae>
    {
      huart->ErrorCode |= HAL_UART_ERROR_PE;
 8004e5e:	687b      	ldr	r3, [r7, #4]
 8004e60:	6c5b      	ldr	r3, [r3, #68]	@ 0x44
 8004e62:	f043 0201 	orr.w	r2, r3, #1
 8004e66:	687b      	ldr	r3, [r7, #4]
 8004e68:	645a      	str	r2, [r3, #68]	@ 0x44
    }

    /* UART noise error interrupt occurred -----------------------------------*/
    if (((isrflags & USART_SR_NE) != RESET) && ((cr3its & USART_CR3_EIE) != RESET))
 8004e6a:	f8d7 30e4 	ldr.w	r3, [r7, #228]	@ 0xe4
 8004e6e:	f003 0304 	and.w	r3, r3, #4
 8004e72:	2b00      	cmp	r3, #0
 8004e74:	d00b      	beq.n	8004e8e <HAL_UART_IRQHandler+0xd2>
 8004e76:	f8d7 30dc 	ldr.w	r3, [r7, #220]	@ 0xdc
 8004e7a:	f003 0301 	and.w	r3, r3, #1
 8004e7e:	2b00      	cmp	r3, #0
 8004e80:	d005      	beq.n	8004e8e <HAL_UART_IRQHandler+0xd2>
    {
      huart->ErrorCode |= HAL_UART_ERROR_NE;
 8004e82:	687b      	ldr	r3, [r7, #4]
 8004e84:	6c5b      	ldr	r3, [r3, #68]	@ 0x44
 8004e86:	f043 0202 	orr.w	r2, r3, #2
 8004e8a:	687b      	ldr	r3, [r7, #4]
 8004e8c:	645a      	str	r2, [r3, #68]	@ 0x44
    }

    /* UART frame error interrupt occurred -----------------------------------*/
    if (((isrflags & USART_SR_FE) != RESET) && ((cr3its & USART_CR3_EIE) != RESET))
 8004e8e:	f8d7 30e4 	ldr.w	r3, [r7, #228]	@ 0xe4
 8004e92:	f003 0302 	and.w	r3, r3, #2
 8004e96:	2b00      	cmp	r3, #0
 8004e98:	d00b      	beq.n	8004eb2 <HAL_UART_IRQHandler+0xf6>
 8004e9a:	f8d7 30dc 	ldr.w	r3, [r7, #220]	@ 0xdc
 8004e9e:	f003 0301 	and.w	r3, r3, #1
 8004ea2:	2b00      	cmp	r3, #0
 8004ea4:	d005      	beq.n	8004eb2 <HAL_UART_IRQHandler+0xf6>
    {
      huart->ErrorCode |= HAL_UART_ERROR_FE;
 8004ea6:	687b      	ldr	r3, [r7, #4]
 8004ea8:	6c5b      	ldr	r3, [r3, #68]	@ 0x44
 8004eaa:	f043 0204 	orr.w	r2, r3, #4
 8004eae:	687b      	ldr	r3, [r7, #4]
 8004eb0:	645a      	str	r2, [r3, #68]	@ 0x44
    }

    /* UART Over-Run interrupt occurred --------------------------------------*/
    if (((isrflags & USART_SR_ORE) != RESET) && (((cr1its & USART_CR1_RXNEIE) != RESET)
 8004eb2:	f8d7 30e4 	ldr.w	r3, [r7, #228]	@ 0xe4
 8004eb6:	f003 0308 	and.w	r3, r3, #8
 8004eba:	2b00      	cmp	r3, #0
 8004ebc:	d011      	beq.n	8004ee2 <HAL_UART_IRQHandler+0x126>
 8004ebe:	f8d7 30e0 	ldr.w	r3, [r7, #224]	@ 0xe0
 8004ec2:	f003 0320 	and.w	r3, r3, #32
 8004ec6:	2b00      	cmp	r3, #0
 8004ec8:	d105      	bne.n	8004ed6 <HAL_UART_IRQHandler+0x11a>
                                                 || ((cr3its & USART_CR3_EIE) != RESET)))
 8004eca:	f8d7 30dc 	ldr.w	r3, [r7, #220]	@ 0xdc
 8004ece:	f003 0301 	and.w	r3, r3, #1
 8004ed2:	2b00      	cmp	r3, #0
 8004ed4:	d005      	beq.n	8004ee2 <HAL_UART_IRQHandler+0x126>
    {
      huart->ErrorCode |= HAL_UART_ERROR_ORE;
 8004ed6:	687b      	ldr	r3, [r7, #4]
 8004ed8:	6c5b      	ldr	r3, [r3, #68]	@ 0x44
 8004eda:	f043 0208 	orr.w	r2, r3, #8
 8004ede:	687b      	ldr	r3, [r7, #4]
 8004ee0:	645a      	str	r2, [r3, #68]	@ 0x44
    }

    /* Call UART Error Call back function if need be --------------------------*/
    if (huart->ErrorCode != HAL_UART_ERROR_NONE)
 8004ee2:	687b      	ldr	r3, [r7, #4]
 8004ee4:	6c5b      	ldr	r3, [r3, #68]	@ 0x44
 8004ee6:	2b00      	cmp	r3, #0
 8004ee8:	f000 81f2 	beq.w	80052d0 <HAL_UART_IRQHandler+0x514>
    {
      /* UART in mode Receiver -----------------------------------------------*/
      if (((isrflags & USART_SR_RXNE) != RESET) && ((cr1its & USART_CR1_RXNEIE) != RESET))
 8004eec:	f8d7 30e4 	ldr.w	r3, [r7, #228]	@ 0xe4
 8004ef0:	f003 0320 	and.w	r3, r3, #32
 8004ef4:	2b00      	cmp	r3, #0
 8004ef6:	d008      	beq.n	8004f0a <HAL_UART_IRQHandler+0x14e>
 8004ef8:	f8d7 30e0 	ldr.w	r3, [r7, #224]	@ 0xe0
 8004efc:	f003 0320 	and.w	r3, r3, #32
 8004f00:	2b00      	cmp	r3, #0
 8004f02:	d002      	beq.n	8004f0a <HAL_UART_IRQHandler+0x14e>
      {
        UART_Receive_IT(huart);
 8004f04:	6878      	ldr	r0, [r7, #4]
 8004f06:	f000 fb1e 	bl	8005546 <UART_Receive_IT>
      }

      /* If Overrun error occurs, or if any error occurs in DMA mode reception,
         consider error as blocking */
      dmarequest = HAL_IS_BIT_SET(huart->Instance->CR3, USART_CR3_DMAR);
 8004f0a:	687b      	ldr	r3, [r7, #4]
 8004f0c:	681b      	ldr	r3, [r3, #0]
 8004f0e:	695b      	ldr	r3, [r3, #20]
 8004f10:	f003 0340 	and.w	r3, r3, #64	@ 0x40
 8004f14:	2b00      	cmp	r3, #0
 8004f16:	bf14      	ite	ne
 8004f18:	2301      	movne	r3, #1
 8004f1a:	2300      	moveq	r3, #0
 8004f1c:	b2db      	uxtb	r3, r3
 8004f1e:	f8c7 30d4 	str.w	r3, [r7, #212]	@ 0xd4
      if (((huart->ErrorCode & HAL_UART_ERROR_ORE) != RESET) || dmarequest)
 8004f22:	687b      	ldr	r3, [r7, #4]
 8004f24:	6c5b      	ldr	r3, [r3, #68]	@ 0x44
 8004f26:	f003 0308 	and.w	r3, r3, #8
 8004f2a:	2b00      	cmp	r3, #0
 8004f2c:	d103      	bne.n	8004f36 <HAL_UART_IRQHandler+0x17a>
 8004f2e:	f8d7 30d4 	ldr.w	r3, [r7, #212]	@ 0xd4
 8004f32:	2b00      	cmp	r3, #0
 8004f34:	d04f      	beq.n	8004fd6 <HAL_UART_IRQHandler+0x21a>
      {
        /* Blocking error : transfer is aborted
           Set the UART state ready to be able to start again the process,
           Disable Rx Interrupts, and disable Rx DMA request, if ongoing */
        UART_EndRxTransfer(huart);
 8004f36:	6878      	ldr	r0, [r7, #4]
 8004f38:	f000 fa28 	bl	800538c <UART_EndRxTransfer>

        /* Disable the UART DMA Rx request if enabled */
        if (HAL_IS_BIT_SET(huart->Instance->CR3, USART_CR3_DMAR))
 8004f3c:	687b      	ldr	r3, [r7, #4]
 8004f3e:	681b      	ldr	r3, [r3, #0]
 8004f40:	695b      	ldr	r3, [r3, #20]
 8004f42:	f003 0340 	and.w	r3, r3, #64	@ 0x40
 8004f46:	2b00      	cmp	r3, #0
 8004f48:	d041      	beq.n	8004fce <HAL_UART_IRQHandler+0x212>
        {
          ATOMIC_CLEAR_BIT(huart->Instance->CR3, USART_CR3_DMAR);
 8004f4a:	687b      	ldr	r3, [r7, #4]
 8004f4c:	681b      	ldr	r3, [r3, #0]
 8004f4e:	3314      	adds	r3, #20
 8004f50:	f8c7 309c 	str.w	r3, [r7, #156]	@ 0x9c
 */
__STATIC_FORCEINLINE uint32_t __LDREXW(volatile uint32_t *addr)
{
    uint32_t result;

   __ASM volatile ("ldrex %0, %1" : "=r" (result) : "Q" (*addr) );
 8004f54:	f8d7 309c 	ldr.w	r3, [r7, #156]	@ 0x9c
 8004f58:	e853 3f00 	ldrex	r3, [r3]
 8004f5c:	f8c7 3098 	str.w	r3, [r7, #152]	@ 0x98
   return(result);
 8004f60:	f8d7 3098 	ldr.w	r3, [r7, #152]	@ 0x98
 8004f64:	f023 0340 	bic.w	r3, r3, #64	@ 0x40
 8004f68:	f8c7 30d0 	str.w	r3, [r7, #208]	@ 0xd0
 8004f6c:	687b      	ldr	r3, [r7, #4]
 8004f6e:	681b      	ldr	r3, [r3, #0]
 8004f70:	3314      	adds	r3, #20
 8004f72:	f8d7 20d0 	ldr.w	r2, [r7, #208]	@ 0xd0
 8004f76:	f8c7 20a8 	str.w	r2, [r7, #168]	@ 0xa8
 8004f7a:	f8c7 30a4 	str.w	r3, [r7, #164]	@ 0xa4
 */
__STATIC_FORCEINLINE uint32_t __STREXW(uint32_t value, volatile uint32_t *addr)
{
   uint32_t result;

   __ASM volatile ("strex %0, %2, %1" : "=&r" (result), "=Q" (*addr) : "r" (value) );
 8004f7e:	f8d7 10a4 	ldr.w	r1, [r7, #164]	@ 0xa4
 8004f82:	f8d7 20a8 	ldr.w	r2, [r7, #168]	@ 0xa8
 8004f86:	e841 2300 	strex	r3, r2, [r1]
 8004f8a:	f8c7 30a0 	str.w	r3, [r7, #160]	@ 0xa0
   return(result);
 8004f8e:	f8d7 30a0 	ldr.w	r3, [r7, #160]	@ 0xa0
 8004f92:	2b00      	cmp	r3, #0
 8004f94:	d1d9      	bne.n	8004f4a <HAL_UART_IRQHandler+0x18e>

          /* Abort the UART DMA Rx channel */
          if (huart->hdmarx != NULL)
 8004f96:	687b      	ldr	r3, [r7, #4]
 8004f98:	6bdb      	ldr	r3, [r3, #60]	@ 0x3c
 8004f9a:	2b00      	cmp	r3, #0
 8004f9c:	d013      	beq.n	8004fc6 <HAL_UART_IRQHandler+0x20a>
          {
            /* Set the UART DMA Abort callback :
               will lead to call HAL_UART_ErrorCallback() at end of DMA abort procedure */
            huart->hdmarx->XferAbortCallback = UART_DMAAbortOnError;
 8004f9e:	687b      	ldr	r3, [r7, #4]
 8004fa0:	6bdb      	ldr	r3, [r3, #60]	@ 0x3c
 8004fa2:	4a7e      	ldr	r2, [pc, #504]	@ (800519c <HAL_UART_IRQHandler+0x3e0>)
 8004fa4:	635a      	str	r2, [r3, #52]	@ 0x34
            if (HAL_DMA_Abort_IT(huart->hdmarx) != HAL_OK)
 8004fa6:	687b      	ldr	r3, [r7, #4]
 8004fa8:	6bdb      	ldr	r3, [r3, #60]	@ 0x3c
 8004faa:	4618      	mov	r0, r3
 8004fac:	f7fd fe9c 	bl	8002ce8 <HAL_DMA_Abort_IT>
 8004fb0:	4603      	mov	r3, r0
 8004fb2:	2b00      	cmp	r3, #0
 8004fb4:	d016      	beq.n	8004fe4 <HAL_UART_IRQHandler+0x228>
            {
              /* Call Directly XferAbortCallback function in case of error */
              huart->hdmarx->XferAbortCallback(huart->hdmarx);
 8004fb6:	687b      	ldr	r3, [r7, #4]
 8004fb8:	6bdb      	ldr	r3, [r3, #60]	@ 0x3c
 8004fba:	6b5b      	ldr	r3, [r3, #52]	@ 0x34
 8004fbc:	687a      	ldr	r2, [r7, #4]
 8004fbe:	6bd2      	ldr	r2, [r2, #60]	@ 0x3c
 8004fc0:	4610      	mov	r0, r2
 8004fc2:	4798      	blx	r3
        if (HAL_IS_BIT_SET(huart->Instance->CR3, USART_CR3_DMAR))
 8004fc4:	e00e      	b.n	8004fe4 <HAL_UART_IRQHandler+0x228>
#if (USE_HAL_UART_REGISTER_CALLBACKS == 1)
            /*Call registered error callback*/
            huart->ErrorCallback(huart);
#else
            /*Call legacy weak error callback*/
            HAL_UART_ErrorCallback(huart);
 8004fc6:	6878      	ldr	r0, [r7, #4]
 8004fc8:	f000 f993 	bl	80052f2 <HAL_UART_ErrorCallback>
        if (HAL_IS_BIT_SET(huart->Instance->CR3, USART_CR3_DMAR))
 8004fcc:	e00a      	b.n	8004fe4 <HAL_UART_IRQHandler+0x228>
#if (USE_HAL_UART_REGISTER_CALLBACKS == 1)
          /*Call registered error callback*/
          huart->ErrorCallback(huart);
#else
          /*Call legacy weak error callback*/
          HAL_UART_ErrorCallback(huart);
 8004fce:	6878      	ldr	r0, [r7, #4]
 8004fd0:	f000 f98f 	bl	80052f2 <HAL_UART_ErrorCallback>
        if (HAL_IS_BIT_SET(huart->Instance->CR3, USART_CR3_DMAR))
 8004fd4:	e006      	b.n	8004fe4 <HAL_UART_IRQHandler+0x228>
#if (USE_HAL_UART_REGISTER_CALLBACKS == 1)
        /*Call registered error callback*/
        huart->ErrorCallback(huart);
#else
        /*Call legacy weak error callback*/
        HAL_UART_ErrorCallback(huart);
 8004fd6:	6878      	ldr	r0, [r7, #4]
 8004fd8:	f000 f98b 	bl	80052f2 <HAL_UART_ErrorCallback>
#endif /* USE_HAL_UART_REGISTER_CALLBACKS */

        huart->ErrorCode = HAL_UART_ERROR_NONE;
 8004fdc:	687b      	ldr	r3, [r7, #4]
 8004fde:	2200      	movs	r2, #0
 8004fe0:	645a      	str	r2, [r3, #68]	@ 0x44
      }
    }
    return;
 8004fe2:	e175      	b.n	80052d0 <HAL_UART_IRQHandler+0x514>
        if (HAL_IS_BIT_SET(huart->Instance->CR3, USART_CR3_DMAR))
 8004fe4:	bf00      	nop
    return;
 8004fe6:	e173      	b.n	80052d0 <HAL_UART_IRQHandler+0x514>
  } /* End if some error occurs */

  /* Check current reception Mode :
     If Reception till IDLE event has been selected : */
  if ((huart->ReceptionType == HAL_UART_RECEPTION_TOIDLE)
 8004fe8:	687b      	ldr	r3, [r7, #4]
 8004fea:	6b1b      	ldr	r3, [r3, #48]	@ 0x30
 8004fec:	2b01      	cmp	r3, #1
 8004fee:	f040 814f 	bne.w	8005290 <HAL_UART_IRQHandler+0x4d4>
      && ((isrflags & USART_SR_IDLE) != 0U)
 8004ff2:	f8d7 30e4 	ldr.w	r3, [r7, #228]	@ 0xe4
 8004ff6:	f003 0310 	and.w	r3, r3, #16
 8004ffa:	2b00      	cmp	r3, #0
 8004ffc:	f000 8148 	beq.w	8005290 <HAL_UART_IRQHandler+0x4d4>
      && ((cr1its & USART_SR_IDLE) != 0U))
 8005000:	f8d7 30e0 	ldr.w	r3, [r7, #224]	@ 0xe0
 8005004:	f003 0310 	and.w	r3, r3, #16
 8005008:	2b00      	cmp	r3, #0
 800500a:	f000 8141 	beq.w	8005290 <HAL_UART_IRQHandler+0x4d4>
  {
    __HAL_UART_CLEAR_IDLEFLAG(huart);
 800500e:	2300      	movs	r3, #0
 8005010:	60bb      	str	r3, [r7, #8]
 8005012:	687b      	ldr	r3, [r7, #4]
 8005014:	681b      	ldr	r3, [r3, #0]
 8005016:	681b      	ldr	r3, [r3, #0]
 8005018:	60bb      	str	r3, [r7, #8]
 800501a:	687b      	ldr	r3, [r7, #4]
 800501c:	681b      	ldr	r3, [r3, #0]
 800501e:	685b      	ldr	r3, [r3, #4]
 8005020:	60bb      	str	r3, [r7, #8]
 8005022:	68bb      	ldr	r3, [r7, #8]

    /* Check if DMA mode is enabled in UART */
    if (HAL_IS_BIT_SET(huart->Instance->CR3, USART_CR3_DMAR))
 8005024:	687b      	ldr	r3, [r7, #4]
 8005026:	681b      	ldr	r3, [r3, #0]
 8005028:	695b      	ldr	r3, [r3, #20]
 800502a:	f003 0340 	and.w	r3, r3, #64	@ 0x40
 800502e:	2b00      	cmp	r3, #0
 8005030:	f000 80b6 	beq.w	80051a0 <HAL_UART_IRQHandler+0x3e4>
    {
      /* DMA mode enabled */
      /* Check received length : If all expected data are received, do nothing,
         (DMA cplt callback will be called).
         Otherwise, if at least one data has already been received, IDLE event is to be notified to user */
      uint16_t nb_remaining_rx_data = (uint16_t) __HAL_DMA_GET_COUNTER(huart->hdmarx);
 8005034:	687b      	ldr	r3, [r7, #4]
 8005036:	6bdb      	ldr	r3, [r3, #60]	@ 0x3c
 8005038:	681b      	ldr	r3, [r3, #0]
 800503a:	685b      	ldr	r3, [r3, #4]
 800503c:	f8a7 30be 	strh.w	r3, [r7, #190]	@ 0xbe
      if ((nb_remaining_rx_data > 0U)
 8005040:	f8b7 30be 	ldrh.w	r3, [r7, #190]	@ 0xbe
 8005044:	2b00      	cmp	r3, #0
 8005046:	f000 8145 	beq.w	80052d4 <HAL_UART_IRQHandler+0x518>
          && (nb_remaining_rx_data < huart->RxXferSize))
 800504a:	687b      	ldr	r3, [r7, #4]
 800504c:	8d9b      	ldrh	r3, [r3, #44]	@ 0x2c
 800504e:	f8b7 20be 	ldrh.w	r2, [r7, #190]	@ 0xbe
 8005052:	429a      	cmp	r2, r3
 8005054:	f080 813e 	bcs.w	80052d4 <HAL_UART_IRQHandler+0x518>
      {
        /* Reception is not complete */
        huart->RxXferCount = nb_remaining_rx_data;
 8005058:	687b      	ldr	r3, [r7, #4]
 800505a:	f8b7 20be 	ldrh.w	r2, [r7, #190]	@ 0xbe
 800505e:	85da      	strh	r2, [r3, #46]	@ 0x2e

        /* In Normal mode, end DMA xfer and HAL UART Rx process*/
        if (huart->hdmarx->Init.Mode != DMA_CIRCULAR)
 8005060:	687b      	ldr	r3, [r7, #4]
 8005062:	6bdb      	ldr	r3, [r3, #60]	@ 0x3c
 8005064:	699b      	ldr	r3, [r3, #24]
 8005066:	2b20      	cmp	r3, #32
 8005068:	f000 8088 	beq.w	800517c <HAL_UART_IRQHandler+0x3c0>
        {
          /* Disable PE and ERR (Frame error, noise error, overrun error) interrupts */
          ATOMIC_CLEAR_BIT(huart->Instance->CR1, USART_CR1_PEIE);
 800506c:	687b      	ldr	r3, [r7, #4]
 800506e:	681b      	ldr	r3, [r3, #0]
 8005070:	330c      	adds	r3, #12
 8005072:	f8c7 3088 	str.w	r3, [r7, #136]	@ 0x88
   __ASM volatile ("ldrex %0, %1" : "=r" (result) : "Q" (*addr) );
 8005076:	f8d7 3088 	ldr.w	r3, [r7, #136]	@ 0x88
 800507a:	e853 3f00 	ldrex	r3, [r3]
 800507e:	f8c7 3084 	str.w	r3, [r7, #132]	@ 0x84
   return(result);
 8005082:	f8d7 3084 	ldr.w	r3, [r7, #132]	@ 0x84
 8005086:	f423 7380 	bic.w	r3, r3, #256	@ 0x100
 800508a:	f8c7 30b8 	str.w	r3, [r7, #184]	@ 0xb8
 800508e:	687b      	ldr	r3, [r7, #4]
 8005090:	681b      	ldr	r3, [r3, #0]
 8005092:	330c      	adds	r3, #12
 8005094:	f8d7 20b8 	ldr.w	r2, [r7, #184]	@ 0xb8
 8005098:	f8c7 2094 	str.w	r2, [r7, #148]	@ 0x94
 800509c:	f8c7 3090 	str.w	r3, [r7, #144]	@ 0x90
   __ASM volatile ("strex %0, %2, %1" : "=&r" (result), "=Q" (*addr) : "r" (value) );
 80050a0:	f8d7 1090 	ldr.w	r1, [r7, #144]	@ 0x90
 80050a4:	f8d7 2094 	ldr.w	r2, [r7, #148]	@ 0x94
 80050a8:	e841 2300 	strex	r3, r2, [r1]
 80050ac:	f8c7 308c 	str.w	r3, [r7, #140]	@ 0x8c
   return(result);
 80050b0:	f8d7 308c 	ldr.w	r3, [r7, #140]	@ 0x8c
 80050b4:	2b00      	cmp	r3, #0
 80050b6:	d1d9      	bne.n	800506c <HAL_UART_IRQHandler+0x2b0>
          ATOMIC_CLEAR_BIT(huart->Instance->CR3, USART_CR3_EIE);
 80050b8:	687b      	ldr	r3, [r7, #4]
 80050ba:	681b      	ldr	r3, [r3, #0]
 80050bc:	3314      	adds	r3, #20
 80050be:	677b      	str	r3, [r7, #116]	@ 0x74
   __ASM volatile ("ldrex %0, %1" : "=r" (result) : "Q" (*addr) );
 80050c0:	6f7b      	ldr	r3, [r7, #116]	@ 0x74
 80050c2:	e853 3f00 	ldrex	r3, [r3]
 80050c6:	673b      	str	r3, [r7, #112]	@ 0x70
   return(result);
 80050c8:	6f3b      	ldr	r3, [r7, #112]	@ 0x70
 80050ca:	f023 0301 	bic.w	r3, r3, #1
 80050ce:	f8c7 30b4 	str.w	r3, [r7, #180]	@ 0xb4
 80050d2:	687b      	ldr	r3, [r7, #4]
 80050d4:	681b      	ldr	r3, [r3, #0]
 80050d6:	3314      	adds	r3, #20
 80050d8:	f8d7 20b4 	ldr.w	r2, [r7, #180]	@ 0xb4
 80050dc:	f8c7 2080 	str.w	r2, [r7, #128]	@ 0x80
 80050e0:	67fb      	str	r3, [r7, #124]	@ 0x7c
   __ASM volatile ("strex %0, %2, %1" : "=&r" (result), "=Q" (*addr) : "r" (value) );
 80050e2:	6ff9      	ldr	r1, [r7, #124]	@ 0x7c
 80050e4:	f8d7 2080 	ldr.w	r2, [r7, #128]	@ 0x80
 80050e8:	e841 2300 	strex	r3, r2, [r1]
 80050ec:	67bb      	str	r3, [r7, #120]	@ 0x78
   return(result);
 80050ee:	6fbb      	ldr	r3, [r7, #120]	@ 0x78
 80050f0:	2b00      	cmp	r3, #0
 80050f2:	d1e1      	bne.n	80050b8 <HAL_UART_IRQHandler+0x2fc>

          /* Disable the DMA transfer for the receiver request by resetting the DMAR bit
             in the UART CR3 register */
          ATOMIC_CLEAR_BIT(huart->Instance->CR3, USART_CR3_DMAR);
 80050f4:	687b      	ldr	r3, [r7, #4]
 80050f6:	681b      	ldr	r3, [r3, #0]
 80050f8:	3314      	adds	r3, #20
 80050fa:	663b      	str	r3, [r7, #96]	@ 0x60
   __ASM volatile ("ldrex %0, %1" : "=r" (result) : "Q" (*addr) );
 80050fc:	6e3b      	ldr	r3, [r7, #96]	@ 0x60
 80050fe:	e853 3f00 	ldrex	r3, [r3]
 8005102:	65fb      	str	r3, [r7, #92]	@ 0x5c
   return(result);
 8005104:	6dfb      	ldr	r3, [r7, #92]	@ 0x5c
 8005106:	f023 0340 	bic.w	r3, r3, #64	@ 0x40
 800510a:	f8c7 30b0 	str.w	r3, [r7, #176]	@ 0xb0
 800510e:	687b      	ldr	r3, [r7, #4]
 8005110:	681b      	ldr	r3, [r3, #0]
 8005112:	3314      	adds	r3, #20
 8005114:	f8d7 20b0 	ldr.w	r2, [r7, #176]	@ 0xb0
 8005118:	66fa      	str	r2, [r7, #108]	@ 0x6c
 800511a:	66bb      	str	r3, [r7, #104]	@ 0x68
   __ASM volatile ("strex %0, %2, %1" : "=&r" (result), "=Q" (*addr) : "r" (value) );
 800511c:	6eb9      	ldr	r1, [r7, #104]	@ 0x68
 800511e:	6efa      	ldr	r2, [r7, #108]	@ 0x6c
 8005120:	e841 2300 	strex	r3, r2, [r1]
 8005124:	667b      	str	r3, [r7, #100]	@ 0x64
   return(result);
 8005126:	6e7b      	ldr	r3, [r7, #100]	@ 0x64
 8005128:	2b00      	cmp	r3, #0
 800512a:	d1e3      	bne.n	80050f4 <HAL_UART_IRQHandler+0x338>

          /* At end of Rx process, restore huart->RxState to Ready */
          huart->RxState = HAL_UART_STATE_READY;
 800512c:	687b      	ldr	r3, [r7, #4]
 800512e:	2220      	movs	r2, #32
 8005130:	f883 2042 	strb.w	r2, [r3, #66]	@ 0x42
          huart->ReceptionType = HAL_UART_RECEPTION_STANDARD;
 8005134:	687b      	ldr	r3, [r7, #4]
 8005136:	2200      	movs	r2, #0
 8005138:	631a      	str	r2, [r3, #48]	@ 0x30

          ATOMIC_CLEAR_BIT(huart->Instance->CR1, USART_CR1_IDLEIE);
 800513a:	687b      	ldr	r3, [r7, #4]
 800513c:	681b      	ldr	r3, [r3, #0]
 800513e:	330c      	adds	r3, #12
 8005140:	64fb      	str	r3, [r7, #76]	@ 0x4c
   __ASM volatile ("ldrex %0, %1" : "=r" (result) : "Q" (*addr) );
 8005142:	6cfb      	ldr	r3, [r7, #76]	@ 0x4c
 8005144:	e853 3f00 	ldrex	r3, [r3]
 8005148:	64bb      	str	r3, [r7, #72]	@ 0x48
   return(result);
 800514a:	6cbb      	ldr	r3, [r7, #72]	@ 0x48
 800514c:	f023 0310 	bic.w	r3, r3, #16
 8005150:	f8c7 30ac 	str.w	r3, [r7, #172]	@ 0xac
 8005154:	687b      	ldr	r3, [r7, #4]
 8005156:	681b      	ldr	r3, [r3, #0]
 8005158:	330c      	adds	r3, #12
 800515a:	f8d7 20ac 	ldr.w	r2, [r7, #172]	@ 0xac
 800515e:	65ba      	str	r2, [r7, #88]	@ 0x58
 8005160:	657b      	str	r3, [r7, #84]	@ 0x54
   __ASM volatile ("strex %0, %2, %1" : "=&r" (result), "=Q" (*addr) : "r" (value) );
 8005162:	6d79      	ldr	r1, [r7, #84]	@ 0x54
 8005164:	6dba      	ldr	r2, [r7, #88]	@ 0x58
 8005166:	e841 2300 	strex	r3, r2, [r1]
 800516a:	653b      	str	r3, [r7, #80]	@ 0x50
   return(result);
 800516c:	6d3b      	ldr	r3, [r7, #80]	@ 0x50
 800516e:	2b00      	cmp	r3, #0
 8005170:	d1e3      	bne.n	800513a <HAL_UART_IRQHandler+0x37e>

          /* Last bytes received, so no need as the abort is immediate */
          (void)HAL_DMA_Abort(huart->hdmarx);
 8005172:	687b      	ldr	r3, [r7, #4]
 8005174:	6bdb      	ldr	r3, [r3, #60]	@ 0x3c
 8005176:	4618      	mov	r0, r3
 8005178:	f7fd fd7b 	bl	8002c72 <HAL_DMA_Abort>
        }

        /* Initialize type of RxEvent that correspond to RxEvent callback execution;
        In this case, Rx Event type is Idle Event */
        huart->RxEventType = HAL_UART_RXEVENT_IDLE;
 800517c:	687b      	ldr	r3, [r7, #4]
 800517e:	2202      	movs	r2, #2
 8005180:	635a      	str	r2, [r3, #52]	@ 0x34
#if (USE_HAL_UART_REGISTER_CALLBACKS == 1)
        /*Call registered Rx Event callback*/
        huart->RxEventCallback(huart, (huart->RxXferSize - huart->RxXferCount));
#else
        /*Call legacy weak Rx Event callback*/
        HAL_UARTEx_RxEventCallback(huart, (huart->RxXferSize - huart->RxXferCount));
 8005182:	687b      	ldr	r3, [r7, #4]
 8005184:	8d9a      	ldrh	r2, [r3, #44]	@ 0x2c
 8005186:	687b      	ldr	r3, [r7, #4]
 8005188:	8ddb      	ldrh	r3, [r3, #46]	@ 0x2e
 800518a:	b29b      	uxth	r3, r3
 800518c:	1ad3      	subs	r3, r2, r3
 800518e:	b29b      	uxth	r3, r3
 8005190:	4619      	mov	r1, r3
 8005192:	6878      	ldr	r0, [r7, #4]
 8005194:	f000 f8b6 	bl	8005304 <HAL_UARTEx_RxEventCallback>
#endif /* USE_HAL_UART_REGISTER_CALLBACKS */
      }
      return;
 8005198:	e09c      	b.n	80052d4 <HAL_UART_IRQHandler+0x518>
 800519a:	bf00      	nop
 800519c:	08005451 	.word	0x08005451
    else
    {
      /* DMA mode not enabled */
      /* Check received length : If all expected data are received, do nothing.
         Otherwise, if at least one data has already been received, IDLE event is to be notified to user */
      uint16_t nb_rx_data = huart->RxXferSize - huart->RxXferCount;
 80051a0:	687b      	ldr	r3, [r7, #4]
 80051a2:	8d9a      	ldrh	r2, [r3, #44]	@ 0x2c
 80051a4:	687b      	ldr	r3, [r7, #4]
 80051a6:	8ddb      	ldrh	r3, [r3, #46]	@ 0x2e
 80051a8:	b29b      	uxth	r3, r3
 80051aa:	1ad3      	subs	r3, r2, r3
 80051ac:	f8a7 30ce 	strh.w	r3, [r7, #206]	@ 0xce
      if ((huart->RxXferCount > 0U)
 80051b0:	687b      	ldr	r3, [r7, #4]
 80051b2:	8ddb      	ldrh	r3, [r3, #46]	@ 0x2e
 80051b4:	b29b      	uxth	r3, r3
 80051b6:	2b00      	cmp	r3, #0
 80051b8:	f000 808e 	beq.w	80052d8 <HAL_UART_IRQHandler+0x51c>
          && (nb_rx_data > 0U))
 80051bc:	f8b7 30ce 	ldrh.w	r3, [r7, #206]	@ 0xce
 80051c0:	2b00      	cmp	r3, #0
 80051c2:	f000 8089 	beq.w	80052d8 <HAL_UART_IRQHandler+0x51c>
      {
        /* Disable the UART Parity Error Interrupt and RXNE interrupts */
        ATOMIC_CLEAR_BIT(huart->Instance->CR1, (USART_CR1_RXNEIE | USART_CR1_PEIE));
 80051c6:	687b      	ldr	r3, [r7, #4]
 80051c8:	681b      	ldr	r3, [r3, #0]
 80051ca:	330c      	adds	r3, #12
 80051cc:	63bb      	str	r3, [r7, #56]	@ 0x38
   __ASM volatile ("ldrex %0, %1" : "=r" (result) : "Q" (*addr) );
 80051ce:	6bbb      	ldr	r3, [r7, #56]	@ 0x38
 80051d0:	e853 3f00 	ldrex	r3, [r3]
 80051d4:	637b      	str	r3, [r7, #52]	@ 0x34
   return(result);
 80051d6:	6b7b      	ldr	r3, [r7, #52]	@ 0x34
 80051d8:	f423 7390 	bic.w	r3, r3, #288	@ 0x120
 80051dc:	f8c7 30c8 	str.w	r3, [r7, #200]	@ 0xc8
 80051e0:	687b      	ldr	r3, [r7, #4]
 80051e2:	681b      	ldr	r3, [r3, #0]
 80051e4:	330c      	adds	r3, #12
 80051e6:	f8d7 20c8 	ldr.w	r2, [r7, #200]	@ 0xc8
 80051ea:	647a      	str	r2, [r7, #68]	@ 0x44
 80051ec:	643b      	str	r3, [r7, #64]	@ 0x40
   __ASM volatile ("strex %0, %2, %1" : "=&r" (result), "=Q" (*addr) : "r" (value) );
 80051ee:	6c39      	ldr	r1, [r7, #64]	@ 0x40
 80051f0:	6c7a      	ldr	r2, [r7, #68]	@ 0x44
 80051f2:	e841 2300 	strex	r3, r2, [r1]
 80051f6:	63fb      	str	r3, [r7, #60]	@ 0x3c
   return(result);
 80051f8:	6bfb      	ldr	r3, [r7, #60]	@ 0x3c
 80051fa:	2b00      	cmp	r3, #0
 80051fc:	d1e3      	bne.n	80051c6 <HAL_UART_IRQHandler+0x40a>

        /* Disable the UART Error Interrupt: (Frame error, noise error, overrun error) */
        ATOMIC_CLEAR_BIT(huart->Instance->CR3, USART_CR3_EIE);
 80051fe:	687b      	ldr	r3, [r7, #4]
 8005200:	681b      	ldr	r3, [r3, #0]
 8005202:	3314      	adds	r3, #20
 8005204:	627b      	str	r3, [r7, #36]	@ 0x24
   __ASM volatile ("ldrex %0, %1" : "=r" (result) : "Q" (*addr) );
 8005206:	6a7b      	ldr	r3, [r7, #36]	@ 0x24
 8005208:	e853 3f00 	ldrex	r3, [r3]
 800520c:	623b      	str	r3, [r7, #32]
   return(result);
 800520e:	6a3b      	ldr	r3, [r7, #32]
 8005210:	f023 0301 	bic.w	r3, r3, #1
 8005214:	f8c7 30c4 	str.w	r3, [r7, #196]	@ 0xc4
 8005218:	687b      	ldr	r3, [r7, #4]
 800521a:	681b      	ldr	r3, [r3, #0]
 800521c:	3314      	adds	r3, #20
 800521e:	f8d7 20c4 	ldr.w	r2, [r7, #196]	@ 0xc4
 8005222:	633a      	str	r2, [r7, #48]	@ 0x30
 8005224:	62fb      	str	r3, [r7, #44]	@ 0x2c
   __ASM volatile ("strex %0, %2, %1" : "=&r" (result), "=Q" (*addr) : "r" (value) );
 8005226:	6af9      	ldr	r1, [r7, #44]	@ 0x2c
 8005228:	6b3a      	ldr	r2, [r7, #48]	@ 0x30
 800522a:	e841 2300 	strex	r3, r2, [r1]
 800522e:	62bb      	str	r3, [r7, #40]	@ 0x28
   return(result);
 8005230:	6abb      	ldr	r3, [r7, #40]	@ 0x28
 8005232:	2b00      	cmp	r3, #0
 8005234:	d1e3      	bne.n	80051fe <HAL_UART_IRQHandler+0x442>

        /* Rx process is completed, restore huart->RxState to Ready */
        huart->RxState = HAL_UART_STATE_READY;
 8005236:	687b      	ldr	r3, [r7, #4]
 8005238:	2220      	movs	r2, #32
 800523a:	f883 2042 	strb.w	r2, [r3, #66]	@ 0x42
        huart->ReceptionType = HAL_UART_RECEPTION_STANDARD;
 800523e:	687b      	ldr	r3, [r7, #4]
 8005240:	2200      	movs	r2, #0
 8005242:	631a      	str	r2, [r3, #48]	@ 0x30

        ATOMIC_CLEAR_BIT(huart->Instance->CR1, USART_CR1_IDLEIE);
 8005244:	687b      	ldr	r3, [r7, #4]
 8005246:	681b      	ldr	r3, [r3, #0]
 8005248:	330c      	adds	r3, #12
 800524a:	613b      	str	r3, [r7, #16]
   __ASM volatile ("ldrex %0, %1" : "=r" (result) : "Q" (*addr) );
 800524c:	693b      	ldr	r3, [r7, #16]
 800524e:	e853 3f00 	ldrex	r3, [r3]
 8005252:	60fb      	str	r3, [r7, #12]
   return(result);
 8005254:	68fb      	ldr	r3, [r7, #12]
 8005256:	f023 0310 	bic.w	r3, r3, #16
 800525a:	f8c7 30c0 	str.w	r3, [r7, #192]	@ 0xc0
 800525e:	687b      	ldr	r3, [r7, #4]
 8005260:	681b      	ldr	r3, [r3, #0]
 8005262:	330c      	adds	r3, #12
 8005264:	f8d7 20c0 	ldr.w	r2, [r7, #192]	@ 0xc0
 8005268:	61fa      	str	r2, [r7, #28]
 800526a:	61bb      	str	r3, [r7, #24]
   __ASM volatile ("strex %0, %2, %1" : "=&r" (result), "=Q" (*addr) : "r" (value) );
 800526c:	69b9      	ldr	r1, [r7, #24]
 800526e:	69fa      	ldr	r2, [r7, #28]
 8005270:	e841 2300 	strex	r3, r2, [r1]
 8005274:	617b      	str	r3, [r7, #20]
   return(result);
 8005276:	697b      	ldr	r3, [r7, #20]
 8005278:	2b00      	cmp	r3, #0
 800527a:	d1e3      	bne.n	8005244 <HAL_UART_IRQHandler+0x488>

        /* Initialize type of RxEvent that correspond to RxEvent callback execution;
           In this case, Rx Event type is Idle Event */
        huart->RxEventType = HAL_UART_RXEVENT_IDLE;
 800527c:	687b      	ldr	r3, [r7, #4]
 800527e:	2202      	movs	r2, #2
 8005280:	635a      	str	r2, [r3, #52]	@ 0x34
#if (USE_HAL_UART_REGISTER_CALLBACKS == 1)
        /*Call registered Rx complete callback*/
        huart->RxEventCallback(huart, nb_rx_data);
#else
        /*Call legacy weak Rx Event callback*/
        HAL_UARTEx_RxEventCallback(huart, nb_rx_data);
 8005282:	f8b7 30ce 	ldrh.w	r3, [r7, #206]	@ 0xce
 8005286:	4619      	mov	r1, r3
 8005288:	6878      	ldr	r0, [r7, #4]
 800528a:	f000 f83b 	bl	8005304 <HAL_UARTEx_RxEventCallback>
#endif /* USE_HAL_UART_REGISTER_CALLBACKS */
      }
      return;
 800528e:	e023      	b.n	80052d8 <HAL_UART_IRQHandler+0x51c>
    }
  }

  /* UART in mode Transmitter ------------------------------------------------*/
  if (((isrflags & USART_SR_TXE) != RESET) && ((cr1its & USART_CR1_TXEIE) != RESET))
 8005290:	f8d7 30e4 	ldr.w	r3, [r7, #228]	@ 0xe4
 8005294:	f003 0380 	and.w	r3, r3, #128	@ 0x80
 8005298:	2b00      	cmp	r3, #0
 800529a:	d009      	beq.n	80052b0 <HAL_UART_IRQHandler+0x4f4>
 800529c:	f8d7 30e0 	ldr.w	r3, [r7, #224]	@ 0xe0
 80052a0:	f003 0380 	and.w	r3, r3, #128	@ 0x80
 80052a4:	2b00      	cmp	r3, #0
 80052a6:	d003      	beq.n	80052b0 <HAL_UART_IRQHandler+0x4f4>
  {
    UART_Transmit_IT(huart);
 80052a8:	6878      	ldr	r0, [r7, #4]
 80052aa:	f000 f8e5 	bl	8005478 <UART_Transmit_IT>
    return;
 80052ae:	e014      	b.n	80052da <HAL_UART_IRQHandler+0x51e>
  }

  /* UART in mode Transmitter end --------------------------------------------*/
  if (((isrflags & USART_SR_TC) != RESET) && ((cr1its & USART_CR1_TCIE) != RESET))
 80052b0:	f8d7 30e4 	ldr.w	r3, [r7, #228]	@ 0xe4
 80052b4:	f003 0340 	and.w	r3, r3, #64	@ 0x40
 80052b8:	2b00      	cmp	r3, #0
 80052ba:	d00e      	beq.n	80052da <HAL_UART_IRQHandler+0x51e>
 80052bc:	f8d7 30e0 	ldr.w	r3, [r7, #224]	@ 0xe0
 80052c0:	f003 0340 	and.w	r3, r3, #64	@ 0x40
 80052c4:	2b00      	cmp	r3, #0
 80052c6:	d008      	beq.n	80052da <HAL_UART_IRQHandler+0x51e>
  {
    UART_EndTransmit_IT(huart);
 80052c8:	6878      	ldr	r0, [r7, #4]
 80052ca:	f000 f924 	bl	8005516 <UART_EndTransmit_IT>
    return;
 80052ce:	e004      	b.n	80052da <HAL_UART_IRQHandler+0x51e>
    return;
 80052d0:	bf00      	nop
 80052d2:	e002      	b.n	80052da <HAL_UART_IRQHandler+0x51e>
      return;
 80052d4:	bf00      	nop
 80052d6:	e000      	b.n	80052da <HAL_UART_IRQHandler+0x51e>
      return;
 80052d8:	bf00      	nop
  }
}
 80052da:	37e8      	adds	r7, #232	@ 0xe8
 80052dc:	46bd      	mov	sp, r7
 80052de:	bd80      	pop	{r7, pc}

080052e0 <HAL_UART_TxCpltCallback>:
  * @param  huart  Pointer to a UART_HandleTypeDef structure that contains
  *                the configuration information for the specified UART module.
  * @retval None
  */
__weak void HAL_UART_TxCpltCallback(UART_HandleTypeDef *huart)
{
 80052e0:	b480      	push	{r7}
 80052e2:	b083      	sub	sp, #12
 80052e4:	af00      	add	r7, sp, #0
 80052e6:	6078      	str	r0, [r7, #4]
  /* Prevent unused argument(s) compilation warning */
  UNUSED(huart);
  /* NOTE: This function should not be modified, when the callback is needed,
           the HAL_UART_TxCpltCallback could be implemented in the user file
   */
}
 80052e8:	bf00      	nop
 80052ea:	370c      	adds	r7, #12
 80052ec:	46bd      	mov	sp, r7
 80052ee:	bc80      	pop	{r7}
 80052f0:	4770      	bx	lr

080052f2 <HAL_UART_ErrorCallback>:
  * @param  huart  Pointer to a UART_HandleTypeDef structure that contains
  *                the configuration information for the specified UART module.
  * @retval None
  */
__weak void HAL_UART_ErrorCallback(UART_HandleTypeDef *huart)
{
 80052f2:	b480      	push	{r7}
 80052f4:	b083      	sub	sp, #12
 80052f6:	af00      	add	r7, sp, #0
 80052f8:	6078      	str	r0, [r7, #4]
  /* Prevent unused argument(s) compilation warning */
  UNUSED(huart);
  /* NOTE: This function should not be modified, when the callback is needed,
           the HAL_UART_ErrorCallback could be implemented in the user file
   */
}
 80052fa:	bf00      	nop
 80052fc:	370c      	adds	r7, #12
 80052fe:	46bd      	mov	sp, r7
 8005300:	bc80      	pop	{r7}
 8005302:	4770      	bx	lr

08005304 <HAL_UARTEx_RxEventCallback>:
  * @param  Size  Number of data available in application reception buffer (indicates a position in
  *               reception buffer until which, data are available)
  * @retval None
  */
__weak void HAL_UARTEx_RxEventCallback(UART_HandleTypeDef *huart, uint16_t Size)
{
 8005304:	b480      	push	{r7}
 8005306:	b083      	sub	sp, #12
 8005308:	af00      	add	r7, sp, #0
 800530a:	6078      	str	r0, [r7, #4]
 800530c:	460b      	mov	r3, r1
 800530e:	807b      	strh	r3, [r7, #2]
  UNUSED(Size);

  /* NOTE : This function should not be modified, when the callback is needed,
            the HAL_UARTEx_RxEventCallback can be implemented in the user file.
   */
}
 8005310:	bf00      	nop
 8005312:	370c      	adds	r7, #12
 8005314:	46bd      	mov	sp, r7
 8005316:	bc80      	pop	{r7}
 8005318:	4770      	bx	lr

0800531a <UART_Start_Receive_IT>:
  * @param  pData Pointer to data buffer (u8 or u16 data elements).
  * @param  Size  Amount of data elements (u8 or u16) to be received.
  * @retval HAL status
  */
HAL_StatusTypeDef UART_Start_Receive_IT(UART_HandleTypeDef *huart, uint8_t *pData, uint16_t Size)
{
 800531a:	b480      	push	{r7}
 800531c:	b085      	sub	sp, #20
 800531e:	af00      	add	r7, sp, #0
 8005320:	60f8      	str	r0, [r7, #12]
 8005322:	60b9      	str	r1, [r7, #8]
 8005324:	4613      	mov	r3, r2
 8005326:	80fb      	strh	r3, [r7, #6]
  huart->pRxBuffPtr = pData;
 8005328:	68fb      	ldr	r3, [r7, #12]
 800532a:	68ba      	ldr	r2, [r7, #8]
 800532c:	629a      	str	r2, [r3, #40]	@ 0x28
  huart->RxXferSize = Size;
 800532e:	68fb      	ldr	r3, [r7, #12]
 8005330:	88fa      	ldrh	r2, [r7, #6]
 8005332:	859a      	strh	r2, [r3, #44]	@ 0x2c
  huart->RxXferCount = Size;
 8005334:	68fb      	ldr	r3, [r7, #12]
 8005336:	88fa      	ldrh	r2, [r7, #6]
 8005338:	85da      	strh	r2, [r3, #46]	@ 0x2e

  huart->ErrorCode = HAL_UART_ERROR_NONE;
 800533a:	68fb      	ldr	r3, [r7, #12]
 800533c:	2200      	movs	r2, #0
 800533e:	645a      	str	r2, [r3, #68]	@ 0x44
  huart->RxState = HAL_UART_STATE_BUSY_RX;
 8005340:	68fb      	ldr	r3, [r7, #12]
 8005342:	2222      	movs	r2, #34	@ 0x22
 8005344:	f883 2042 	strb.w	r2, [r3, #66]	@ 0x42

  if (huart->Init.Parity != UART_PARITY_NONE)
 8005348:	68fb      	ldr	r3, [r7, #12]
 800534a:	691b      	ldr	r3, [r3, #16]
 800534c:	2b00      	cmp	r3, #0
 800534e:	d007      	beq.n	8005360 <UART_Start_Receive_IT+0x46>
  {
    /* Enable the UART Parity Error Interrupt */
    __HAL_UART_ENABLE_IT(huart, UART_IT_PE);
 8005350:	68fb      	ldr	r3, [r7, #12]
 8005352:	681b      	ldr	r3, [r3, #0]
 8005354:	68da      	ldr	r2, [r3, #12]
 8005356:	68fb      	ldr	r3, [r7, #12]
 8005358:	681b      	ldr	r3, [r3, #0]
 800535a:	f442 7280 	orr.w	r2, r2, #256	@ 0x100
 800535e:	60da      	str	r2, [r3, #12]
  }

  /* Enable the UART Error Interrupt: (Frame error, noise error, overrun error) */
  __HAL_UART_ENABLE_IT(huart, UART_IT_ERR);
 8005360:	68fb      	ldr	r3, [r7, #12]
 8005362:	681b      	ldr	r3, [r3, #0]
 8005364:	695a      	ldr	r2, [r3, #20]
 8005366:	68fb      	ldr	r3, [r7, #12]
 8005368:	681b      	ldr	r3, [r3, #0]
 800536a:	f042 0201 	orr.w	r2, r2, #1
 800536e:	615a      	str	r2, [r3, #20]

  /* Enable the UART Data Register not empty Interrupt */
  __HAL_UART_ENABLE_IT(huart, UART_IT_RXNE);
 8005370:	68fb      	ldr	r3, [r7, #12]
 8005372:	681b      	ldr	r3, [r3, #0]
 8005374:	68da      	ldr	r2, [r3, #12]
 8005376:	68fb      	ldr	r3, [r7, #12]
 8005378:	681b      	ldr	r3, [r3, #0]
 800537a:	f042 0220 	orr.w	r2, r2, #32
 800537e:	60da      	str	r2, [r3, #12]

  return HAL_OK;
 8005380:	2300      	movs	r3, #0
}
 8005382:	4618      	mov	r0, r3
 8005384:	3714      	adds	r7, #20
 8005386:	46bd      	mov	sp, r7
 8005388:	bc80      	pop	{r7}
 800538a:	4770      	bx	lr

0800538c <UART_EndRxTransfer>:
  * @brief  End ongoing Rx transfer on UART peripheral (following error detection or Reception completion).
  * @param  huart UART handle.
  * @retval None
  */
static void UART_EndRxTransfer(UART_HandleTypeDef *huart)
{
 800538c:	b480      	push	{r7}
 800538e:	b095      	sub	sp, #84	@ 0x54
 8005390:	af00      	add	r7, sp, #0
 8005392:	6078      	str	r0, [r7, #4]
  /* Disable RXNE, PE and ERR (Frame error, noise error, overrun error) interrupts */
  ATOMIC_CLEAR_BIT(huart->Instance->CR1, (USART_CR1_RXNEIE | USART_CR1_PEIE));
 8005394:	687b      	ldr	r3, [r7, #4]
 8005396:	681b      	ldr	r3, [r3, #0]
 8005398:	330c      	adds	r3, #12
 800539a:	637b      	str	r3, [r7, #52]	@ 0x34
   __ASM volatile ("ldrex %0, %1" : "=r" (result) : "Q" (*addr) );
 800539c:	6b7b      	ldr	r3, [r7, #52]	@ 0x34
 800539e:	e853 3f00 	ldrex	r3, [r3]
 80053a2:	633b      	str	r3, [r7, #48]	@ 0x30
   return(result);
 80053a4:	6b3b      	ldr	r3, [r7, #48]	@ 0x30
 80053a6:	f423 7390 	bic.w	r3, r3, #288	@ 0x120
 80053aa:	64fb      	str	r3, [r7, #76]	@ 0x4c
 80053ac:	687b      	ldr	r3, [r7, #4]
 80053ae:	681b      	ldr	r3, [r3, #0]
 80053b0:	330c      	adds	r3, #12
 80053b2:	6cfa      	ldr	r2, [r7, #76]	@ 0x4c
 80053b4:	643a      	str	r2, [r7, #64]	@ 0x40
 80053b6:	63fb      	str	r3, [r7, #60]	@ 0x3c
   __ASM volatile ("strex %0, %2, %1" : "=&r" (result), "=Q" (*addr) : "r" (value) );
 80053b8:	6bf9      	ldr	r1, [r7, #60]	@ 0x3c
 80053ba:	6c3a      	ldr	r2, [r7, #64]	@ 0x40
 80053bc:	e841 2300 	strex	r3, r2, [r1]
 80053c0:	63bb      	str	r3, [r7, #56]	@ 0x38
   return(result);
 80053c2:	6bbb      	ldr	r3, [r7, #56]	@ 0x38
 80053c4:	2b00      	cmp	r3, #0
 80053c6:	d1e5      	bne.n	8005394 <UART_EndRxTransfer+0x8>
  ATOMIC_CLEAR_BIT(huart->Instance->CR3, USART_CR3_EIE);
 80053c8:	687b      	ldr	r3, [r7, #4]
 80053ca:	681b      	ldr	r3, [r3, #0]
 80053cc:	3314      	adds	r3, #20
 80053ce:	623b      	str	r3, [r7, #32]
   __ASM volatile ("ldrex %0, %1" : "=r" (result) : "Q" (*addr) );
 80053d0:	6a3b      	ldr	r3, [r7, #32]
 80053d2:	e853 3f00 	ldrex	r3, [r3]
 80053d6:	61fb      	str	r3, [r7, #28]
   return(result);
 80053d8:	69fb      	ldr	r3, [r7, #28]
 80053da:	f023 0301 	bic.w	r3, r3, #1
 80053de:	64bb      	str	r3, [r7, #72]	@ 0x48
 80053e0:	687b      	ldr	r3, [r7, #4]
 80053e2:	681b      	ldr	r3, [r3, #0]
 80053e4:	3314      	adds	r3, #20
 80053e6:	6cba      	ldr	r2, [r7, #72]	@ 0x48
 80053e8:	62fa      	str	r2, [r7, #44]	@ 0x2c
 80053ea:	62bb      	str	r3, [r7, #40]	@ 0x28
   __ASM volatile ("strex %0, %2, %1" : "=&r" (result), "=Q" (*addr) : "r" (value) );
 80053ec:	6ab9      	ldr	r1, [r7, #40]	@ 0x28
 80053ee:	6afa      	ldr	r2, [r7, #44]	@ 0x2c
 80053f0:	e841 2300 	strex	r3, r2, [r1]
 80053f4:	627b      	str	r3, [r7, #36]	@ 0x24
   return(result);
 80053f6:	6a7b      	ldr	r3, [r7, #36]	@ 0x24
 80053f8:	2b00      	cmp	r3, #0
 80053fa:	d1e5      	bne.n	80053c8 <UART_EndRxTransfer+0x3c>

  /* In case of reception waiting for IDLE event, disable also the IDLE IE interrupt source */
  if (huart->ReceptionType == HAL_UART_RECEPTION_TOIDLE)
 80053fc:	687b      	ldr	r3, [r7, #4]
 80053fe:	6b1b      	ldr	r3, [r3, #48]	@ 0x30
 8005400:	2b01      	cmp	r3, #1
 8005402:	d119      	bne.n	8005438 <UART_EndRxTransfer+0xac>
  {
    ATOMIC_CLEAR_BIT(huart->Instance->CR1, USART_CR1_IDLEIE);
 8005404:	687b      	ldr	r3, [r7, #4]
 8005406:	681b      	ldr	r3, [r3, #0]
 8005408:	330c      	adds	r3, #12
 800540a:	60fb      	str	r3, [r7, #12]
   __ASM volatile ("ldrex %0, %1" : "=r" (result) : "Q" (*addr) );
 800540c:	68fb      	ldr	r3, [r7, #12]
 800540e:	e853 3f00 	ldrex	r3, [r3]
 8005412:	60bb      	str	r3, [r7, #8]
   return(result);
 8005414:	68bb      	ldr	r3, [r7, #8]
 8005416:	f023 0310 	bic.w	r3, r3, #16
 800541a:	647b      	str	r3, [r7, #68]	@ 0x44
 800541c:	687b      	ldr	r3, [r7, #4]
 800541e:	681b      	ldr	r3, [r3, #0]
 8005420:	330c      	adds	r3, #12
 8005422:	6c7a      	ldr	r2, [r7, #68]	@ 0x44
 8005424:	61ba      	str	r2, [r7, #24]
 8005426:	617b      	str	r3, [r7, #20]
   __ASM volatile ("strex %0, %2, %1" : "=&r" (result), "=Q" (*addr) : "r" (value) );
 8005428:	6979      	ldr	r1, [r7, #20]
 800542a:	69ba      	ldr	r2, [r7, #24]
 800542c:	e841 2300 	strex	r3, r2, [r1]
 8005430:	613b      	str	r3, [r7, #16]
   return(result);
 8005432:	693b      	ldr	r3, [r7, #16]
 8005434:	2b00      	cmp	r3, #0
 8005436:	d1e5      	bne.n	8005404 <UART_EndRxTransfer+0x78>
  }

  /* At end of Rx process, restore huart->RxState to Ready */
  huart->RxState = HAL_UART_STATE_READY;
 8005438:	687b      	ldr	r3, [r7, #4]
 800543a:	2220      	movs	r2, #32
 800543c:	f883 2042 	strb.w	r2, [r3, #66]	@ 0x42
  huart->ReceptionType = HAL_UART_RECEPTION_STANDARD;
 8005440:	687b      	ldr	r3, [r7, #4]
 8005442:	2200      	movs	r2, #0
 8005444:	631a      	str	r2, [r3, #48]	@ 0x30
}
 8005446:	bf00      	nop
 8005448:	3754      	adds	r7, #84	@ 0x54
 800544a:	46bd      	mov	sp, r7
 800544c:	bc80      	pop	{r7}
 800544e:	4770      	bx	lr

08005450 <UART_DMAAbortOnError>:
  * @param  hdma  Pointer to a DMA_HandleTypeDef structure that contains
  *               the configuration information for the specified DMA module.
  * @retval None
  */
static void UART_DMAAbortOnError(DMA_HandleTypeDef *hdma)
{
 8005450:	b580      	push	{r7, lr}
 8005452:	b084      	sub	sp, #16
 8005454:	af00      	add	r7, sp, #0
 8005456:	6078      	str	r0, [r7, #4]
  UART_HandleTypeDef *huart = (UART_HandleTypeDef *)((DMA_HandleTypeDef *)hdma)->Parent;
 8005458:	687b      	ldr	r3, [r7, #4]
 800545a:	6a5b      	ldr	r3, [r3, #36]	@ 0x24
 800545c:	60fb      	str	r3, [r7, #12]
  huart->RxXferCount = 0x00U;
 800545e:	68fb      	ldr	r3, [r7, #12]
 8005460:	2200      	movs	r2, #0
 8005462:	85da      	strh	r2, [r3, #46]	@ 0x2e
  huart->TxXferCount = 0x00U;
 8005464:	68fb      	ldr	r3, [r7, #12]
 8005466:	2200      	movs	r2, #0
 8005468:	84da      	strh	r2, [r3, #38]	@ 0x26
#if (USE_HAL_UART_REGISTER_CALLBACKS == 1)
  /*Call registered error callback*/
  huart->ErrorCallback(huart);
#else
  /*Call legacy weak error callback*/
  HAL_UART_ErrorCallback(huart);
 800546a:	68f8      	ldr	r0, [r7, #12]
 800546c:	f7ff ff41 	bl	80052f2 <HAL_UART_ErrorCallback>
#endif /* USE_HAL_UART_REGISTER_CALLBACKS */
}
 8005470:	bf00      	nop
 8005472:	3710      	adds	r7, #16
 8005474:	46bd      	mov	sp, r7
 8005476:	bd80      	pop	{r7, pc}

08005478 <UART_Transmit_IT>:
  * @param  huart  Pointer to a UART_HandleTypeDef structure that contains
  *                the configuration information for the specified UART module.
  * @retval HAL status
  */
static HAL_StatusTypeDef UART_Transmit_IT(UART_HandleTypeDef *huart)
{
 8005478:	b480      	push	{r7}
 800547a:	b085      	sub	sp, #20
 800547c:	af00      	add	r7, sp, #0
 800547e:	6078      	str	r0, [r7, #4]
  const uint16_t *tmp;

  /* Check that a Tx process is ongoing */
  if (huart->gState == HAL_UART_STATE_BUSY_TX)
 8005480:	687b      	ldr	r3, [r7, #4]
 8005482:	f893 3041 	ldrb.w	r3, [r3, #65]	@ 0x41
 8005486:	b2db      	uxtb	r3, r3
 8005488:	2b21      	cmp	r3, #33	@ 0x21
 800548a:	d13e      	bne.n	800550a <UART_Transmit_IT+0x92>
  {
    if ((huart->Init.WordLength == UART_WORDLENGTH_9B) && (huart->Init.Parity == UART_PARITY_NONE))
 800548c:	687b      	ldr	r3, [r7, #4]
 800548e:	689b      	ldr	r3, [r3, #8]
 8005490:	f5b3 5f80 	cmp.w	r3, #4096	@ 0x1000
 8005494:	d114      	bne.n	80054c0 <UART_Transmit_IT+0x48>
 8005496:	687b      	ldr	r3, [r7, #4]
 8005498:	691b      	ldr	r3, [r3, #16]
 800549a:	2b00      	cmp	r3, #0
 800549c:	d110      	bne.n	80054c0 <UART_Transmit_IT+0x48>
    {
      tmp = (const uint16_t *) huart->pTxBuffPtr;
 800549e:	687b      	ldr	r3, [r7, #4]
 80054a0:	6a1b      	ldr	r3, [r3, #32]
 80054a2:	60fb      	str	r3, [r7, #12]
      huart->Instance->DR = (uint16_t)(*tmp & (uint16_t)0x01FF);
 80054a4:	68fb      	ldr	r3, [r7, #12]
 80054a6:	881b      	ldrh	r3, [r3, #0]
 80054a8:	461a      	mov	r2, r3
 80054aa:	687b      	ldr	r3, [r7, #4]
 80054ac:	681b      	ldr	r3, [r3, #0]
 80054ae:	f3c2 0208 	ubfx	r2, r2, #0, #9
 80054b2:	605a      	str	r2, [r3, #4]
      huart->pTxBuffPtr += 2U;
 80054b4:	687b      	ldr	r3, [r7, #4]
 80054b6:	6a1b      	ldr	r3, [r3, #32]
 80054b8:	1c9a      	adds	r2, r3, #2
 80054ba:	687b      	ldr	r3, [r7, #4]
 80054bc:	621a      	str	r2, [r3, #32]
 80054be:	e008      	b.n	80054d2 <UART_Transmit_IT+0x5a>
    }
    else
    {
      huart->Instance->DR = (uint8_t)(*huart->pTxBuffPtr++ & (uint8_t)0x00FF);
 80054c0:	687b      	ldr	r3, [r7, #4]
 80054c2:	6a1b      	ldr	r3, [r3, #32]
 80054c4:	1c59      	adds	r1, r3, #1
 80054c6:	687a      	ldr	r2, [r7, #4]
 80054c8:	6211      	str	r1, [r2, #32]
 80054ca:	781a      	ldrb	r2, [r3, #0]
 80054cc:	687b      	ldr	r3, [r7, #4]
 80054ce:	681b      	ldr	r3, [r3, #0]
 80054d0:	605a      	str	r2, [r3, #4]
    }

    if (--huart->TxXferCount == 0U)
 80054d2:	687b      	ldr	r3, [r7, #4]
 80054d4:	8cdb      	ldrh	r3, [r3, #38]	@ 0x26
 80054d6:	b29b      	uxth	r3, r3
 80054d8:	3b01      	subs	r3, #1
 80054da:	b29b      	uxth	r3, r3
 80054dc:	687a      	ldr	r2, [r7, #4]
 80054de:	4619      	mov	r1, r3
 80054e0:	84d1      	strh	r1, [r2, #38]	@ 0x26
 80054e2:	2b00      	cmp	r3, #0
 80054e4:	d10f      	bne.n	8005506 <UART_Transmit_IT+0x8e>
    {
      /* Disable the UART Transmit Data Register Empty Interrupt */
      __HAL_UART_DISABLE_IT(huart, UART_IT_TXE);
 80054e6:	687b      	ldr	r3, [r7, #4]
 80054e8:	681b      	ldr	r3, [r3, #0]
 80054ea:	68da      	ldr	r2, [r3, #12]
 80054ec:	687b      	ldr	r3, [r7, #4]
 80054ee:	681b      	ldr	r3, [r3, #0]
 80054f0:	f022 0280 	bic.w	r2, r2, #128	@ 0x80
 80054f4:	60da      	str	r2, [r3, #12]

      /* Enable the UART Transmit Complete Interrupt */
      __HAL_UART_ENABLE_IT(huart, UART_IT_TC);
 80054f6:	687b      	ldr	r3, [r7, #4]
 80054f8:	681b      	ldr	r3, [r3, #0]
 80054fa:	68da      	ldr	r2, [r3, #12]
 80054fc:	687b      	ldr	r3, [r7, #4]
 80054fe:	681b      	ldr	r3, [r3, #0]
 8005500:	f042 0240 	orr.w	r2, r2, #64	@ 0x40
 8005504:	60da      	str	r2, [r3, #12]
    }
    return HAL_OK;
 8005506:	2300      	movs	r3, #0
 8005508:	e000      	b.n	800550c <UART_Transmit_IT+0x94>
  }
  else
  {
    return HAL_BUSY;
 800550a:	2302      	movs	r3, #2
  }
}
 800550c:	4618      	mov	r0, r3
 800550e:	3714      	adds	r7, #20
 8005510:	46bd      	mov	sp, r7
 8005512:	bc80      	pop	{r7}
 8005514:	4770      	bx	lr

08005516 <UART_EndTransmit_IT>:
  * @param  huart  Pointer to a UART_HandleTypeDef structure that contains
  *                the configuration information for the specified UART module.
  * @retval HAL status
  */
static HAL_StatusTypeDef UART_EndTransmit_IT(UART_HandleTypeDef *huart)
{
 8005516:	b580      	push	{r7, lr}
 8005518:	b082      	sub	sp, #8
 800551a:	af00      	add	r7, sp, #0
 800551c:	6078      	str	r0, [r7, #4]
  /* Disable the UART Transmit Complete Interrupt */
  __HAL_UART_DISABLE_IT(huart, UART_IT_TC);
 800551e:	687b      	ldr	r3, [r7, #4]
 8005520:	681b      	ldr	r3, [r3, #0]
 8005522:	68da      	ldr	r2, [r3, #12]
 8005524:	687b      	ldr	r3, [r7, #4]
 8005526:	681b      	ldr	r3, [r3, #0]
 8005528:	f022 0240 	bic.w	r2, r2, #64	@ 0x40
 800552c:	60da      	str	r2, [r3, #12]

  /* Tx process is ended, restore huart->gState to Ready */
  huart->gState = HAL_UART_STATE_READY;
 800552e:	687b      	ldr	r3, [r7, #4]
 8005530:	2220      	movs	r2, #32
 8005532:	f883 2041 	strb.w	r2, [r3, #65]	@ 0x41
#if (USE_HAL_UART_REGISTER_CALLBACKS == 1)
  /*Call registered Tx complete callback*/
  huart->TxCpltCallback(huart);
#else
  /*Call legacy weak Tx complete callback*/
  HAL_UART_TxCpltCallback(huart);
 8005536:	6878      	ldr	r0, [r7, #4]
 8005538:	f7ff fed2 	bl	80052e0 <HAL_UART_TxCpltCallback>
#endif /* USE_HAL_UART_REGISTER_CALLBACKS */

  return HAL_OK;
 800553c:	2300      	movs	r3, #0
}
 800553e:	4618      	mov	r0, r3
 8005540:	3708      	adds	r7, #8
 8005542:	46bd      	mov	sp, r7
 8005544:	bd80      	pop	{r7, pc}

08005546 <UART_Receive_IT>:
  * @param  huart  Pointer to a UART_HandleTypeDef structure that contains
  *                the configuration information for the specified UART module.
  * @retval HAL status
  */
static HAL_StatusTypeDef UART_Receive_IT(UART_HandleTypeDef *huart)
{
 8005546:	b580      	push	{r7, lr}
 8005548:	b08c      	sub	sp, #48	@ 0x30
 800554a:	af00      	add	r7, sp, #0
 800554c:	6078      	str	r0, [r7, #4]
  uint8_t  *pdata8bits;
  uint16_t *pdata16bits;

  /* Check that a Rx process is ongoing */
  if (huart->RxState == HAL_UART_STATE_BUSY_RX)
 800554e:	687b      	ldr	r3, [r7, #4]
 8005550:	f893 3042 	ldrb.w	r3, [r3, #66]	@ 0x42
 8005554:	b2db      	uxtb	r3, r3
 8005556:	2b22      	cmp	r3, #34	@ 0x22
 8005558:	f040 80ae 	bne.w	80056b8 <UART_Receive_IT+0x172>
  {
    if ((huart->Init.WordLength == UART_WORDLENGTH_9B) && (huart->Init.Parity == UART_PARITY_NONE))
 800555c:	687b      	ldr	r3, [r7, #4]
 800555e:	689b      	ldr	r3, [r3, #8]
 8005560:	f5b3 5f80 	cmp.w	r3, #4096	@ 0x1000
 8005564:	d117      	bne.n	8005596 <UART_Receive_IT+0x50>
 8005566:	687b      	ldr	r3, [r7, #4]
 8005568:	691b      	ldr	r3, [r3, #16]
 800556a:	2b00      	cmp	r3, #0
 800556c:	d113      	bne.n	8005596 <UART_Receive_IT+0x50>
    {
      pdata8bits  = NULL;
 800556e:	2300      	movs	r3, #0
 8005570:	62fb      	str	r3, [r7, #44]	@ 0x2c
      pdata16bits = (uint16_t *) huart->pRxBuffPtr;
 8005572:	687b      	ldr	r3, [r7, #4]
 8005574:	6a9b      	ldr	r3, [r3, #40]	@ 0x28
 8005576:	62bb      	str	r3, [r7, #40]	@ 0x28
      *pdata16bits = (uint16_t)(huart->Instance->DR & (uint16_t)0x01FF);
 8005578:	687b      	ldr	r3, [r7, #4]
 800557a:	681b      	ldr	r3, [r3, #0]
 800557c:	685b      	ldr	r3, [r3, #4]
 800557e:	b29b      	uxth	r3, r3
 8005580:	f3c3 0308 	ubfx	r3, r3, #0, #9
 8005584:	b29a      	uxth	r2, r3
 8005586:	6abb      	ldr	r3, [r7, #40]	@ 0x28
 8005588:	801a      	strh	r2, [r3, #0]
      huart->pRxBuffPtr += 2U;
 800558a:	687b      	ldr	r3, [r7, #4]
 800558c:	6a9b      	ldr	r3, [r3, #40]	@ 0x28
 800558e:	1c9a      	adds	r2, r3, #2
 8005590:	687b      	ldr	r3, [r7, #4]
 8005592:	629a      	str	r2, [r3, #40]	@ 0x28
 8005594:	e026      	b.n	80055e4 <UART_Receive_IT+0x9e>
    }
    else
    {
      pdata8bits = (uint8_t *) huart->pRxBuffPtr;
 8005596:	687b      	ldr	r3, [r7, #4]
 8005598:	6a9b      	ldr	r3, [r3, #40]	@ 0x28
 800559a:	62fb      	str	r3, [r7, #44]	@ 0x2c
      pdata16bits  = NULL;
 800559c:	2300      	movs	r3, #0
 800559e:	62bb      	str	r3, [r7, #40]	@ 0x28

      if ((huart->Init.WordLength == UART_WORDLENGTH_9B) || ((huart->Init.WordLength == UART_WORDLENGTH_8B) && (huart->Init.Parity == UART_PARITY_NONE)))
 80055a0:	687b      	ldr	r3, [r7, #4]
 80055a2:	689b      	ldr	r3, [r3, #8]
 80055a4:	f5b3 5f80 	cmp.w	r3, #4096	@ 0x1000
 80055a8:	d007      	beq.n	80055ba <UART_Receive_IT+0x74>
 80055aa:	687b      	ldr	r3, [r7, #4]
 80055ac:	689b      	ldr	r3, [r3, #8]
 80055ae:	2b00      	cmp	r3, #0
 80055b0:	d10a      	bne.n	80055c8 <UART_Receive_IT+0x82>
 80055b2:	687b      	ldr	r3, [r7, #4]
 80055b4:	691b      	ldr	r3, [r3, #16]
 80055b6:	2b00      	cmp	r3, #0
 80055b8:	d106      	bne.n	80055c8 <UART_Receive_IT+0x82>
      {
        *pdata8bits = (uint8_t)(huart->Instance->DR & (uint8_t)0x00FF);
 80055ba:	687b      	ldr	r3, [r7, #4]
 80055bc:	681b      	ldr	r3, [r3, #0]
 80055be:	685b      	ldr	r3, [r3, #4]
 80055c0:	b2da      	uxtb	r2, r3
 80055c2:	6afb      	ldr	r3, [r7, #44]	@ 0x2c
 80055c4:	701a      	strb	r2, [r3, #0]
 80055c6:	e008      	b.n	80055da <UART_Receive_IT+0x94>
      }
      else
      {
        *pdata8bits = (uint8_t)(huart->Instance->DR & (uint8_t)0x007F);
 80055c8:	687b      	ldr	r3, [r7, #4]
 80055ca:	681b      	ldr	r3, [r3, #0]
 80055cc:	685b      	ldr	r3, [r3, #4]
 80055ce:	b2db      	uxtb	r3, r3
 80055d0:	f003 037f 	and.w	r3, r3, #127	@ 0x7f
 80055d4:	b2da      	uxtb	r2, r3
 80055d6:	6afb      	ldr	r3, [r7, #44]	@ 0x2c
 80055d8:	701a      	strb	r2, [r3, #0]
      }
      huart->pRxBuffPtr += 1U;
 80055da:	687b      	ldr	r3, [r7, #4]
 80055dc:	6a9b      	ldr	r3, [r3, #40]	@ 0x28
 80055de:	1c5a      	adds	r2, r3, #1
 80055e0:	687b      	ldr	r3, [r7, #4]
 80055e2:	629a      	str	r2, [r3, #40]	@ 0x28
    }

    if (--huart->RxXferCount == 0U)
 80055e4:	687b      	ldr	r3, [r7, #4]
 80055e6:	8ddb      	ldrh	r3, [r3, #46]	@ 0x2e
 80055e8:	b29b      	uxth	r3, r3
 80055ea:	3b01      	subs	r3, #1
 80055ec:	b29b      	uxth	r3, r3
 80055ee:	687a      	ldr	r2, [r7, #4]
 80055f0:	4619      	mov	r1, r3
 80055f2:	85d1      	strh	r1, [r2, #46]	@ 0x2e
 80055f4:	2b00      	cmp	r3, #0
 80055f6:	d15d      	bne.n	80056b4 <UART_Receive_IT+0x16e>
    {
      /* Disable the UART Data Register not empty Interrupt */
      __HAL_UART_DISABLE_IT(huart, UART_IT_RXNE);
 80055f8:	687b      	ldr	r3, [r7, #4]
 80055fa:	681b      	ldr	r3, [r3, #0]
 80055fc:	68da      	ldr	r2, [r3, #12]
 80055fe:	687b      	ldr	r3, [r7, #4]
 8005600:	681b      	ldr	r3, [r3, #0]
 8005602:	f022 0220 	bic.w	r2, r2, #32
 8005606:	60da      	str	r2, [r3, #12]

      /* Disable the UART Parity Error Interrupt */
      __HAL_UART_DISABLE_IT(huart, UART_IT_PE);
 8005608:	687b      	ldr	r3, [r7, #4]
 800560a:	681b      	ldr	r3, [r3, #0]
 800560c:	68da      	ldr	r2, [r3, #12]
 800560e:	687b      	ldr	r3, [r7, #4]
 8005610:	681b      	ldr	r3, [r3, #0]
 8005612:	f422 7280 	bic.w	r2, r2, #256	@ 0x100
 8005616:	60da      	str	r2, [r3, #12]

      /* Disable the UART Error Interrupt: (Frame error, noise error, overrun error) */
      __HAL_UART_DISABLE_IT(huart, UART_IT_ERR);
 8005618:	687b      	ldr	r3, [r7, #4]
 800561a:	681b      	ldr	r3, [r3, #0]
 800561c:	695a      	ldr	r2, [r3, #20]
 800561e:	687b      	ldr	r3, [r7, #4]
 8005620:	681b      	ldr	r3, [r3, #0]
 8005622:	f022 0201 	bic.w	r2, r2, #1
 8005626:	615a      	str	r2, [r3, #20]

      /* Rx process is completed, restore huart->RxState to Ready */
      huart->RxState = HAL_UART_STATE_READY;
 8005628:	687b      	ldr	r3, [r7, #4]
 800562a:	2220      	movs	r2, #32
 800562c:	f883 2042 	strb.w	r2, [r3, #66]	@ 0x42

      /* Initialize type of RxEvent to Transfer Complete */
      huart->RxEventType = HAL_UART_RXEVENT_TC;
 8005630:	687b      	ldr	r3, [r7, #4]
 8005632:	2200      	movs	r2, #0
 8005634:	635a      	str	r2, [r3, #52]	@ 0x34

      /* Check current reception Mode :
         If Reception till IDLE event has been selected : */
      if (huart->ReceptionType == HAL_UART_RECEPTION_TOIDLE)
 8005636:	687b      	ldr	r3, [r7, #4]
 8005638:	6b1b      	ldr	r3, [r3, #48]	@ 0x30
 800563a:	2b01      	cmp	r3, #1
 800563c:	d135      	bne.n	80056aa <UART_Receive_IT+0x164>
      {
        /* Set reception type to Standard */
        huart->ReceptionType = HAL_UART_RECEPTION_STANDARD;
 800563e:	687b      	ldr	r3, [r7, #4]
 8005640:	2200      	movs	r2, #0
 8005642:	631a      	str	r2, [r3, #48]	@ 0x30

        /* Disable IDLE interrupt */
        ATOMIC_CLEAR_BIT(huart->Instance->CR1, USART_CR1_IDLEIE);
 8005644:	687b      	ldr	r3, [r7, #4]
 8005646:	681b      	ldr	r3, [r3, #0]
 8005648:	330c      	adds	r3, #12
 800564a:	617b      	str	r3, [r7, #20]
   __ASM volatile ("ldrex %0, %1" : "=r" (result) : "Q" (*addr) );
 800564c:	697b      	ldr	r3, [r7, #20]
 800564e:	e853 3f00 	ldrex	r3, [r3]
 8005652:	613b      	str	r3, [r7, #16]
   return(result);
 8005654:	693b      	ldr	r3, [r7, #16]
 8005656:	f023 0310 	bic.w	r3, r3, #16
 800565a:	627b      	str	r3, [r7, #36]	@ 0x24
 800565c:	687b      	ldr	r3, [r7, #4]
 800565e:	681b      	ldr	r3, [r3, #0]
 8005660:	330c      	adds	r3, #12
 8005662:	6a7a      	ldr	r2, [r7, #36]	@ 0x24
 8005664:	623a      	str	r2, [r7, #32]
 8005666:	61fb      	str	r3, [r7, #28]
   __ASM volatile ("strex %0, %2, %1" : "=&r" (result), "=Q" (*addr) : "r" (value) );
 8005668:	69f9      	ldr	r1, [r7, #28]
 800566a:	6a3a      	ldr	r2, [r7, #32]
 800566c:	e841 2300 	strex	r3, r2, [r1]
 8005670:	61bb      	str	r3, [r7, #24]
   return(result);
 8005672:	69bb      	ldr	r3, [r7, #24]
 8005674:	2b00      	cmp	r3, #0
 8005676:	d1e5      	bne.n	8005644 <UART_Receive_IT+0xfe>

        /* Check if IDLE flag is set */
        if (__HAL_UART_GET_FLAG(huart, UART_FLAG_IDLE))
 8005678:	687b      	ldr	r3, [r7, #4]
 800567a:	681b      	ldr	r3, [r3, #0]
 800567c:	681b      	ldr	r3, [r3, #0]
 800567e:	f003 0310 	and.w	r3, r3, #16
 8005682:	2b10      	cmp	r3, #16
 8005684:	d10a      	bne.n	800569c <UART_Receive_IT+0x156>
        {
          /* Clear IDLE flag in ISR */
          __HAL_UART_CLEAR_IDLEFLAG(huart);
 8005686:	2300      	movs	r3, #0
 8005688:	60fb      	str	r3, [r7, #12]
 800568a:	687b      	ldr	r3, [r7, #4]
 800568c:	681b      	ldr	r3, [r3, #0]
 800568e:	681b      	ldr	r3, [r3, #0]
 8005690:	60fb      	str	r3, [r7, #12]
 8005692:	687b      	ldr	r3, [r7, #4]
 8005694:	681b      	ldr	r3, [r3, #0]
 8005696:	685b      	ldr	r3, [r3, #4]
 8005698:	60fb      	str	r3, [r7, #12]
 800569a:	68fb      	ldr	r3, [r7, #12]
#if (USE_HAL_UART_REGISTER_CALLBACKS == 1)
        /*Call registered Rx Event callback*/
        huart->RxEventCallback(huart, huart->RxXferSize);
#else
        /*Call legacy weak Rx Event callback*/
        HAL_UARTEx_RxEventCallback(huart, huart->RxXferSize);
 800569c:	687b      	ldr	r3, [r7, #4]
 800569e:	8d9b      	ldrh	r3, [r3, #44]	@ 0x2c
 80056a0:	4619      	mov	r1, r3
 80056a2:	6878      	ldr	r0, [r7, #4]
 80056a4:	f7ff fe2e 	bl	8005304 <HAL_UARTEx_RxEventCallback>
 80056a8:	e002      	b.n	80056b0 <UART_Receive_IT+0x16a>
#if (USE_HAL_UART_REGISTER_CALLBACKS == 1)
        /*Call registered Rx complete callback*/
        huart->RxCpltCallback(huart);
#else
        /*Call legacy weak Rx complete callback*/
        HAL_UART_RxCpltCallback(huart);
 80056aa:	6878      	ldr	r0, [r7, #4]
 80056ac:	f7fc fb46 	bl	8001d3c <HAL_UART_RxCpltCallback>
#endif /* USE_HAL_UART_REGISTER_CALLBACKS */
      }

      return HAL_OK;
 80056b0:	2300      	movs	r3, #0
 80056b2:	e002      	b.n	80056ba <UART_Receive_IT+0x174>
    }
    return HAL_OK;
 80056b4:	2300      	movs	r3, #0
 80056b6:	e000      	b.n	80056ba <UART_Receive_IT+0x174>
  }
  else
  {
    return HAL_BUSY;
 80056b8:	2302      	movs	r3, #2
  }
}
 80056ba:	4618      	mov	r0, r3
 80056bc:	3730      	adds	r7, #48	@ 0x30
 80056be:	46bd      	mov	sp, r7
 80056c0:	bd80      	pop	{r7, pc}
	...

080056c4 <UART_SetConfig>:
  * @param  huart  Pointer to a UART_HandleTypeDef structure that contains
  *                the configuration information for the specified UART module.
  * @retval None
  */
static void UART_SetConfig(UART_HandleTypeDef *huart)
{
 80056c4:	b580      	push	{r7, lr}
 80056c6:	b084      	sub	sp, #16
 80056c8:	af00      	add	r7, sp, #0
 80056ca:	6078      	str	r0, [r7, #4]
  assert_param(IS_UART_MODE(huart->Init.Mode));

  /*-------------------------- USART CR2 Configuration -----------------------*/
  /* Configure the UART Stop Bits: Set STOP[13:12] bits
     according to huart->Init.StopBits value */
  MODIFY_REG(huart->Instance->CR2, USART_CR2_STOP, huart->Init.StopBits);
 80056cc:	687b      	ldr	r3, [r7, #4]
 80056ce:	681b      	ldr	r3, [r3, #0]
 80056d0:	691b      	ldr	r3, [r3, #16]
 80056d2:	f423 5140 	bic.w	r1, r3, #12288	@ 0x3000
 80056d6:	687b      	ldr	r3, [r7, #4]
 80056d8:	68da      	ldr	r2, [r3, #12]
 80056da:	687b      	ldr	r3, [r7, #4]
 80056dc:	681b      	ldr	r3, [r3, #0]
 80056de:	430a      	orrs	r2, r1
 80056e0:	611a      	str	r2, [r3, #16]
  tmpreg = (uint32_t)huart->Init.WordLength | huart->Init.Parity | huart->Init.Mode | huart->Init.OverSampling;
  MODIFY_REG(huart->Instance->CR1,
             (uint32_t)(USART_CR1_M | USART_CR1_PCE | USART_CR1_PS | USART_CR1_TE | USART_CR1_RE | USART_CR1_OVER8),
             tmpreg);
#else
  tmpreg = (uint32_t)huart->Init.WordLength | huart->Init.Parity | huart->Init.Mode;
 80056e2:	687b      	ldr	r3, [r7, #4]
 80056e4:	689a      	ldr	r2, [r3, #8]
 80056e6:	687b      	ldr	r3, [r7, #4]
 80056e8:	691b      	ldr	r3, [r3, #16]
 80056ea:	431a      	orrs	r2, r3
 80056ec:	687b      	ldr	r3, [r7, #4]
 80056ee:	695b      	ldr	r3, [r3, #20]
 80056f0:	4313      	orrs	r3, r2
 80056f2:	60bb      	str	r3, [r7, #8]
  MODIFY_REG(huart->Instance->CR1,
 80056f4:	687b      	ldr	r3, [r7, #4]
 80056f6:	681b      	ldr	r3, [r3, #0]
 80056f8:	68db      	ldr	r3, [r3, #12]
 80056fa:	f423 53b0 	bic.w	r3, r3, #5632	@ 0x1600
 80056fe:	f023 030c 	bic.w	r3, r3, #12
 8005702:	687a      	ldr	r2, [r7, #4]
 8005704:	6812      	ldr	r2, [r2, #0]
 8005706:	68b9      	ldr	r1, [r7, #8]
 8005708:	430b      	orrs	r3, r1
 800570a:	60d3      	str	r3, [r2, #12]
             tmpreg);
#endif /* USART_CR1_OVER8 */

  /*-------------------------- USART CR3 Configuration -----------------------*/
  /* Configure the UART HFC: Set CTSE and RTSE bits according to huart->Init.HwFlowCtl value */
  MODIFY_REG(huart->Instance->CR3, (USART_CR3_RTSE | USART_CR3_CTSE), huart->Init.HwFlowCtl);
 800570c:	687b      	ldr	r3, [r7, #4]
 800570e:	681b      	ldr	r3, [r3, #0]
 8005710:	695b      	ldr	r3, [r3, #20]
 8005712:	f423 7140 	bic.w	r1, r3, #768	@ 0x300
 8005716:	687b      	ldr	r3, [r7, #4]
 8005718:	699a      	ldr	r2, [r3, #24]
 800571a:	687b      	ldr	r3, [r7, #4]
 800571c:	681b      	ldr	r3, [r3, #0]
 800571e:	430a      	orrs	r2, r1
 8005720:	615a      	str	r2, [r3, #20]


  if(huart->Instance == USART1)
 8005722:	687b      	ldr	r3, [r7, #4]
 8005724:	681b      	ldr	r3, [r3, #0]
 8005726:	4a2c      	ldr	r2, [pc, #176]	@ (80057d8 <UART_SetConfig+0x114>)
 8005728:	4293      	cmp	r3, r2
 800572a:	d103      	bne.n	8005734 <UART_SetConfig+0x70>
  {
    pclk = HAL_RCC_GetPCLK2Freq();
 800572c:	f7ff f964 	bl	80049f8 <HAL_RCC_GetPCLK2Freq>
 8005730:	60f8      	str	r0, [r7, #12]
 8005732:	e002      	b.n	800573a <UART_SetConfig+0x76>
  }
  else
  {
    pclk = HAL_RCC_GetPCLK1Freq();
 8005734:	f7ff f94c 	bl	80049d0 <HAL_RCC_GetPCLK1Freq>
 8005738:	60f8      	str	r0, [r7, #12]
  else
  {
    huart->Instance->BRR = UART_BRR_SAMPLING16(pclk, huart->Init.BaudRate);
  }
#else
  huart->Instance->BRR = UART_BRR_SAMPLING16(pclk, huart->Init.BaudRate);
 800573a:	68fa      	ldr	r2, [r7, #12]
 800573c:	4613      	mov	r3, r2
 800573e:	009b      	lsls	r3, r3, #2
 8005740:	4413      	add	r3, r2
 8005742:	009a      	lsls	r2, r3, #2
 8005744:	441a      	add	r2, r3
 8005746:	687b      	ldr	r3, [r7, #4]
 8005748:	685b      	ldr	r3, [r3, #4]
 800574a:	009b      	lsls	r3, r3, #2
 800574c:	fbb2 f3f3 	udiv	r3, r2, r3
 8005750:	4a22      	ldr	r2, [pc, #136]	@ (80057dc <UART_SetConfig+0x118>)
 8005752:	fba2 2303 	umull	r2, r3, r2, r3
 8005756:	095b      	lsrs	r3, r3, #5
 8005758:	0119      	lsls	r1, r3, #4
 800575a:	68fa      	ldr	r2, [r7, #12]
 800575c:	4613      	mov	r3, r2
 800575e:	009b      	lsls	r3, r3, #2
 8005760:	4413      	add	r3, r2
 8005762:	009a      	lsls	r2, r3, #2
 8005764:	441a      	add	r2, r3
 8005766:	687b      	ldr	r3, [r7, #4]
 8005768:	685b      	ldr	r3, [r3, #4]
 800576a:	009b      	lsls	r3, r3, #2
 800576c:	fbb2 f2f3 	udiv	r2, r2, r3
 8005770:	4b1a      	ldr	r3, [pc, #104]	@ (80057dc <UART_SetConfig+0x118>)
 8005772:	fba3 0302 	umull	r0, r3, r3, r2
 8005776:	095b      	lsrs	r3, r3, #5
 8005778:	2064      	movs	r0, #100	@ 0x64
 800577a:	fb00 f303 	mul.w	r3, r0, r3
 800577e:	1ad3      	subs	r3, r2, r3
 8005780:	011b      	lsls	r3, r3, #4
 8005782:	3332      	adds	r3, #50	@ 0x32
 8005784:	4a15      	ldr	r2, [pc, #84]	@ (80057dc <UART_SetConfig+0x118>)
 8005786:	fba2 2303 	umull	r2, r3, r2, r3
 800578a:	095b      	lsrs	r3, r3, #5
 800578c:	f003 03f0 	and.w	r3, r3, #240	@ 0xf0
 8005790:	4419      	add	r1, r3
 8005792:	68fa      	ldr	r2, [r7, #12]
 8005794:	4613      	mov	r3, r2
 8005796:	009b      	lsls	r3, r3, #2
 8005798:	4413      	add	r3, r2
 800579a:	009a      	lsls	r2, r3, #2
 800579c:	441a      	add	r2, r3
 800579e:	687b      	ldr	r3, [r7, #4]
 80057a0:	685b      	ldr	r3, [r3, #4]
 80057a2:	009b      	lsls	r3, r3, #2
 80057a4:	fbb2 f2f3 	udiv	r2, r2, r3
 80057a8:	4b0c      	ldr	r3, [pc, #48]	@ (80057dc <UART_SetConfig+0x118>)
 80057aa:	fba3 0302 	umull	r0, r3, r3, r2
 80057ae:	095b      	lsrs	r3, r3, #5
 80057b0:	2064      	movs	r0, #100	@ 0x64
 80057b2:	fb00 f303 	mul.w	r3, r0, r3
 80057b6:	1ad3      	subs	r3, r2, r3
 80057b8:	011b      	lsls	r3, r3, #4
 80057ba:	3332      	adds	r3, #50	@ 0x32
 80057bc:	4a07      	ldr	r2, [pc, #28]	@ (80057dc <UART_SetConfig+0x118>)
 80057be:	fba2 2303 	umull	r2, r3, r2, r3
 80057c2:	095b      	lsrs	r3, r3, #5
 80057c4:	f003 020f 	and.w	r2, r3, #15
 80057c8:	687b      	ldr	r3, [r7, #4]
 80057ca:	681b      	ldr	r3, [r3, #0]
 80057cc:	440a      	add	r2, r1
 80057ce:	609a      	str	r2, [r3, #8]
#endif /* USART_CR1_OVER8 */
}
 80057d0:	bf00      	nop
 80057d2:	3710      	adds	r7, #16
 80057d4:	46bd      	mov	sp, r7
 80057d6:	bd80      	pop	{r7, pc}
 80057d8:	40013800 	.word	0x40013800
 80057dc:	51eb851f 	.word	0x51eb851f

080057e0 <memset>:
 80057e0:	4603      	mov	r3, r0
 80057e2:	4402      	add	r2, r0
 80057e4:	4293      	cmp	r3, r2
 80057e6:	d100      	bne.n	80057ea <memset+0xa>
 80057e8:	4770      	bx	lr
 80057ea:	f803 1b01 	strb.w	r1, [r3], #1
 80057ee:	e7f9      	b.n	80057e4 <memset+0x4>

080057f0 <__libc_init_array>:
 80057f0:	b570      	push	{r4, r5, r6, lr}
 80057f2:	2600      	movs	r6, #0
 80057f4:	4d0c      	ldr	r5, [pc, #48]	@ (8005828 <__libc_init_array+0x38>)
 80057f6:	4c0d      	ldr	r4, [pc, #52]	@ (800582c <__libc_init_array+0x3c>)
 80057f8:	1b64      	subs	r4, r4, r5
 80057fa:	10a4      	asrs	r4, r4, #2
 80057fc:	42a6      	cmp	r6, r4
 80057fe:	d109      	bne.n	8005814 <__libc_init_array+0x24>
 8005800:	f000 f81a 	bl	8005838 <_init>
 8005804:	2600      	movs	r6, #0
 8005806:	4d0a      	ldr	r5, [pc, #40]	@ (8005830 <__libc_init_array+0x40>)
 8005808:	4c0a      	ldr	r4, [pc, #40]	@ (8005834 <__libc_init_array+0x44>)
 800580a:	1b64      	subs	r4, r4, r5
 800580c:	10a4      	asrs	r4, r4, #2
 800580e:	42a6      	cmp	r6, r4
 8005810:	d105      	bne.n	800581e <__libc_init_array+0x2e>
 8005812:	bd70      	pop	{r4, r5, r6, pc}
 8005814:	f855 3b04 	ldr.w	r3, [r5], #4
 8005818:	4798      	blx	r3
 800581a:	3601      	adds	r6, #1
 800581c:	e7ee      	b.n	80057fc <__libc_init_array+0xc>
 800581e:	f855 3b04 	ldr.w	r3, [r5], #4
 8005822:	4798      	blx	r3
 8005824:	3601      	adds	r6, #1
 8005826:	e7f2      	b.n	800580e <__libc_init_array+0x1e>
 8005828:	0800588c 	.word	0x0800588c
 800582c:	0800588c 	.word	0x0800588c
 8005830:	0800588c 	.word	0x0800588c
 8005834:	08005890 	.word	0x08005890

08005838 <_init>:
 8005838:	b5f8      	push	{r3, r4, r5, r6, r7, lr}
 800583a:	bf00      	nop
 800583c:	bcf8      	pop	{r3, r4, r5, r6, r7}
 800583e:	bc08      	pop	{r3}
 8005840:	469e      	mov	lr, r3
 8005842:	4770      	bx	lr

08005844 <_fini>:
 8005844:	b5f8      	push	{r3, r4, r5, r6, r7, lr}
 8005846:	bf00      	nop
 8005848:	bcf8      	pop	{r3, r4, r5, r6, r7}
 800584a:	bc08      	pop	{r3}
 800584c:	469e      	mov	lr, r3
 800584e:	4770      	bx	lr
